
kernel.elf:     file format elf32-littlearm


Disassembly of section .text:

00008000 <_start>:
    8000:	e59ff018 	ldr	pc, [pc, #24]	; 8020 <reset_handler>
    8004:	e59ff018 	ldr	pc, [pc, #24]	; 8024 <undefined_handler>
    8008:	e59ff018 	ldr	pc, [pc, #24]	; 8028 <swi_handler>
    800c:	e59ff018 	ldr	pc, [pc, #24]	; 802c <prefetch_handler>
    8010:	e59ff018 	ldr	pc, [pc, #24]	; 8030 <data_handler>
    8014:	e59ff018 	ldr	pc, [pc, #24]	; 8034 <unused_handler>
    8018:	e59ff018 	ldr	pc, [pc, #24]	; 8038 <irq_handler>
    801c:	e59ff018 	ldr	pc, [pc, #24]	; 803c <fiq_handler>

00008020 <reset_handler>:
    8020:	00008040 	andeq	r8, r0, r0, asr #32

00008024 <undefined_handler>:
    8024:	00008084 	andeq	r8, r0, r4, lsl #1

00008028 <swi_handler>:
    8028:	00008088 	andeq	r8, r0, r8, lsl #1

0000802c <prefetch_handler>:
    802c:	0000808c 	andeq	r8, r0, ip, lsl #1

00008030 <data_handler>:
    8030:	00008090 	muleq	r0, r0, r0

00008034 <unused_handler>:
    8034:	00008094 	muleq	r0, r4, r0

00008038 <irq_handler>:
    8038:	000080cc 	andeq	r8, r0, ip, asr #1

0000803c <fiq_handler>:
    803c:	00008098 	muleq	r0, r8, r0

00008040 <reset>:
    8040:	e3a00902 	mov	r0, #32768	; 0x8000
    8044:	e3a01000 	mov	r1, #0
    8048:	e8b003fc 	ldm	r0!, {r2, r3, r4, r5, r6, r7, r8, r9}
    804c:	e8a103fc 	stmia	r1!, {r2, r3, r4, r5, r6, r7, r8, r9}
    8050:	e8b003fc 	ldm	r0!, {r2, r3, r4, r5, r6, r7, r8, r9}
    8054:	e8a103fc 	stmia	r1!, {r2, r3, r4, r5, r6, r7, r8, r9}
    8058:	e3a000d1 	mov	r0, #209	; 0xd1
    805c:	e121f000 	msr	CPSR_c, r0
    8060:	e3a0d90e 	mov	sp, #229376	; 0x38000
    8064:	e3a000d2 	mov	r0, #210	; 0xd2
    8068:	e121f000 	msr	CPSR_c, r0
    806c:	e3a0d701 	mov	sp, #262144	; 0x40000
    8070:	e3a000d3 	mov	r0, #211	; 0xd3
    8074:	e121f000 	msr	CPSR_c, r0
    8078:	e3a0d912 	mov	sp, #294912	; 0x48000
    807c:	eb00003d 	bl	8178 <start_kernel>

00008080 <hang>:
    8080:	eafffffe 	b	8080 <hang>

00008084 <undefined>:
    8084:	eafffffe 	b	8084 <undefined>

00008088 <swi>:
    8088:	eafffffe 	b	8088 <swi>

0000808c <prefetch>:
    808c:	eafffffe 	b	808c <prefetch>

00008090 <data>:
    8090:	eafffffe 	b	8090 <data>

00008094 <unused>:
    8094:	eafffffe 	b	8094 <unused>

00008098 <fiq>:
    8098:	eafffffe 	b	8098 <fiq>

0000809c <PUT32>:
    809c:	e5801000 	str	r1, [r0]
    80a0:	e12fff1e 	bx	lr

000080a4 <PUT16>:
    80a4:	e1c010b0 	strh	r1, [r0]
    80a8:	e12fff1e 	bx	lr

000080ac <PUT8>:
    80ac:	e5c01000 	strb	r1, [r0]
    80b0:	e12fff1e 	bx	lr

000080b4 <GET32>:
    80b4:	e5900000 	ldr	r0, [r0]
    80b8:	e12fff1e 	bx	lr

000080bc <GETPC>:
    80bc:	e1a0000e 	mov	r0, lr
    80c0:	e12fff1e 	bx	lr

000080c4 <BRANCHTO>:
    80c4:	e12fff10 	bx	r0

000080c8 <dummy>:
    80c8:	e12fff1e 	bx	lr

000080cc <irq>:
    80cc:	ea0002d5 	b	8c28 <ctx_switch>

000080d0 <processus_A>:
    80d0:	e52de004 	push	{lr}		; (str lr, [sp, #-4]!)
    80d4:	e24dd00c 	sub	sp, sp, #12
    80d8:	e3a03000 	mov	r3, #0
    80dc:	e58d3004 	str	r3, [sp, #4]
    80e0:	eb0001c4 	bl	87f8 <led_on>
    80e4:	e1a00000 	nop			; (mov r0, r0)
    80e8:	e59d2004 	ldr	r2, [sp, #4]
    80ec:	e59f302c 	ldr	r3, [pc, #44]	; 8120 <processus_A+0x50>
    80f0:	e1520003 	cmp	r2, r3
    80f4:	c3a03000 	movgt	r3, #0
    80f8:	d3a03001 	movle	r3, #1
    80fc:	e6ef3073 	uxtb	r3, r3
    8100:	e59d2004 	ldr	r2, [sp, #4]
    8104:	e2822001 	add	r2, r2, #1
    8108:	e58d2004 	str	r2, [sp, #4]
    810c:	e3530000 	cmp	r3, #0
    8110:	1afffff4 	bne	80e8 <processus_A+0x18>
    8114:	e3a03000 	mov	r3, #0
    8118:	e58d3004 	str	r3, [sp, #4]
    811c:	eaffffef 	b	80e0 <processus_A+0x10>
    8120:	001e847f 	andseq	r8, lr, pc, ror r4

00008124 <processus_B>:
    8124:	e52de004 	push	{lr}		; (str lr, [sp, #-4]!)
    8128:	e24dd00c 	sub	sp, sp, #12
    812c:	e3a03000 	mov	r3, #0
    8130:	e58d3004 	str	r3, [sp, #4]
    8134:	eb0001a9 	bl	87e0 <led_off>
    8138:	e1a00000 	nop			; (mov r0, r0)
    813c:	e59d2004 	ldr	r2, [sp, #4]
    8140:	e59f302c 	ldr	r3, [pc, #44]	; 8174 <processus_B+0x50>
    8144:	e1520003 	cmp	r2, r3
    8148:	c3a03000 	movgt	r3, #0
    814c:	d3a03001 	movle	r3, #1
    8150:	e6ef3073 	uxtb	r3, r3
    8154:	e59d2004 	ldr	r2, [sp, #4]
    8158:	e2822001 	add	r2, r2, #1
    815c:	e58d2004 	str	r2, [sp, #4]
    8160:	e3530000 	cmp	r3, #0
    8164:	1afffff4 	bne	813c <processus_B+0x18>
    8168:	e3a03000 	mov	r3, #0
    816c:	e58d3004 	str	r3, [sp, #4]
    8170:	eaffffef 	b	8134 <processus_B+0x10>
    8174:	001e847f 	andseq	r8, lr, pc, ror r4

00008178 <start_kernel>:
    8178:	e92d4008 	push	{r3, lr}
    817c:	e92d0001 	push	{r0}
    8180:	e10f0000 	mrs	r0, CPSR
    8184:	e3800080 	orr	r0, r0, #128	; 0x80
    8188:	e121f000 	msr	CPSR_c, r0
    818c:	e8bd0001 	pop	{r0}
    8190:	eb00019e 	bl	8810 <init_hw>
    8194:	e3a00805 	mov	r0, #327680	; 0x50000
    8198:	eb000012 	bl	81e8 <malloc_init>
    819c:	e59f0020 	ldr	r0, [pc, #32]	; 81c4 <start_kernel+0x4c>
    81a0:	e3a01c02 	mov	r1, #512	; 0x200
    81a4:	eb000209 	bl	89d0 <create_process>
    81a8:	e59f0018 	ldr	r0, [pc, #24]	; 81c8 <start_kernel+0x50>
    81ac:	e3a01c02 	mov	r1, #512	; 0x200
    81b0:	eb000206 	bl	89d0 <create_process>
    81b4:	eb000289 	bl	8be0 <start_sched>
    81b8:	e3a03000 	mov	r3, #0
    81bc:	e1a00003 	mov	r0, r3
    81c0:	e8bd8008 	pop	{r3, pc}
    81c4:	000080d0 	ldrdeq	r8, [r0], -r0
    81c8:	00008124 	andeq	r8, r0, r4, lsr #2

000081cc <malloc_get_entry>:
    81cc:	e24dd008 	sub	sp, sp, #8
    81d0:	e58d0004 	str	r0, [sp, #4]
    81d4:	e59d3004 	ldr	r3, [sp, #4]
    81d8:	e2433004 	sub	r3, r3, #4
    81dc:	e1a00003 	mov	r0, r3
    81e0:	e28dd008 	add	sp, sp, #8
    81e4:	e12fff1e 	bx	lr

000081e8 <malloc_init>:
    81e8:	e24dd010 	sub	sp, sp, #16
    81ec:	e58d0004 	str	r0, [sp, #4]
    81f0:	e3a03a05 	mov	r3, #20480	; 0x5000
    81f4:	e58d300c 	str	r3, [sp, #12]
    81f8:	e59f305c 	ldr	r3, [pc, #92]	; 825c <malloc_init+0x74>
    81fc:	e59d2004 	ldr	r2, [sp, #4]
    8200:	e5832000 	str	r2, [r3]
    8204:	e59f3050 	ldr	r3, [pc, #80]	; 825c <malloc_init+0x74>
    8208:	e5932000 	ldr	r2, [r3]
    820c:	e59f304c 	ldr	r3, [pc, #76]	; 8260 <malloc_init+0x78>
    8210:	e5832000 	str	r2, [r3]
    8214:	e59f3040 	ldr	r3, [pc, #64]	; 825c <malloc_init+0x74>
    8218:	e5932000 	ldr	r2, [r3]
    821c:	e59d300c 	ldr	r3, [sp, #12]
    8220:	e2833002 	add	r3, r3, #2
    8224:	e1a03103 	lsl	r3, r3, #2
    8228:	e0822003 	add	r2, r2, r3
    822c:	e59f3028 	ldr	r3, [pc, #40]	; 825c <malloc_init+0x74>
    8230:	e5832000 	str	r2, [r3]
    8234:	e59f3024 	ldr	r3, [pc, #36]	; 8260 <malloc_init+0x78>
    8238:	e5933000 	ldr	r3, [r3]
    823c:	e59d200c 	ldr	r2, [sp, #12]
    8240:	e5832000 	str	r2, [r3]
    8244:	e59f3014 	ldr	r3, [pc, #20]	; 8260 <malloc_init+0x78>
    8248:	e5933000 	ldr	r3, [r3]
    824c:	e3a02000 	mov	r2, #0
    8250:	e5832004 	str	r2, [r3, #4]
    8254:	e28dd010 	add	sp, sp, #16
    8258:	e12fff1e 	bx	lr
    825c:	00008fe8 	andeq	r8, r0, r8, ror #31
    8260:	00008fe4 	andeq	r8, r0, r4, ror #31

00008264 <malloc_free>:
    8264:	e52de004 	push	{lr}		; (str lr, [sp, #-4]!)
    8268:	e24dd01c 	sub	sp, sp, #28
    826c:	e58d0004 	str	r0, [sp, #4]
    8270:	e59d0004 	ldr	r0, [sp, #4]
    8274:	ebffffd4 	bl	81cc <malloc_get_entry>
    8278:	e58d0010 	str	r0, [sp, #16]
    827c:	e59f30a0 	ldr	r3, [pc, #160]	; 8324 <malloc_free+0xc0>
    8280:	e5933000 	ldr	r3, [r3]
    8284:	e5932004 	ldr	r2, [r3, #4]
    8288:	e58d2014 	str	r2, [sp, #20]
    828c:	e2822001 	add	r2, r2, #1
    8290:	e5832004 	str	r2, [r3, #4]
    8294:	e59d3014 	ldr	r3, [sp, #20]
    8298:	e1a030a3 	lsr	r3, r3, #1
    829c:	e58d300c 	str	r3, [sp, #12]
    82a0:	e59f307c 	ldr	r3, [pc, #124]	; 8324 <malloc_free+0xc0>
    82a4:	e5933000 	ldr	r3, [r3]
    82a8:	e59d2014 	ldr	r2, [sp, #20]
    82ac:	e2822002 	add	r2, r2, #2
    82b0:	e59d1010 	ldr	r1, [sp, #16]
    82b4:	e7831102 	str	r1, [r3, r2, lsl #2]
    82b8:	ea000012 	b	8308 <malloc_free+0xa4>
    82bc:	e59f3060 	ldr	r3, [pc, #96]	; 8324 <malloc_free+0xc0>
    82c0:	e5933000 	ldr	r3, [r3]
    82c4:	e59d2014 	ldr	r2, [sp, #20]
    82c8:	e2822002 	add	r2, r2, #2
    82cc:	e7933102 	ldr	r3, [r3, r2, lsl #2]
    82d0:	e5932000 	ldr	r2, [r3]
    82d4:	e59f3048 	ldr	r3, [pc, #72]	; 8324 <malloc_free+0xc0>
    82d8:	e5933000 	ldr	r3, [r3]
    82dc:	e59d100c 	ldr	r1, [sp, #12]
    82e0:	e2811002 	add	r1, r1, #2
    82e4:	e7933101 	ldr	r3, [r3, r1, lsl #2]
    82e8:	e5933000 	ldr	r3, [r3]
    82ec:	e1520003 	cmp	r2, r3
    82f0:	2a000008 	bcs	8318 <malloc_free+0xb4>
    82f4:	e59d000c 	ldr	r0, [sp, #12]
    82f8:	e59d1014 	ldr	r1, [sp, #20]
    82fc:	eb000009 	bl	8328 <malloc_free_list_swap>
    8300:	e59d300c 	ldr	r3, [sp, #12]
    8304:	e58d3014 	str	r3, [sp, #20]
    8308:	e59d3014 	ldr	r3, [sp, #20]
    830c:	e3530000 	cmp	r3, #0
    8310:	1affffe9 	bne	82bc <malloc_free+0x58>
    8314:	ea000000 	b	831c <malloc_free+0xb8>
    8318:	e1a00000 	nop			; (mov r0, r0)
    831c:	e28dd01c 	add	sp, sp, #28
    8320:	e8bd8000 	pop	{pc}
    8324:	00008fe4 	andeq	r8, r0, r4, ror #31

00008328 <malloc_free_list_swap>:
    8328:	e24dd010 	sub	sp, sp, #16
    832c:	e58d0004 	str	r0, [sp, #4]
    8330:	e58d1000 	str	r1, [sp]
    8334:	e59f3058 	ldr	r3, [pc, #88]	; 8394 <malloc_free_list_swap+0x6c>
    8338:	e5933000 	ldr	r3, [r3]
    833c:	e59d2004 	ldr	r2, [sp, #4]
    8340:	e2822002 	add	r2, r2, #2
    8344:	e7933102 	ldr	r3, [r3, r2, lsl #2]
    8348:	e58d300c 	str	r3, [sp, #12]
    834c:	e59f3040 	ldr	r3, [pc, #64]	; 8394 <malloc_free_list_swap+0x6c>
    8350:	e5933000 	ldr	r3, [r3]
    8354:	e59f2038 	ldr	r2, [pc, #56]	; 8394 <malloc_free_list_swap+0x6c>
    8358:	e5922000 	ldr	r2, [r2]
    835c:	e59d1000 	ldr	r1, [sp]
    8360:	e2811002 	add	r1, r1, #2
    8364:	e7921101 	ldr	r1, [r2, r1, lsl #2]
    8368:	e59d2004 	ldr	r2, [sp, #4]
    836c:	e2822002 	add	r2, r2, #2
    8370:	e7831102 	str	r1, [r3, r2, lsl #2]
    8374:	e59f3018 	ldr	r3, [pc, #24]	; 8394 <malloc_free_list_swap+0x6c>
    8378:	e5933000 	ldr	r3, [r3]
    837c:	e59d2000 	ldr	r2, [sp]
    8380:	e2822002 	add	r2, r2, #2
    8384:	e59d100c 	ldr	r1, [sp, #12]
    8388:	e7831102 	str	r1, [r3, r2, lsl #2]
    838c:	e28dd010 	add	sp, sp, #16
    8390:	e12fff1e 	bx	lr
    8394:	00008fe4 	andeq	r8, r0, r4, ror #31

00008398 <malloc_leq>:
    8398:	e24dd008 	sub	sp, sp, #8
    839c:	e58d0004 	str	r0, [sp, #4]
    83a0:	e58d1000 	str	r1, [sp]
    83a4:	e59f3044 	ldr	r3, [pc, #68]	; 83f0 <malloc_leq+0x58>
    83a8:	e5933000 	ldr	r3, [r3]
    83ac:	e59d2004 	ldr	r2, [sp, #4]
    83b0:	e2822002 	add	r2, r2, #2
    83b4:	e7933102 	ldr	r3, [r3, r2, lsl #2]
    83b8:	e5932000 	ldr	r2, [r3]
    83bc:	e59f302c 	ldr	r3, [pc, #44]	; 83f0 <malloc_leq+0x58>
    83c0:	e5933000 	ldr	r3, [r3]
    83c4:	e59d1000 	ldr	r1, [sp]
    83c8:	e2811002 	add	r1, r1, #2
    83cc:	e7933101 	ldr	r3, [r3, r1, lsl #2]
    83d0:	e5933000 	ldr	r3, [r3]
    83d4:	e1520003 	cmp	r2, r3
    83d8:	83a03000 	movhi	r3, #0
    83dc:	93a03001 	movls	r3, #1
    83e0:	e6ef3073 	uxtb	r3, r3
    83e4:	e1a00003 	mov	r0, r3
    83e8:	e28dd008 	add	sp, sp, #8
    83ec:	e12fff1e 	bx	lr
    83f0:	00008fe4 	andeq	r8, r0, r4, ror #31

000083f4 <malloc_le>:
    83f4:	e24dd008 	sub	sp, sp, #8
    83f8:	e58d0004 	str	r0, [sp, #4]
    83fc:	e58d1000 	str	r1, [sp]
    8400:	e59f3044 	ldr	r3, [pc, #68]	; 844c <malloc_le+0x58>
    8404:	e5933000 	ldr	r3, [r3]
    8408:	e59d2004 	ldr	r2, [sp, #4]
    840c:	e2822002 	add	r2, r2, #2
    8410:	e7933102 	ldr	r3, [r3, r2, lsl #2]
    8414:	e5932000 	ldr	r2, [r3]
    8418:	e59f302c 	ldr	r3, [pc, #44]	; 844c <malloc_le+0x58>
    841c:	e5933000 	ldr	r3, [r3]
    8420:	e59d1000 	ldr	r1, [sp]
    8424:	e2811002 	add	r1, r1, #2
    8428:	e7933101 	ldr	r3, [r3, r1, lsl #2]
    842c:	e5933000 	ldr	r3, [r3]
    8430:	e1520003 	cmp	r2, r3
    8434:	23a03000 	movcs	r3, #0
    8438:	33a03001 	movcc	r3, #1
    843c:	e6ef3073 	uxtb	r3, r3
    8440:	e1a00003 	mov	r0, r3
    8444:	e28dd008 	add	sp, sp, #8
    8448:	e12fff1e 	bx	lr
    844c:	00008fe4 	andeq	r8, r0, r4, ror #31

00008450 <malloc_free_list_remove>:
    8450:	e52de004 	push	{lr}		; (str lr, [sp, #-4]!)
    8454:	e24dd01c 	sub	sp, sp, #28
    8458:	e58d0004 	str	r0, [sp, #4]
    845c:	e59f30d4 	ldr	r3, [pc, #212]	; 8538 <malloc_free_list_remove+0xe8>
    8460:	e5933000 	ldr	r3, [r3]
    8464:	e5933004 	ldr	r3, [r3, #4]
    8468:	e3530000 	cmp	r3, #0
    846c:	0a00002e 	beq	852c <malloc_free_list_remove+0xdc>
    8470:	e59f30c0 	ldr	r3, [pc, #192]	; 8538 <malloc_free_list_remove+0xe8>
    8474:	e5933000 	ldr	r3, [r3]
    8478:	e5932004 	ldr	r2, [r3, #4]
    847c:	e2422001 	sub	r2, r2, #1
    8480:	e5832004 	str	r2, [r3, #4]
    8484:	e5933004 	ldr	r3, [r3, #4]
    8488:	e58d300c 	str	r3, [sp, #12]
    848c:	e59d3004 	ldr	r3, [sp, #4]
    8490:	e1a03083 	lsl	r3, r3, #1
    8494:	e2833001 	add	r3, r3, #1
    8498:	e58d3014 	str	r3, [sp, #20]
    849c:	e59d3014 	ldr	r3, [sp, #20]
    84a0:	e2833001 	add	r3, r3, #1
    84a4:	e58d3010 	str	r3, [sp, #16]
    84a8:	e59d0004 	ldr	r0, [sp, #4]
    84ac:	e59d100c 	ldr	r1, [sp, #12]
    84b0:	ebffff9c 	bl	8328 <malloc_free_list_swap>
    84b4:	ea000017 	b	8518 <malloc_free_list_remove+0xc8>
    84b8:	e59d0014 	ldr	r0, [sp, #20]
    84bc:	e59d1010 	ldr	r1, [sp, #16]
    84c0:	ebffffcb 	bl	83f4 <malloc_le>
    84c4:	e1a03000 	mov	r3, r0
    84c8:	e3530000 	cmp	r3, #0
    84cc:	0a000005 	beq	84e8 <malloc_free_list_remove+0x98>
    84d0:	e59d0014 	ldr	r0, [sp, #20]
    84d4:	e59d1004 	ldr	r1, [sp, #4]
    84d8:	ebffff92 	bl	8328 <malloc_free_list_swap>
    84dc:	e59d3014 	ldr	r3, [sp, #20]
    84e0:	e58d3004 	str	r3, [sp, #4]
    84e4:	ea000004 	b	84fc <malloc_free_list_remove+0xac>
    84e8:	e59d0010 	ldr	r0, [sp, #16]
    84ec:	e59d1004 	ldr	r1, [sp, #4]
    84f0:	ebffff8c 	bl	8328 <malloc_free_list_swap>
    84f4:	e59d3010 	ldr	r3, [sp, #16]
    84f8:	e58d3004 	str	r3, [sp, #4]
    84fc:	e59d3004 	ldr	r3, [sp, #4]
    8500:	e1a03083 	lsl	r3, r3, #1
    8504:	e2833001 	add	r3, r3, #1
    8508:	e58d3014 	str	r3, [sp, #20]
    850c:	e59d3014 	ldr	r3, [sp, #20]
    8510:	e2833001 	add	r3, r3, #1
    8514:	e58d3010 	str	r3, [sp, #16]
    8518:	e59d2014 	ldr	r2, [sp, #20]
    851c:	e59d300c 	ldr	r3, [sp, #12]
    8520:	e1520003 	cmp	r2, r3
    8524:	3affffe3 	bcc	84b8 <malloc_free_list_remove+0x68>
    8528:	ea000000 	b	8530 <malloc_free_list_remove+0xe0>
    852c:	e1a00000 	nop			; (mov r0, r0)
    8530:	e28dd01c 	add	sp, sp, #28
    8534:	e8bd8000 	pop	{pc}
    8538:	00008fe4 	andeq	r8, r0, r4, ror #31

0000853c <malloc_alloc_new_entry>:
    853c:	e24dd010 	sub	sp, sp, #16
    8540:	e58d0004 	str	r0, [sp, #4]
    8544:	e59f3040 	ldr	r3, [pc, #64]	; 858c <malloc_alloc_new_entry+0x50>
    8548:	e5933000 	ldr	r3, [r3]
    854c:	e58d300c 	str	r3, [sp, #12]
    8550:	e59f3034 	ldr	r3, [pc, #52]	; 858c <malloc_alloc_new_entry+0x50>
    8554:	e5932000 	ldr	r2, [r3]
    8558:	e59d3004 	ldr	r3, [sp, #4]
    855c:	e2833004 	add	r3, r3, #4
    8560:	e0822003 	add	r2, r2, r3
    8564:	e59f3020 	ldr	r3, [pc, #32]	; 858c <malloc_alloc_new_entry+0x50>
    8568:	e5832000 	str	r2, [r3]
    856c:	e59d300c 	ldr	r3, [sp, #12]
    8570:	e59d2004 	ldr	r2, [sp, #4]
    8574:	e5832000 	str	r2, [r3]
    8578:	e59d300c 	ldr	r3, [sp, #12]
    857c:	e2833004 	add	r3, r3, #4
    8580:	e1a00003 	mov	r0, r3
    8584:	e28dd010 	add	sp, sp, #16
    8588:	e12fff1e 	bx	lr
    858c:	00008fe8 	andeq	r8, r0, r8, ror #31

00008590 <malloc_alloc>:
    8590:	e52de004 	push	{lr}		; (str lr, [sp, #-4]!)
    8594:	e24dd01c 	sub	sp, sp, #28
    8598:	e58d0004 	str	r0, [sp, #4]
    859c:	e59d3004 	ldr	r3, [sp, #4]
    85a0:	e2033003 	and	r3, r3, #3
    85a4:	e3530000 	cmp	r3, #0
    85a8:	0a000003 	beq	85bc <malloc_alloc+0x2c>
    85ac:	e59d3004 	ldr	r3, [sp, #4]
    85b0:	e3c33003 	bic	r3, r3, #3
    85b4:	e2833004 	add	r3, r3, #4
    85b8:	e58d3004 	str	r3, [sp, #4]
    85bc:	e3a03000 	mov	r3, #0
    85c0:	e58d3014 	str	r3, [sp, #20]
    85c4:	e59f30b4 	ldr	r3, [pc, #180]	; 8680 <malloc_alloc+0xf0>
    85c8:	e5933000 	ldr	r3, [r3]
    85cc:	e5933004 	ldr	r3, [r3, #4]
    85d0:	e58d300c 	str	r3, [sp, #12]
    85d4:	e3a03000 	mov	r3, #0
    85d8:	e58d3010 	str	r3, [sp, #16]
    85dc:	ea000003 	b	85f0 <malloc_alloc+0x60>
    85e0:	e59d3014 	ldr	r3, [sp, #20]
    85e4:	e1a03083 	lsl	r3, r3, #1
    85e8:	e2833001 	add	r3, r3, #1
    85ec:	e58d3014 	str	r3, [sp, #20]
    85f0:	e59d2014 	ldr	r2, [sp, #20]
    85f4:	e59d300c 	ldr	r3, [sp, #12]
    85f8:	e1520003 	cmp	r2, r3
    85fc:	2a000008 	bcs	8624 <malloc_alloc+0x94>
    8600:	e59f3078 	ldr	r3, [pc, #120]	; 8680 <malloc_alloc+0xf0>
    8604:	e5933000 	ldr	r3, [r3]
    8608:	e59d2014 	ldr	r2, [sp, #20]
    860c:	e2822002 	add	r2, r2, #2
    8610:	e7933102 	ldr	r3, [r3, r2, lsl #2]
    8614:	e5932000 	ldr	r2, [r3]
    8618:	e59d3004 	ldr	r3, [sp, #4]
    861c:	e1520003 	cmp	r2, r3
    8620:	3affffee 	bcc	85e0 <malloc_alloc+0x50>
    8624:	e59d2014 	ldr	r2, [sp, #20]
    8628:	e59d300c 	ldr	r3, [sp, #12]
    862c:	e1520003 	cmp	r2, r3
    8630:	2a00000b 	bcs	8664 <malloc_alloc+0xd4>
    8634:	e59d0014 	ldr	r0, [sp, #20]
    8638:	ebffff84 	bl	8450 <malloc_free_list_remove>
    863c:	e59f303c 	ldr	r3, [pc, #60]	; 8680 <malloc_alloc+0xf0>
    8640:	e5933000 	ldr	r3, [r3]
    8644:	e59f2034 	ldr	r2, [pc, #52]	; 8680 <malloc_alloc+0xf0>
    8648:	e5922000 	ldr	r2, [r2]
    864c:	e5922004 	ldr	r2, [r2, #4]
    8650:	e2822002 	add	r2, r2, #2
    8654:	e7933102 	ldr	r3, [r3, r2, lsl #2]
    8658:	e2833004 	add	r3, r3, #4
    865c:	e58d3010 	str	r3, [sp, #16]
    8660:	ea000002 	b	8670 <malloc_alloc+0xe0>
    8664:	e59d0004 	ldr	r0, [sp, #4]
    8668:	ebffffb3 	bl	853c <malloc_alloc_new_entry>
    866c:	e58d0010 	str	r0, [sp, #16]
    8670:	e59d3010 	ldr	r3, [sp, #16]
    8674:	e1a00003 	mov	r0, r3
    8678:	e28dd01c 	add	sp, sp, #28
    867c:	e8bd8000 	pop	{pc}
    8680:	00008fe4 	andeq	r8, r0, r4, ror #31

00008684 <malloc_freelist_length>:
    8684:	e59f300c 	ldr	r3, [pc, #12]	; 8698 <malloc_freelist_length+0x14>
    8688:	e5933000 	ldr	r3, [r3]
    868c:	e5933004 	ldr	r3, [r3, #4]
    8690:	e1a00003 	mov	r0, r3
    8694:	e12fff1e 	bx	lr
    8698:	00008fe4 	andeq	r8, r0, r4, ror #31

0000869c <memcpy>:
    869c:	e24dd030 	sub	sp, sp, #48	; 0x30
    86a0:	e58d000c 	str	r0, [sp, #12]
    86a4:	e58d1008 	str	r1, [sp, #8]
    86a8:	e58d2004 	str	r2, [sp, #4]
    86ac:	e59d3004 	ldr	r3, [sp, #4]
    86b0:	e1a03123 	lsr	r3, r3, #2
    86b4:	e58d3028 	str	r3, [sp, #40]	; 0x28
    86b8:	e59d3004 	ldr	r3, [sp, #4]
    86bc:	e2033003 	and	r3, r3, #3
    86c0:	e58d3024 	str	r3, [sp, #36]	; 0x24
    86c4:	e59d300c 	ldr	r3, [sp, #12]
    86c8:	e58d3020 	str	r3, [sp, #32]
    86cc:	e59d3008 	ldr	r3, [sp, #8]
    86d0:	e58d301c 	str	r3, [sp, #28]
    86d4:	e59d300c 	ldr	r3, [sp, #12]
    86d8:	e58d3018 	str	r3, [sp, #24]
    86dc:	e59d300c 	ldr	r3, [sp, #12]
    86e0:	e58d3014 	str	r3, [sp, #20]
    86e4:	e3a03000 	mov	r3, #0
    86e8:	e58d302c 	str	r3, [sp, #44]	; 0x2c
    86ec:	ea00000c 	b	8724 <memcpy+0x88>
    86f0:	e59d302c 	ldr	r3, [sp, #44]	; 0x2c
    86f4:	e1a03103 	lsl	r3, r3, #2
    86f8:	e59d201c 	ldr	r2, [sp, #28]
    86fc:	e0823003 	add	r3, r2, r3
    8700:	e59d202c 	ldr	r2, [sp, #44]	; 0x2c
    8704:	e1a02102 	lsl	r2, r2, #2
    8708:	e59d1020 	ldr	r1, [sp, #32]
    870c:	e0812002 	add	r2, r1, r2
    8710:	e5922000 	ldr	r2, [r2]
    8714:	e5832000 	str	r2, [r3]
    8718:	e59d302c 	ldr	r3, [sp, #44]	; 0x2c
    871c:	e2833001 	add	r3, r3, #1
    8720:	e58d302c 	str	r3, [sp, #44]	; 0x2c
    8724:	e59d202c 	ldr	r2, [sp, #44]	; 0x2c
    8728:	e59d3028 	ldr	r3, [sp, #40]	; 0x28
    872c:	e1520003 	cmp	r2, r3
    8730:	3affffee 	bcc	86f0 <memcpy+0x54>
    8734:	e3a03001 	mov	r3, #1
    8738:	e58d302c 	str	r3, [sp, #44]	; 0x2c
    873c:	ea00000e 	b	877c <memcpy+0xe0>
    8740:	e59d2004 	ldr	r2, [sp, #4]
    8744:	e59d302c 	ldr	r3, [sp, #44]	; 0x2c
    8748:	e0633002 	rsb	r3, r3, r2
    874c:	e59d2014 	ldr	r2, [sp, #20]
    8750:	e0823003 	add	r3, r2, r3
    8754:	e59d1004 	ldr	r1, [sp, #4]
    8758:	e59d202c 	ldr	r2, [sp, #44]	; 0x2c
    875c:	e0622001 	rsb	r2, r2, r1
    8760:	e59d1018 	ldr	r1, [sp, #24]
    8764:	e0812002 	add	r2, r1, r2
    8768:	e5d22000 	ldrb	r2, [r2]
    876c:	e5c32000 	strb	r2, [r3]
    8770:	e59d302c 	ldr	r3, [sp, #44]	; 0x2c
    8774:	e2833001 	add	r3, r3, #1
    8778:	e58d302c 	str	r3, [sp, #44]	; 0x2c
    877c:	e59d202c 	ldr	r2, [sp, #44]	; 0x2c
    8780:	e59d3024 	ldr	r3, [sp, #36]	; 0x24
    8784:	e1520003 	cmp	r2, r3
    8788:	9affffec 	bls	8740 <memcpy+0xa4>
    878c:	e28dd030 	add	sp, sp, #48	; 0x30
    8790:	e12fff1e 	bx	lr

00008794 <set_tick_and_enable_timer>:
    8794:	e52de004 	push	{lr}		; (str lr, [sp, #-4]!)
    8798:	e24dd00c 	sub	sp, sp, #12
    879c:	e59f0030 	ldr	r0, [pc, #48]	; 87d4 <set_tick_and_enable_timer+0x40>
    87a0:	ebfffe43 	bl	80b4 <GET32>
    87a4:	e58d0004 	str	r0, [sp, #4]
    87a8:	e59d3004 	ldr	r3, [sp, #4]
    87ac:	e2833702 	add	r3, r3, #524288	; 0x80000
    87b0:	e58d3004 	str	r3, [sp, #4]
    87b4:	e59f001c 	ldr	r0, [pc, #28]	; 87d8 <set_tick_and_enable_timer+0x44>
    87b8:	e59d1004 	ldr	r1, [sp, #4]
    87bc:	ebfffe36 	bl	809c <PUT32>
    87c0:	e59f0014 	ldr	r0, [pc, #20]	; 87dc <set_tick_and_enable_timer+0x48>
    87c4:	e3a01002 	mov	r1, #2
    87c8:	ebfffe33 	bl	809c <PUT32>
    87cc:	e28dd00c 	add	sp, sp, #12
    87d0:	e8bd8000 	pop	{pc}
    87d4:	20003004 	andcs	r3, r0, r4
    87d8:	20003010 	andcs	r3, r0, r0, lsl r0
    87dc:	20003000 	andcs	r3, r0, r0

000087e0 <led_off>:
    87e0:	e92d4008 	push	{r3, lr}
    87e4:	e59f0008 	ldr	r0, [pc, #8]	; 87f4 <led_off+0x14>
    87e8:	e3a01801 	mov	r1, #65536	; 0x10000
    87ec:	ebfffe2a 	bl	809c <PUT32>
    87f0:	e8bd8008 	pop	{r3, pc}
    87f4:	2020001c 	eorcs	r0, r0, ip, lsl r0

000087f8 <led_on>:
    87f8:	e92d4008 	push	{r3, lr}
    87fc:	e59f0008 	ldr	r0, [pc, #8]	; 880c <led_on+0x14>
    8800:	e3a01801 	mov	r1, #65536	; 0x10000
    8804:	ebfffe24 	bl	809c <PUT32>
    8808:	e8bd8008 	pop	{r3, pc}
    880c:	20200028 	eorcs	r0, r0, r8, lsr #32

00008810 <init_hw>:
    8810:	e52de004 	push	{lr}		; (str lr, [sp, #-4]!)
    8814:	e24dd00c 	sub	sp, sp, #12
    8818:	e59f008c 	ldr	r0, [pc, #140]	; 88ac <init_hw+0x9c>
    881c:	ebfffe24 	bl	80b4 <GET32>
    8820:	e58d0004 	str	r0, [sp, #4]
    8824:	e59d3004 	ldr	r3, [sp, #4]
    8828:	e3c33707 	bic	r3, r3, #1835008	; 0x1c0000
    882c:	e58d3004 	str	r3, [sp, #4]
    8830:	e59d3004 	ldr	r3, [sp, #4]
    8834:	e3833701 	orr	r3, r3, #262144	; 0x40000
    8838:	e58d3004 	str	r3, [sp, #4]
    883c:	e59f0068 	ldr	r0, [pc, #104]	; 88ac <init_hw+0x9c>
    8840:	e59d1004 	ldr	r1, [sp, #4]
    8844:	ebfffe14 	bl	809c <PUT32>
    8848:	e59f0060 	ldr	r0, [pc, #96]	; 88b0 <init_hw+0xa0>
    884c:	e3a01801 	mov	r1, #65536	; 0x10000
    8850:	ebfffe11 	bl	809c <PUT32>
    8854:	e59f0058 	ldr	r0, [pc, #88]	; 88b4 <init_hw+0xa4>
    8858:	ebfffe15 	bl	80b4 <GET32>
    885c:	e58d0000 	str	r0, [sp]
    8860:	e59d3000 	ldr	r3, [sp]
    8864:	e2833702 	add	r3, r3, #524288	; 0x80000
    8868:	e58d3000 	str	r3, [sp]
    886c:	e59f0044 	ldr	r0, [pc, #68]	; 88b8 <init_hw+0xa8>
    8870:	e59d1000 	ldr	r1, [sp]
    8874:	ebfffe08 	bl	809c <PUT32>
    8878:	e59f003c 	ldr	r0, [pc, #60]	; 88bc <init_hw+0xac>
    887c:	e3a01002 	mov	r1, #2
    8880:	ebfffe05 	bl	809c <PUT32>
    8884:	e59f0034 	ldr	r0, [pc, #52]	; 88c0 <init_hw+0xb0>
    8888:	e3a01002 	mov	r1, #2
    888c:	ebfffe02 	bl	809c <PUT32>
    8890:	e92d0001 	push	{r0}
    8894:	e10f0000 	mrs	r0, CPSR
    8898:	e3800080 	orr	r0, r0, #128	; 0x80
    889c:	e121f000 	msr	CPSR_c, r0
    88a0:	e8bd0001 	pop	{r0}
    88a4:	e28dd00c 	add	sp, sp, #12
    88a8:	e8bd8000 	pop	{pc}
    88ac:	20200004 	eorcs	r0, r0, r4
    88b0:	2020001c 	eorcs	r0, r0, ip, lsl r0
    88b4:	20003004 	andcs	r3, r0, r4
    88b8:	20003010 	andcs	r3, r0, r0, lsl r0
    88bc:	20003000 	andcs	r3, r0, r0
    88c0:	2000b210 	andcs	fp, r0, r0, lsl r2

000088c4 <start_current_process>:
    88c4:	e92d4008 	push	{r3, lr}
    88c8:	e59f3030 	ldr	r3, [pc, #48]	; 8900 <start_current_process+0x3c>
    88cc:	e5933000 	ldr	r3, [r3]
    88d0:	e3a02000 	mov	r2, #0
    88d4:	e5c32014 	strb	r2, [r3, #20]
    88d8:	e59f3020 	ldr	r3, [pc, #32]	; 8900 <start_current_process+0x3c>
    88dc:	e5933000 	ldr	r3, [r3]
    88e0:	e5933004 	ldr	r3, [r3, #4]
    88e4:	e12fff33 	blx	r3
    88e8:	e59f3010 	ldr	r3, [pc, #16]	; 8900 <start_current_process+0x3c>
    88ec:	e5933000 	ldr	r3, [r3]
    88f0:	e3a02002 	mov	r2, #2
    88f4:	e5c32014 	strb	r2, [r3, #20]
    88f8:	eb0000b5 	bl	8bd4 <yield>
    88fc:	e8bd8008 	pop	{r3, pc}
    8900:	00008fe0 	andeq	r8, r0, r0, ror #31

00008904 <init_process>:
    8904:	e52de004 	push	{lr}		; (str lr, [sp, #-4]!)
    8908:	e24dd014 	sub	sp, sp, #20
    890c:	e58d000c 	str	r0, [sp, #12]
    8910:	e58d1008 	str	r1, [sp, #8]
    8914:	e58d2004 	str	r2, [sp, #4]
    8918:	e59d300c 	ldr	r3, [sp, #12]
    891c:	e59d2004 	ldr	r2, [sp, #4]
    8920:	e5832004 	str	r2, [r3, #4]
    8924:	e59d2008 	ldr	r2, [sp, #8]
    8928:	e59d300c 	ldr	r3, [sp, #12]
    892c:	e583200c 	str	r2, [r3, #12]
    8930:	e59d3008 	ldr	r3, [sp, #8]
    8934:	e1a00003 	mov	r0, r3
    8938:	ebffff14 	bl	8590 <malloc_alloc>
    893c:	e1a02000 	mov	r2, r0
    8940:	e59d300c 	ldr	r3, [sp, #12]
    8944:	e5832010 	str	r2, [r3, #16]
    8948:	e59d300c 	ldr	r3, [sp, #12]
    894c:	e5933010 	ldr	r3, [r3, #16]
    8950:	e3530000 	cmp	r3, #0
    8954:	1a000001 	bne	8960 <init_process+0x5c>
    8958:	e3a03000 	mov	r3, #0
    895c:	ea000017 	b	89c0 <init_process+0xbc>
    8960:	e59d300c 	ldr	r3, [sp, #12]
    8964:	e3a02001 	mov	r2, #1
    8968:	e5c32014 	strb	r2, [r3, #20]
    896c:	e59d300c 	ldr	r3, [sp, #12]
    8970:	e5932010 	ldr	r2, [r3, #16]
    8974:	e59d3008 	ldr	r3, [sp, #8]
    8978:	e2433004 	sub	r3, r3, #4
    897c:	e0822003 	add	r2, r2, r3
    8980:	e59d300c 	ldr	r3, [sp, #12]
    8984:	e5832000 	str	r2, [r3]
    8988:	e59d300c 	ldr	r3, [sp, #12]
    898c:	e5933000 	ldr	r3, [r3]
    8990:	e3a02053 	mov	r2, #83	; 0x53
    8994:	e5832000 	str	r2, [r3]
    8998:	e59d300c 	ldr	r3, [sp, #12]
    899c:	e5933000 	ldr	r3, [r3]
    89a0:	e2432004 	sub	r2, r3, #4
    89a4:	e59d300c 	ldr	r3, [sp, #12]
    89a8:	e5832000 	str	r2, [r3]
    89ac:	e59d300c 	ldr	r3, [sp, #12]
    89b0:	e5933000 	ldr	r3, [r3]
    89b4:	e59f2010 	ldr	r2, [pc, #16]	; 89cc <init_process+0xc8>
    89b8:	e5832000 	str	r2, [r3]
    89bc:	e3a03001 	mov	r3, #1
    89c0:	e1a00003 	mov	r0, r3
    89c4:	e28dd014 	add	sp, sp, #20
    89c8:	e8bd8000 	pop	{pc}
    89cc:	000088c4 	andeq	r8, r0, r4, asr #17

000089d0 <create_process>:
    89d0:	e52de004 	push	{lr}		; (str lr, [sp, #-4]!)
    89d4:	e24dd014 	sub	sp, sp, #20
    89d8:	e58d0004 	str	r0, [sp, #4]
    89dc:	e58d1000 	str	r1, [sp]
    89e0:	e3a0001c 	mov	r0, #28
    89e4:	ebfffee9 	bl	8590 <malloc_alloc>
    89e8:	e58d000c 	str	r0, [sp, #12]
    89ec:	e59d300c 	ldr	r3, [sp, #12]
    89f0:	e3530000 	cmp	r3, #0
    89f4:	1a000001 	bne	8a00 <create_process+0x30>
    89f8:	e3a03000 	mov	r3, #0
    89fc:	ea000016 	b	8a5c <create_process+0x8c>
    8a00:	e59f3060 	ldr	r3, [pc, #96]	; 8a68 <create_process+0x98>
    8a04:	e5933000 	ldr	r3, [r3]
    8a08:	e3530000 	cmp	r3, #0
    8a0c:	1a000003 	bne	8a20 <create_process+0x50>
    8a10:	e59f3050 	ldr	r3, [pc, #80]	; 8a68 <create_process+0x98>
    8a14:	e59d200c 	ldr	r2, [sp, #12]
    8a18:	e5832000 	str	r2, [r3]
    8a1c:	ea000004 	b	8a34 <create_process+0x64>
    8a20:	e59f3040 	ldr	r3, [pc, #64]	; 8a68 <create_process+0x98>
    8a24:	e5933000 	ldr	r3, [r3]
    8a28:	e5932018 	ldr	r2, [r3, #24]
    8a2c:	e59d300c 	ldr	r3, [sp, #12]
    8a30:	e5832018 	str	r2, [r3, #24]
    8a34:	e59f302c 	ldr	r3, [pc, #44]	; 8a68 <create_process+0x98>
    8a38:	e5933000 	ldr	r3, [r3]
    8a3c:	e59d200c 	ldr	r2, [sp, #12]
    8a40:	e5832018 	str	r2, [r3, #24]
    8a44:	e59d3000 	ldr	r3, [sp]
    8a48:	e59d000c 	ldr	r0, [sp, #12]
    8a4c:	e1a01003 	mov	r1, r3
    8a50:	e59d2004 	ldr	r2, [sp, #4]
    8a54:	ebffffaa 	bl	8904 <init_process>
    8a58:	e1a03000 	mov	r3, r0
    8a5c:	e1a00003 	mov	r0, r3
    8a60:	e28dd014 	add	sp, sp, #20
    8a64:	e8bd8000 	pop	{pc}
    8a68:	00008fdc 	ldrdeq	r8, [r0], -ip

00008a6c <schedule>:
    8a6c:	e52de004 	push	{lr}		; (str lr, [sp, #-4]!)
    8a70:	e24dd00c 	sub	sp, sp, #12
    8a74:	e59f314c 	ldr	r3, [pc, #332]	; 8bc8 <schedule+0x15c>
    8a78:	e5933000 	ldr	r3, [r3]
    8a7c:	e58d3000 	str	r3, [sp]
    8a80:	e59f3140 	ldr	r3, [pc, #320]	; 8bc8 <schedule+0x15c>
    8a84:	e5933000 	ldr	r3, [r3]
    8a88:	e58d3004 	str	r3, [sp, #4]
    8a8c:	ea000021 	b	8b18 <schedule+0xac>
    8a90:	e59d3004 	ldr	r3, [sp, #4]
    8a94:	e5932018 	ldr	r2, [r3, #24]
    8a98:	e59d3004 	ldr	r3, [sp, #4]
    8a9c:	e1520003 	cmp	r2, r3
    8aa0:	1a000002 	bne	8ab0 <schedule+0x44>
    8aa4:	e3a03000 	mov	r3, #0
    8aa8:	e58d3004 	str	r3, [sp, #4]
    8aac:	ea00001e 	b	8b2c <schedule+0xc0>
    8ab0:	e59d3004 	ldr	r3, [sp, #4]
    8ab4:	e5932018 	ldr	r2, [r3, #24]
    8ab8:	e59f310c 	ldr	r3, [pc, #268]	; 8bcc <schedule+0x160>
    8abc:	e5933000 	ldr	r3, [r3]
    8ac0:	e1520003 	cmp	r2, r3
    8ac4:	1a000002 	bne	8ad4 <schedule+0x68>
    8ac8:	e59f30fc 	ldr	r3, [pc, #252]	; 8bcc <schedule+0x160>
    8acc:	e59d2004 	ldr	r2, [sp, #4]
    8ad0:	e5832000 	str	r2, [r3]
    8ad4:	e59d3004 	ldr	r3, [sp, #4]
    8ad8:	e5933018 	ldr	r3, [r3, #24]
    8adc:	e5932018 	ldr	r2, [r3, #24]
    8ae0:	e59d3004 	ldr	r3, [sp, #4]
    8ae4:	e5832018 	str	r2, [r3, #24]
    8ae8:	e59d3004 	ldr	r3, [sp, #4]
    8aec:	e5933018 	ldr	r3, [r3, #24]
    8af0:	e5933010 	ldr	r3, [r3, #16]
    8af4:	e1a00003 	mov	r0, r3
    8af8:	ebfffdd9 	bl	8264 <malloc_free>
    8afc:	e59d3004 	ldr	r3, [sp, #4]
    8b00:	e5933018 	ldr	r3, [r3, #24]
    8b04:	e1a00003 	mov	r0, r3
    8b08:	ebfffdd5 	bl	8264 <malloc_free>
    8b0c:	e59d3004 	ldr	r3, [sp, #4]
    8b10:	e5933018 	ldr	r3, [r3, #24]
    8b14:	e58d3004 	str	r3, [sp, #4]
    8b18:	e59d3004 	ldr	r3, [sp, #4]
    8b1c:	e5933018 	ldr	r3, [r3, #24]
    8b20:	e5d33014 	ldrb	r3, [r3, #20]
    8b24:	e3530002 	cmp	r3, #2
    8b28:	0affffd8 	beq	8a90 <schedule+0x24>
    8b2c:	e59d3004 	ldr	r3, [sp, #4]
    8b30:	e3530000 	cmp	r3, #0
    8b34:	0a000014 	beq	8b8c <schedule+0x120>
    8b38:	e59d3004 	ldr	r3, [sp, #4]
    8b3c:	e5933018 	ldr	r3, [r3, #24]
    8b40:	e58d3004 	str	r3, [sp, #4]
    8b44:	ea000002 	b	8b54 <schedule+0xe8>
    8b48:	e59d3004 	ldr	r3, [sp, #4]
    8b4c:	e5933018 	ldr	r3, [r3, #24]
    8b50:	e58d3004 	str	r3, [sp, #4]
    8b54:	e59d3004 	ldr	r3, [sp, #4]
    8b58:	e5d33014 	ldrb	r3, [r3, #20]
    8b5c:	e3530003 	cmp	r3, #3
    8b60:	1a000003 	bne	8b74 <schedule+0x108>
    8b64:	e59d2004 	ldr	r2, [sp, #4]
    8b68:	e59d3000 	ldr	r3, [sp]
    8b6c:	e1520003 	cmp	r2, r3
    8b70:	1afffff4 	bne	8b48 <schedule+0xdc>
    8b74:	e59d3004 	ldr	r3, [sp, #4]
    8b78:	e5d33014 	ldrb	r3, [r3, #20]
    8b7c:	e3530003 	cmp	r3, #3
    8b80:	1a000001 	bne	8b8c <schedule+0x120>
    8b84:	e3a03000 	mov	r3, #0
    8b88:	e58d3004 	str	r3, [sp, #4]
    8b8c:	e59d3004 	ldr	r3, [sp, #4]
    8b90:	e3530000 	cmp	r3, #0
    8b94:	1a000006 	bne	8bb4 <schedule+0x148>
    8b98:	e59f302c 	ldr	r3, [pc, #44]	; 8bcc <schedule+0x160>
    8b9c:	e3a02000 	mov	r2, #0
    8ba0:	e5832000 	str	r2, [r3]
    8ba4:	e59f301c 	ldr	r3, [pc, #28]	; 8bc8 <schedule+0x15c>
    8ba8:	e59f2020 	ldr	r2, [pc, #32]	; 8bd0 <schedule+0x164>
    8bac:	e5832000 	str	r2, [r3]
    8bb0:	ea000002 	b	8bc0 <schedule+0x154>
    8bb4:	e59f300c 	ldr	r3, [pc, #12]	; 8bc8 <schedule+0x15c>
    8bb8:	e59d2004 	ldr	r2, [sp, #4]
    8bbc:	e5832000 	str	r2, [r3]
    8bc0:	e28dd00c 	add	sp, sp, #12
    8bc4:	e8bd8000 	pop	{pc}
    8bc8:	00008fe0 	andeq	r8, r0, r0, ror #31
    8bcc:	00008fdc 	ldrdeq	r8, [r0], -ip
    8bd0:	00008fec 	andeq	r8, r0, ip, ror #31

00008bd4 <yield>:
    8bd4:	e92d4008 	push	{r3, lr}
    8bd8:	eb000012 	bl	8c28 <ctx_switch>
    8bdc:	e8bd8008 	pop	{r3, pc}

00008be0 <start_sched>:
    8be0:	e92d4008 	push	{r3, lr}
    8be4:	e59f3030 	ldr	r3, [pc, #48]	; 8c1c <start_sched+0x3c>
    8be8:	e59f2030 	ldr	r2, [pc, #48]	; 8c20 <start_sched+0x40>
    8bec:	e5832000 	str	r2, [r3]
    8bf0:	e59f302c 	ldr	r3, [pc, #44]	; 8c24 <start_sched+0x44>
    8bf4:	e5932000 	ldr	r2, [r3]
    8bf8:	e59f3020 	ldr	r3, [pc, #32]	; 8c20 <start_sched+0x40>
    8bfc:	e5832018 	str	r2, [r3, #24]
    8c00:	e92d0001 	push	{r0}
    8c04:	e10f0000 	mrs	r0, CPSR
    8c08:	e3c00080 	bic	r0, r0, #128	; 0x80
    8c0c:	e121f000 	msr	CPSR_c, r0
    8c10:	e8bd0001 	pop	{r0}
    8c14:	ebffffee 	bl	8bd4 <yield>
    8c18:	eafffffd 	b	8c14 <start_sched+0x34>
    8c1c:	00008fe0 	andeq	r8, r0, r0, ror #31
    8c20:	00008fec 	andeq	r8, r0, ip, ror #31
    8c24:	00008fdc 	ldrdeq	r8, [r0], -ip

00008c28 <ctx_switch>:
    8c28:	e24ee004 	sub	lr, lr, #4
    8c2c:	f96d0513 	srsdb	sp!, #19
    8c30:	f1020013 	cps	#19
    8c34:	e92d1fff 	push	{r0, r1, r2, r3, r4, r5, r6, r7, r8, r9, sl, fp, ip}
    8c38:	e92d0001 	push	{r0}
    8c3c:	e10f0000 	mrs	r0, CPSR
    8c40:	e3800080 	orr	r0, r0, #128	; 0x80
    8c44:	e121f000 	msr	CPSR_c, r0
    8c48:	e8bd0001 	pop	{r0}
    8c4c:	e59f3044 	ldr	r3, [pc, #68]	; 8c98 <ctx_switch+0x70>
    8c50:	e5933000 	ldr	r3, [r3]
    8c54:	e1a0200d 	mov	r2, sp
    8c58:	e5832000 	str	r2, [r3]
    8c5c:	ebffff82 	bl	8a6c <schedule>
    8c60:	e59f3030 	ldr	r3, [pc, #48]	; 8c98 <ctx_switch+0x70>
    8c64:	e5933000 	ldr	r3, [r3]
    8c68:	e5933000 	ldr	r3, [r3]
    8c6c:	e1a0d003 	mov	sp, r3
    8c70:	ebfffec7 	bl	8794 <set_tick_and_enable_timer>
    8c74:	e59f301c 	ldr	r3, [pc, #28]	; 8c98 <ctx_switch+0x70>
    8c78:	e5933000 	ldr	r3, [r3]
    8c7c:	e5d33014 	ldrb	r3, [r3, #20]
    8c80:	e3530001 	cmp	r3, #1
    8c84:	1a000001 	bne	8c90 <ctx_switch+0x68>
    8c88:	e3a0e000 	mov	lr, #0
    8c8c:	ea000000 	b	8c94 <ctx_switch+0x6c>
    8c90:	e8bd1fff 	pop	{r0, r1, r2, r3, r4, r5, r6, r7, r8, r9, sl, fp, ip}
    8c94:	f8bd0a00 	rfeia	sp!
    8c98:	00008fe0 	andeq	r8, r0, r0, ror #31

00008c9c <sem_init>:
    8c9c:	e52de004 	push	{lr}		; (str lr, [sp, #-4]!)
    8ca0:	e24dd00c 	sub	sp, sp, #12
    8ca4:	e58d0004 	str	r0, [sp, #4]
    8ca8:	e58d1000 	str	r1, [sp]
    8cac:	e3a00010 	mov	r0, #16
    8cb0:	ebfffe36 	bl	8590 <malloc_alloc>
    8cb4:	e1a02000 	mov	r2, r0
    8cb8:	e59d3004 	ldr	r3, [sp, #4]
    8cbc:	e5832000 	str	r2, [r3]
    8cc0:	e59d3004 	ldr	r3, [sp, #4]
    8cc4:	e5933000 	ldr	r3, [r3]
    8cc8:	e59d2000 	ldr	r2, [sp]
    8ccc:	e5832000 	str	r2, [r3]
    8cd0:	e59d3004 	ldr	r3, [sp, #4]
    8cd4:	e5933000 	ldr	r3, [r3]
    8cd8:	e3a02000 	mov	r2, #0
    8cdc:	e5832004 	str	r2, [r3, #4]
    8ce0:	e59d3004 	ldr	r3, [sp, #4]
    8ce4:	e5933000 	ldr	r3, [r3]
    8ce8:	e3a02000 	mov	r2, #0
    8cec:	e5832008 	str	r2, [r3, #8]
    8cf0:	e28dd00c 	add	sp, sp, #12
    8cf4:	e8bd8000 	pop	{pc}

00008cf8 <sem_up>:
    8cf8:	e52de004 	push	{lr}		; (str lr, [sp, #-4]!)
    8cfc:	e24dd014 	sub	sp, sp, #20
    8d00:	e58d0004 	str	r0, [sp, #4]
    8d04:	e92d0001 	push	{r0}
    8d08:	e10f0000 	mrs	r0, CPSR
    8d0c:	e3800080 	orr	r0, r0, #128	; 0x80
    8d10:	e121f000 	msr	CPSR_c, r0
    8d14:	e8bd0001 	pop	{r0}
    8d18:	e59d3004 	ldr	r3, [sp, #4]
    8d1c:	e5933004 	ldr	r3, [r3, #4]
    8d20:	e3530000 	cmp	r3, #0
    8d24:	da000011 	ble	8d70 <sem_up+0x78>
    8d28:	e59d3004 	ldr	r3, [sp, #4]
    8d2c:	e5933008 	ldr	r3, [r3, #8]
    8d30:	e58d300c 	str	r3, [sp, #12]
    8d34:	e59d300c 	ldr	r3, [sp, #12]
    8d38:	e5932004 	ldr	r2, [r3, #4]
    8d3c:	e59d3004 	ldr	r3, [sp, #4]
    8d40:	e5832008 	str	r2, [r3, #8]
    8d44:	e59d3004 	ldr	r3, [sp, #4]
    8d48:	e5933004 	ldr	r3, [r3, #4]
    8d4c:	e2432001 	sub	r2, r3, #1
    8d50:	e59d3004 	ldr	r3, [sp, #4]
    8d54:	e5832004 	str	r2, [r3, #4]
    8d58:	e59d300c 	ldr	r3, [sp, #12]
    8d5c:	e5933000 	ldr	r3, [r3]
    8d60:	e3a02000 	mov	r2, #0
    8d64:	e5c32014 	strb	r2, [r3, #20]
    8d68:	e59d000c 	ldr	r0, [sp, #12]
    8d6c:	ebfffd3c 	bl	8264 <malloc_free>
    8d70:	e59d3004 	ldr	r3, [sp, #4]
    8d74:	e5933000 	ldr	r3, [r3]
    8d78:	e2832001 	add	r2, r3, #1
    8d7c:	e59d3004 	ldr	r3, [sp, #4]
    8d80:	e5832000 	str	r2, [r3]
    8d84:	e92d0001 	push	{r0}
    8d88:	e10f0000 	mrs	r0, CPSR
    8d8c:	e3c00080 	bic	r0, r0, #128	; 0x80
    8d90:	e121f000 	msr	CPSR_c, r0
    8d94:	e8bd0001 	pop	{r0}
    8d98:	e28dd014 	add	sp, sp, #20
    8d9c:	e8bd8000 	pop	{pc}

00008da0 <sem_down>:
    8da0:	e52de004 	push	{lr}		; (str lr, [sp, #-4]!)
    8da4:	e24dd014 	sub	sp, sp, #20
    8da8:	e58d0004 	str	r0, [sp, #4]
    8dac:	e92d0001 	push	{r0}
    8db0:	e10f0000 	mrs	r0, CPSR
    8db4:	e3800080 	orr	r0, r0, #128	; 0x80
    8db8:	e121f000 	msr	CPSR_c, r0
    8dbc:	e8bd0001 	pop	{r0}
    8dc0:	e59d3004 	ldr	r3, [sp, #4]
    8dc4:	e5933000 	ldr	r3, [r3]
    8dc8:	e2432001 	sub	r2, r3, #1
    8dcc:	e59d3004 	ldr	r3, [sp, #4]
    8dd0:	e5832000 	str	r2, [r3]
    8dd4:	e59d3004 	ldr	r3, [sp, #4]
    8dd8:	e5933000 	ldr	r3, [r3]
    8ddc:	e3530000 	cmp	r3, #0
    8de0:	aa000030 	bge	8ea8 <sem_down+0x108>
    8de4:	e3a00008 	mov	r0, #8
    8de8:	ebfffde8 	bl	8590 <malloc_alloc>
    8dec:	e58d000c 	str	r0, [sp, #12]
    8df0:	e59f30cc 	ldr	r3, [pc, #204]	; 8ec4 <sem_down+0x124>
    8df4:	e5932000 	ldr	r2, [r3]
    8df8:	e59d300c 	ldr	r3, [sp, #12]
    8dfc:	e5832000 	str	r2, [r3]
    8e00:	e59d300c 	ldr	r3, [sp, #12]
    8e04:	e3a02000 	mov	r2, #0
    8e08:	e5832004 	str	r2, [r3, #4]
    8e0c:	e59d3004 	ldr	r3, [sp, #4]
    8e10:	e5933004 	ldr	r3, [r3, #4]
    8e14:	e3530000 	cmp	r3, #0
    8e18:	1a000006 	bne	8e38 <sem_down+0x98>
    8e1c:	e59d3004 	ldr	r3, [sp, #4]
    8e20:	e59d200c 	ldr	r2, [sp, #12]
    8e24:	e583200c 	str	r2, [r3, #12]
    8e28:	e59d3004 	ldr	r3, [sp, #4]
    8e2c:	e59d200c 	ldr	r2, [sp, #12]
    8e30:	e5832008 	str	r2, [r3, #8]
    8e34:	ea000006 	b	8e54 <sem_down+0xb4>
    8e38:	e59d3004 	ldr	r3, [sp, #4]
    8e3c:	e593300c 	ldr	r3, [r3, #12]
    8e40:	e59d200c 	ldr	r2, [sp, #12]
    8e44:	e5832004 	str	r2, [r3, #4]
    8e48:	e59d3004 	ldr	r3, [sp, #4]
    8e4c:	e59d200c 	ldr	r2, [sp, #12]
    8e50:	e583200c 	str	r2, [r3, #12]
    8e54:	e59d3004 	ldr	r3, [sp, #4]
    8e58:	e5933004 	ldr	r3, [r3, #4]
    8e5c:	e2832001 	add	r2, r3, #1
    8e60:	e59d3004 	ldr	r3, [sp, #4]
    8e64:	e5832004 	str	r2, [r3, #4]
    8e68:	e59f3054 	ldr	r3, [pc, #84]	; 8ec4 <sem_down+0x124>
    8e6c:	e5933000 	ldr	r3, [r3]
    8e70:	e3a02003 	mov	r2, #3
    8e74:	e5c32014 	strb	r2, [r3, #20]
    8e78:	e92d0001 	push	{r0}
    8e7c:	e10f0000 	mrs	r0, CPSR
    8e80:	e3c00080 	bic	r0, r0, #128	; 0x80
    8e84:	e121f000 	msr	CPSR_c, r0
    8e88:	e8bd0001 	pop	{r0}
    8e8c:	e1a00000 	nop			; (mov r0, r0)
    8e90:	e59f302c 	ldr	r3, [pc, #44]	; 8ec4 <sem_down+0x124>
    8e94:	e5933000 	ldr	r3, [r3]
    8e98:	e5d33014 	ldrb	r3, [r3, #20]
    8e9c:	e3530003 	cmp	r3, #3
    8ea0:	0afffffa 	beq	8e90 <sem_down+0xf0>
    8ea4:	ea000004 	b	8ebc <sem_down+0x11c>
    8ea8:	e92d0001 	push	{r0}
    8eac:	e10f0000 	mrs	r0, CPSR
    8eb0:	e3c00080 	bic	r0, r0, #128	; 0x80
    8eb4:	e121f000 	msr	CPSR_c, r0
    8eb8:	e8bd0001 	pop	{r0}
    8ebc:	e28dd014 	add	sp, sp, #20
    8ec0:	e8bd8000 	pop	{pc}
    8ec4:	00008fe0 	andeq	r8, r0, r0, ror #31

00008ec8 <mtx_init>:
    8ec8:	e52de004 	push	{lr}		; (str lr, [sp, #-4]!)
    8ecc:	e24dd00c 	sub	sp, sp, #12
    8ed0:	e58d0004 	str	r0, [sp, #4]
    8ed4:	e3a00008 	mov	r0, #8
    8ed8:	ebfffdac 	bl	8590 <malloc_alloc>
    8edc:	e1a02000 	mov	r2, r0
    8ee0:	e59d3004 	ldr	r3, [sp, #4]
    8ee4:	e5832000 	str	r2, [r3]
    8ee8:	e59d3004 	ldr	r3, [sp, #4]
    8eec:	e5933000 	ldr	r3, [r3]
    8ef0:	e3a02000 	mov	r2, #0
    8ef4:	e5832004 	str	r2, [r3, #4]
    8ef8:	e59d3004 	ldr	r3, [sp, #4]
    8efc:	e5933000 	ldr	r3, [r3]
    8f00:	e1a00003 	mov	r0, r3
    8f04:	e3a01001 	mov	r1, #1
    8f08:	ebffff63 	bl	8c9c <sem_init>
    8f0c:	e28dd00c 	add	sp, sp, #12
    8f10:	e8bd8000 	pop	{pc}

00008f14 <mtx_lock>:
    8f14:	e52de004 	push	{lr}		; (str lr, [sp, #-4]!)
    8f18:	e24dd00c 	sub	sp, sp, #12
    8f1c:	e58d0004 	str	r0, [sp, #4]
    8f20:	e92d0001 	push	{r0}
    8f24:	e10f0000 	mrs	r0, CPSR
    8f28:	e3800080 	orr	r0, r0, #128	; 0x80
    8f2c:	e121f000 	msr	CPSR_c, r0
    8f30:	e8bd0001 	pop	{r0}
    8f34:	e59f3034 	ldr	r3, [pc, #52]	; 8f70 <mtx_lock+0x5c>
    8f38:	e5932000 	ldr	r2, [r3]
    8f3c:	e59d3004 	ldr	r3, [sp, #4]
    8f40:	e5832004 	str	r2, [r3, #4]
    8f44:	e59d3004 	ldr	r3, [sp, #4]
    8f48:	e5933000 	ldr	r3, [r3]
    8f4c:	e1a00003 	mov	r0, r3
    8f50:	ebffff92 	bl	8da0 <sem_down>
    8f54:	e92d0001 	push	{r0}
    8f58:	e10f0000 	mrs	r0, CPSR
    8f5c:	e3c00080 	bic	r0, r0, #128	; 0x80
    8f60:	e121f000 	msr	CPSR_c, r0
    8f64:	e8bd0001 	pop	{r0}
    8f68:	e28dd00c 	add	sp, sp, #12
    8f6c:	e8bd8000 	pop	{pc}
    8f70:	00008fe0 	andeq	r8, r0, r0, ror #31

00008f74 <mtx_unlock>:
    8f74:	e52de004 	push	{lr}		; (str lr, [sp, #-4]!)
    8f78:	e24dd00c 	sub	sp, sp, #12
    8f7c:	e58d0004 	str	r0, [sp, #4]
    8f80:	e92d0001 	push	{r0}
    8f84:	e10f0000 	mrs	r0, CPSR
    8f88:	e3800080 	orr	r0, r0, #128	; 0x80
    8f8c:	e121f000 	msr	CPSR_c, r0
    8f90:	e8bd0001 	pop	{r0}
    8f94:	e59d3004 	ldr	r3, [sp, #4]
    8f98:	e5932004 	ldr	r2, [r3, #4]
    8f9c:	e59f3034 	ldr	r3, [pc, #52]	; 8fd8 <mtx_unlock+0x64>
    8fa0:	e5933000 	ldr	r3, [r3]
    8fa4:	e1520003 	cmp	r2, r3
    8fa8:	1a000003 	bne	8fbc <mtx_unlock+0x48>
    8fac:	e59d3004 	ldr	r3, [sp, #4]
    8fb0:	e5933000 	ldr	r3, [r3]
    8fb4:	e1a00003 	mov	r0, r3
    8fb8:	ebffff4e 	bl	8cf8 <sem_up>
    8fbc:	e92d0001 	push	{r0}
    8fc0:	e10f0000 	mrs	r0, CPSR
    8fc4:	e3c00080 	bic	r0, r0, #128	; 0x80
    8fc8:	e121f000 	msr	CPSR_c, r0
    8fcc:	e8bd0001 	pop	{r0}
    8fd0:	e28dd00c 	add	sp, sp, #12
    8fd4:	e8bd8000 	pop	{pc}
    8fd8:	00008fe0 	andeq	r8, r0, r0, ror #31

Disassembly of section .bss:

00008fdc <ready_queue>:
    8fdc:	00000000 	andeq	r0, r0, r0

00008fe0 <current_process>:
    8fe0:	00000000 	andeq	r0, r0, r0

00008fe4 <malloc_free_list>:
    8fe4:	00000000 	andeq	r0, r0, r0

00008fe8 <malloc_head>:
    8fe8:	00000000 	andeq	r0, r0, r0

00008fec <idle>:
	...

Disassembly of section .ARM.attributes:

00000000 <.ARM.attributes>:
   0:	00003141 	andeq	r3, r0, r1, asr #2
   4:	61656100 	cmnvs	r5, r0, lsl #2
   8:	01006962 	tsteq	r0, r2, ror #18
   c:	00000027 	andeq	r0, r0, r7, lsr #32
  10:	005a3605 	subseq	r3, sl, r5, lsl #12
  14:	01080706 	tsteq	r8, r6, lsl #14
  18:	020a0109 	andeq	r0, sl, #1073741826	; 0x40000002
  1c:	01140412 	tsteq	r4, r2, lsl r4
  20:	03170115 	tsteq	r7, #1073741829	; 0x40000005
  24:	011a0118 	tsteq	sl, r8, lsl r1
  28:	011c031b 	tsteq	ip, fp, lsl r3
  2c:	012c0122 	teqeq	ip, r2, lsr #2
  30:	Address 0x0000000000000030 is out of bounds.


Disassembly of section .comment:

00000000 <.comment>:
   0:	3a434347 	bcc	10d0d24 <__bss_end+0x10c7d1c>
   4:	4e472820 	cdpmi	8, 4, cr2, cr7, cr0, {1}
   8:	34202955 	strtcc	r2, [r0], #-2389	; 0x955
   c:	312e372e 	teqcc	lr, lr, lsr #14
	...

Disassembly of section .debug_line:

00000000 <.debug_line>:
   0:	00000061 	andeq	r0, r0, r1, rrx
   4:	00200002 	eoreq	r0, r0, r2
   8:	01020000 	mrseq	r0, (UNDEF: 2)
   c:	000d0efb 	strdeq	r0, [sp], -fp
  10:	01010101 	tsteq	r1, r1, lsl #2
  14:	01000000 	mrseq	r0, (UNDEF: 0)
  18:	00010000 	andeq	r0, r1, r0
  1c:	74636576 	strbtvc	r6, [r3], #-1398	; 0x576
  20:	2e73726f 	cdpcs	2, 7, cr7, cr3, cr15, {3}
  24:	00000073 	andeq	r0, r0, r3, ror r0
  28:	05000000 	streq	r0, [r0, #-0]
  2c:	00800002 	addeq	r0, r0, r2
  30:	2f2f1900 	svccs	0x002f1900
  34:	2f2f2f2f 	svccs	0x002f2f2f
  38:	080b032f 	stmdaeq	fp, {r0, r1, r2, r3, r5, r8, r9}
  3c:	2f2f2f20 	svccs	0x002f2f20
  40:	2f322f2f 	svccs	0x00322f2f
  44:	2f2f322f 	svccs	0x002f322f
  48:	302f2f31 	eorcc	r2, pc, r1, lsr pc	; <UNPREDICTABLE>
  4c:	2f2f2f2f 	svccs	0x002f2f2f
  50:	322f2f2f 	eorcc	r2, pc, #188	; 0xbc
  54:	322f322f 	eorcc	r3, pc, #-268435454	; 0xf0000002
  58:	322f322f 	eorcc	r3, pc, #-268435454	; 0xf0000002
  5c:	3032322f 	eorscc	r3, r2, pc, lsr #4
  60:	01000202 	tsteq	r0, r2, lsl #4
  64:	00005601 	andeq	r5, r0, r1, lsl #12
  68:	1f000200 	svcne	0x00000200
  6c:	02000000 	andeq	r0, r0, #0
  70:	0d0efb01 	vstreq	d15, [lr, #-4]
  74:	01010100 	mrseq	r0, (UNDEF: 17)
  78:	00000001 	andeq	r0, r0, r1
  7c:	01000001 	tsteq	r0, r1
  80:	72656b00 	rsbvc	r6, r5, #0
  84:	2e6c656e 	cdpcs	5, 6, cr6, cr12, cr14, {3}
  88:	00000063 	andeq	r0, r0, r3, rrx
  8c:	05000000 	streq	r0, [r0, #-0]
  90:	0080d002 	addeq	sp, r0, r2
  94:	4d4b1800 	stclmi	8, cr1, [fp, #-0]
  98:	0402002f 	streq	r0, [r2], #-47	; 0x2f
  9c:	062e0601 	strteq	r0, [lr], -r1, lsl #12
  a0:	4f4b5908 	svcmi	0x004b5908
  a4:	002f4d4b 	eoreq	r4, pc, fp, asr #26
  a8:	06010402 	streq	r0, [r1], -r2, lsl #8
  ac:	5908062e 	stmdbpl	r8, {r1, r2, r3, r5, r9, sl}
  b0:	9f2f514b 	svcls	0x002f514b
  b4:	68674c2f 	stmdavs	r7!, {r0, r1, r2, r3, r5, sl, fp, lr}^
  b8:	08022f30 	stmdaeq	r2, {r4, r5, r8, r9, sl, fp, sp}
  bc:	dd010100 	stfles	f0, [r1, #-0]
  c0:	02000000 	andeq	r0, r0, #0
  c4:	00002a00 	andeq	r2, r0, r0, lsl #20
  c8:	fb010200 	blx	408d2 <__bss_end+0x378ca>
  cc:	01000d0e 	tsteq	r0, lr, lsl #26
  d0:	00010101 	andeq	r0, r1, r1, lsl #2
  d4:	00010000 	andeq	r0, r1, r0
  d8:	6d000100 	stfvss	f0, [r0, #-0]
  dc:	6f6c6c61 	svcvs	0x006c6c61
  e0:	00632e63 	rsbeq	r2, r3, r3, ror #28
  e4:	74000000 	strvc	r0, [r0], #-0
  e8:	73657079 	cmnvc	r5, #121	; 0x79
  ec:	0000682e 	andeq	r6, r0, lr, lsr #16
  f0:	00000000 	andeq	r0, r0, r0
  f4:	81cc0205 	bichi	r0, ip, r5, lsl #4
  f8:	10030000 	andne	r0, r3, r0
  fc:	6a4b4b01 	bvs	12d2d08 <__bss_end+0x12c9d00>
 100:	83674b4b 	cmnhi	r7, #76800	; 0x12c00
 104:	848383f4 	strhi	r8, [r3], #1012	; 0x3f4
 108:	67bb6767 	ldrvs	r6, [fp, r7, ror #14]!
 10c:	b8bb30bb 	ldmlt	fp!, {r0, r1, r3, r4, r5, r7, ip, sp}
 110:	0200674e 	andeq	r6, r0, #20447232	; 0x1380000
 114:	7a030104 	bvc	c052c <__bss_end+0xb7524>
 118:	8209034a 	andhi	r0, r9, #671088641	; 0x28000001
 11c:	bb686831 	bllt	1a1a1e8 <__bss_end+0x1a111e0>
 120:	68bb3d08 	ldmvs	fp!, {r3, r8, sl, fp, ip, sp}
 124:	84b9bb67 	ldrthi	fp, [r9], #2919	; 0xb67
 128:	b9bb6784 	ldmiblt	fp!, {r2, r7, r8, r9, sl, sp, lr}
 12c:	a2678484 	rsbge	r8, r7, #-2080374784	; 0x84000000
 130:	686783d7 	stmdavs	r7!, {r0, r1, r2, r4, r6, r7, r8, r9, pc}^
 134:	6967bb2f 	stmdbvs	r7!, {r0, r1, r2, r3, r5, r8, r9, fp, ip, sp, pc}^
 138:	00834c67 	addeq	r4, r3, r7, ror #24
 13c:	03010402 	movweq	r0, #5122	; 0x1402
 140:	78036676 	stmdavc	r3, {r1, r2, r4, r5, r6, r9, sl, sp, lr}
 144:	2e14039e 	mrccs	3, 0, r0, cr4, cr14, {4}
 148:	d7674b68 	strble	r4, [r7, -r8, ror #22]!
 14c:	68844b67 	stmvs	r4, {r0, r1, r2, r5, r6, r8, r9, fp, lr}
 150:	834b8483 	movthi	r8, #46211	; 0xb483
 154:	02002f4b 	andeq	r2, r0, #300	; 0x12c
 158:	00810104 	addeq	r0, r1, r4, lsl #2
 15c:	06020402 	streq	r0, [r2], -r2, lsl #8
 160:	23080682 	movwcs	r0, #34434	; 0x8682
 164:	3f084b83 	svccc	0x00084b83
 168:	13842f68 	orrne	r2, r4, #416	; 0x1a0
 16c:	67836867 	strvs	r6, [r3, r7, ror #16]
 170:	4b4b4b67 	blmi	12d2f14 <__bss_end+0x12c9f0c>
 174:	0402004c 	streq	r0, [r2], #-76	; 0x4c
 178:	02006702 	andeq	r6, r0, #524288	; 0x80000
 17c:	3b080204 	blcc	200994 <__bss_end+0x1f798c>
 180:	01040200 	mrseq	r0, R12_usr
 184:	85066606 	strhi	r6, [r6, #-1542]	; 0x606
 188:	02040200 	andeq	r0, r4, #0
 18c:	04020067 	streq	r0, [r2], #-103	; 0x67
 190:	00730802 	rsbseq	r0, r3, r2, lsl #16
 194:	06010402 	streq	r0, [r1], -r2, lsl #8
 198:	02850666 	addeq	r0, r5, #106954752	; 0x6600000
 19c:	01010004 	tsteq	r1, r4
 1a0:	0000004a 	andeq	r0, r0, sl, asr #32
 1a4:	001b0002 	andseq	r0, fp, r2
 1a8:	01020000 	mrseq	r0, (UNDEF: 2)
 1ac:	000d0efb 	strdeq	r0, [sp], -fp
 1b0:	01010101 	tsteq	r1, r1, lsl #2
 1b4:	01000000 	mrseq	r0, (UNDEF: 0)
 1b8:	00010000 	andeq	r0, r1, r0
 1bc:	632e7768 	teqvs	lr, #27262976	; 0x1a00000
 1c0:	00000000 	andeq	r0, r0, r0
 1c4:	02050000 	andeq	r0, r5, #0
 1c8:	00008794 	muleq	r0, r4, r7
 1cc:	4b011b03 	blmi	46de0 <__bss_end+0x3ddd8>
 1d0:	67686767 	strbvs	r6, [r8, -r7, ror #14]!
 1d4:	2f9e0903 	svccs	0x009e0903
 1d8:	672f4e67 	strvs	r4, [pc, -r7, ror #28]!
 1dc:	67674f51 			; <UNDEFINED> instruction: 0x67674f51
 1e0:	67696967 	strbvs	r6, [r9, -r7, ror #18]!
 1e4:	68696a67 	stmdavs	r9!, {r0, r1, r2, r5, r6, r9, fp, sp, lr}^
 1e8:	0010029f 	mulseq	r0, pc, r2	; <UNPREDICTABLE>
 1ec:	00ea0101 	rsceq	r0, sl, r1, lsl #2
 1f0:	00020000 	andeq	r0, r2, r0
 1f4:	0000007b 	andeq	r0, r0, fp, ror r0
 1f8:	0efb0102 	cdpeq	1, 15, cr0, cr11, cr2, {0}
 1fc:	0101000d 	tsteq	r1, sp
 200:	00000101 	andeq	r0, r0, r1, lsl #2
 204:	00000100 	andeq	r0, r0, r0, lsl #2
 208:	706f2f01 	rsbvc	r2, pc, r1, lsl #30
 20c:	69342f74 	ldmdbvs	r4!, {r2, r4, r5, r6, r8, r9, sl, fp, sp}
 210:	534c2d66 	movtpl	r2, #52582	; 0xcd66
 214:	6d72612f 	ldfvse	f6, [r2, #-188]!	; 0xffffff44
 218:	6e6f6e2d 	cdpvs	14, 6, cr6, cr15, cr13, {1}
 21c:	61652d65 	cmnvs	r5, r5, ror #26
 220:	672d6962 	strvs	r6, [sp, -r2, ror #18]!
 224:	6c2f6363 	stcvs	3, cr6, [pc], #-396	; a0 <_start-0x7f60>
 228:	672f6269 	strvs	r6, [pc, -r9, ror #4]!
 22c:	612f6363 	teqvs	pc, r3, ror #6
 230:	6e2d6d72 	mcrvs	13, 1, r6, cr13, cr2, {3}
 234:	2d656e6f 	stclcs	14, cr6, [r5, #-444]!	; 0xfffffe44
 238:	69626165 	stmdbvs	r2!, {r0, r2, r5, r6, r8, sp, lr}^
 23c:	372e342f 	strcc	r3, [lr, -pc, lsr #8]!
 240:	692f312e 	stmdbvs	pc!, {r1, r2, r3, r5, r8, ip, sp}	; <UNPREDICTABLE>
 244:	756c636e 	strbvc	r6, [ip, #-878]!	; 0x36e
 248:	00006564 	andeq	r6, r0, r4, ror #10
 24c:	65686373 	strbvs	r6, [r8, #-883]!	; 0x373
 250:	00632e64 	rsbeq	r2, r3, r4, ror #28
 254:	73000000 	movwvc	r0, #0
 258:	6e696474 	mcrvs	4, 3, r6, cr9, cr4, {3}
 25c:	63672d74 	cmnvs	r7, #7424	; 0x1d00
 260:	00682e63 	rsbeq	r2, r8, r3, ror #28
 264:	73000001 	movwvc	r0, #1
 268:	64656863 	strbtvs	r6, [r5], #-2147	; 0x863
 26c:	0000682e 	andeq	r6, r0, lr, lsr #16
 270:	00000000 	andeq	r0, r0, r0
 274:	88c40205 	stmiahi	r4, {r0, r2, r9}^
 278:	11030000 	mrsne	r0, (UNDEF: 3)
 27c:	85832f01 	strhi	r2, [r3, #3841]	; 0xf01
 280:	a04e2f83 	subge	r2, lr, r3, lsl #31
 284:	83bb6769 			; <UNDEFINED> instruction: 0x83bb6769
 288:	83d9674d 	bicshi	r6, r9, #20185088	; 0x1340000
 28c:	862f849f 			; <UNDEFINED> instruction: 0x862f849f
 290:	4c676884 	stclmi	8, cr6, [r7], #-528	; 0xfffffdf0
 294:	83a18483 			; <UNDEFINED> instruction: 0x83a18483
 298:	674e87bb 			; <UNDEFINED> instruction: 0x674e87bb
 29c:	4b9f3069 	blmi	fe7cc448 <__bss_end+0xfe7c3440>
 2a0:	a169bb32 	cmnge	r9, r2, lsr fp
 2a4:	0200859f 	andeq	r8, r0, #666894336	; 0x27c00000
 2a8:	6d030104 	stfvss	f0, [r3, #-16]
 2ac:	9e170366 	cdpls	3, 1, cr0, cr7, cr6, {3}
 2b0:	002f6768 	eoreq	r6, pc, r8, ror #14
 2b4:	65010402 	strvs	r0, [r1, #-1026]	; 0x402
 2b8:	02040200 	andeq	r0, r4, #0
 2bc:	86068206 	strhi	r8, [r6], -r6, lsl #4
 2c0:	67674d83 	strbvs	r4, [r7, -r3, lsl #27]!
 2c4:	2fa26884 	svccs	0x00a26884
 2c8:	672f322f 	strvs	r3, [pc, -pc, lsr #4]!
 2cc:	04020084 	streq	r0, [r2], #-132	; 0x84
 2d0:	0200a101 	andeq	sl, r0, #1073741824	; 0x40000000
 2d4:	022f0104 	eoreq	r0, pc, #1
 2d8:	01010008 	tsteq	r1, r8
 2dc:	000000a2 	andeq	r0, r0, r2, lsr #1
 2e0:	00800002 	addeq	r0, r0, r2
 2e4:	01020000 	mrseq	r0, (UNDEF: 2)
 2e8:	000d0efb 	strdeq	r0, [sp], -fp
 2ec:	01010101 	tsteq	r1, r1, lsl #2
 2f0:	01000000 	mrseq	r0, (UNDEF: 0)
 2f4:	2f010000 	svccs	0x00010000
 2f8:	2f74706f 	svccs	0x0074706f
 2fc:	2d666934 	stclcs	9, cr6, [r6, #-208]!	; 0xffffff30
 300:	612f534c 	teqvs	pc, ip, asr #6
 304:	6e2d6d72 	mcrvs	13, 1, r6, cr13, cr2, {3}
 308:	2d656e6f 	stclcs	14, cr6, [r5, #-444]!	; 0xfffffe44
 30c:	69626165 	stmdbvs	r2!, {r0, r2, r5, r6, r8, sp, lr}^
 310:	6363672d 	cmnvs	r3, #11796480	; 0xb40000
 314:	62696c2f 	rsbvs	r6, r9, #12032	; 0x2f00
 318:	6363672f 	cmnvs	r3, #12320768	; 0xbc0000
 31c:	6d72612f 	ldfvse	f6, [r2, #-188]!	; 0xffffff44
 320:	6e6f6e2d 	cdpvs	14, 6, cr6, cr15, cr13, {1}
 324:	61652d65 	cmnvs	r5, r5, ror #26
 328:	342f6962 	strtcc	r6, [pc], #-2402	; 330 <_start-0x7cd0>
 32c:	312e372e 	teqcc	lr, lr, lsr #14
 330:	636e692f 	cmnvs	lr, #770048	; 0xbc000
 334:	6564756c 	strbvs	r7, [r4, #-1388]!	; 0x56c
 338:	69640000 	stmdbvs	r4!, {}^	; <UNPREDICTABLE>
 33c:	74617073 	strbtvc	r7, [r1], #-115	; 0x73
 340:	72656863 	rsbvc	r6, r5, #6488064	; 0x630000
 344:	0000632e 	andeq	r6, r0, lr, lsr #6
 348:	74730000 	ldrbtvc	r0, [r3], #-0
 34c:	746e6964 	strbtvc	r6, [lr], #-2404	; 0x964
 350:	6363672d 	cmnvs	r3, #11796480	; 0xb40000
 354:	0100682e 	tsteq	r0, lr, lsr #16
 358:	63730000 	cmnvs	r3, #0
 35c:	2e646568 	cdpcs	5, 6, cr6, cr4, cr8, {3}
 360:	00000068 	andeq	r0, r0, r8, rrx
 364:	05000000 	streq	r0, [r0, #-0]
 368:	008c2802 	addeq	r2, ip, r2, lsl #16
 36c:	2f151700 	svccs	0x00151700
 370:	a2313131 	eorsge	r3, r1, #1073741836	; 0x4000000c
 374:	64344e49 	ldrtvs	r4, [r4], #-3657	; 0xe49
 378:	4ea13033 	mcrmi	0, 5, r3, cr1, cr3, {1}
 37c:	00040233 	andeq	r0, r4, r3, lsr r2
 380:	00d60101 	sbcseq	r0, r6, r1, lsl #2
 384:	00020000 	andeq	r0, r2, r0
 388:	00000088 	andeq	r0, r0, r8, lsl #1
 38c:	0efb0102 	cdpeq	1, 15, cr0, cr11, cr2, {0}
 390:	0101000d 	tsteq	r1, sp
 394:	00000101 	andeq	r0, r0, r1, lsl #2
 398:	00000100 	andeq	r0, r0, r0, lsl #2
 39c:	2f2e2e01 	svccs	0x002e2e01
 3a0:	2f00736f 	svccs	0x0000736f
 3a4:	2f74706f 	svccs	0x0074706f
 3a8:	2d666934 	stclcs	9, cr6, [r6, #-208]!	; 0xffffff30
 3ac:	612f534c 	teqvs	pc, ip, asr #6
 3b0:	6e2d6d72 	mcrvs	13, 1, r6, cr13, cr2, {3}
 3b4:	2d656e6f 	stclcs	14, cr6, [r5, #-444]!	; 0xfffffe44
 3b8:	69626165 	stmdbvs	r2!, {r0, r2, r5, r6, r8, sp, lr}^
 3bc:	6363672d 	cmnvs	r3, #11796480	; 0xb40000
 3c0:	62696c2f 	rsbvs	r6, r9, #12032	; 0x2f00
 3c4:	6363672f 	cmnvs	r3, #12320768	; 0xbc0000
 3c8:	6d72612f 	ldfvse	f6, [r2, #-188]!	; 0xffffff44
 3cc:	6e6f6e2d 	cdpvs	14, 6, cr6, cr15, cr13, {1}
 3d0:	61652d65 	cmnvs	r5, r5, ror #26
 3d4:	342f6962 	strtcc	r6, [pc], #-2402	; 3dc <_start-0x7c24>
 3d8:	312e372e 	teqcc	lr, lr, lsr #14
 3dc:	636e692f 	cmnvs	lr, #770048	; 0xbc000
 3e0:	6564756c 	strbvs	r7, [r4, #-1388]!	; 0x56c
 3e4:	65730000 	ldrbvs	r0, [r3, #-0]!
 3e8:	00632e6d 	rsbeq	r2, r3, sp, ror #28
 3ec:	73000001 	movwvc	r0, #1
 3f0:	6e696474 	mcrvs	4, 3, r6, cr9, cr4, {3}
 3f4:	63672d74 	cmnvs	r7, #7424	; 0x1d00
 3f8:	00682e63 	rsbeq	r2, r8, r3, ror #28
 3fc:	73000002 	movwvc	r0, #2
 400:	64656863 	strbtvs	r6, [r5], #-2147	; 0x863
 404:	0100682e 	tsteq	r0, lr, lsr #16
 408:	65730000 	ldrbvs	r0, [r3, #-0]!
 40c:	00682e6d 	rsbeq	r2, r8, sp, ror #28
 410:	00000001 	andeq	r0, r0, r1
 414:	9c020500 	cfstr32ls	mvfx0, [r2], {-0}
 418:	1700008c 	strne	r0, [r0, -ip, lsl #1]
 41c:	83839f83 	orrhi	r9, r3, #524	; 0x20c
 420:	9f684c83 	svcls	0x00684c83
 424:	a1836884 	orrge	r6, r3, r4, lsl #17
 428:	9f9f4c85 	svcls	0x009f4c85
 42c:	a09f674d 	addsge	r6, pc, sp, asr #14
 430:	69836784 	stmibvs	r3, {r2, r7, r8, r9, sl, sp, lr}
 434:	83866783 	orrhi	r6, r6, #34340864	; 0x20c0000
 438:	9f83a069 	svcls	0x0083a069
 43c:	01040200 	mrseq	r0, R12_usr
 440:	069e2e06 	ldreq	r2, [lr], r6, lsl #28
 444:	6768a133 			; <UNDEFINED> instruction: 0x6768a133
 448:	4ba0839f 	blmi	fe8212cc <__bss_end+0xfe8182c4>
 44c:	83839f67 	orrhi	r9, r3, #412	; 0x19c
 450:	9f67679f 	svcls	0x0067679f
 454:	029f84bb 	addseq	r8, pc, #-1157627904	; 0xbb000000
 458:	01010006 	tsteq	r1, r6

Disassembly of section .debug_info:

00000000 <.debug_info>:
   0:	00000065 	andeq	r0, r0, r5, rrx
   4:	00000002 	andeq	r0, r0, r2
   8:	01040000 	mrseq	r0, (UNDEF: 4)
   c:	00000000 	andeq	r0, r0, r0
  10:	00008000 	andeq	r8, r0, r0
  14:	000080d0 	ldrdeq	r8, [r0], -r0
  18:	74636576 	strbtvc	r6, [r3], #-1398	; 0x576
  1c:	2e73726f 	cdpcs	2, 7, cr7, cr3, cr15, {3}
  20:	682f0073 	stmdavs	pc!, {r0, r1, r4, r5, r6}	; <UNPREDICTABLE>
  24:	2f656d6f 	svccs	0x00656d6f
  28:	63616b61 	cmnvs	r1, #99328	; 0x18400
  2c:	63616b68 	cmnvs	r1, #106496	; 0x1a000
  30:	6f772f68 	svcvs	0x00772f68
  34:	70736b72 	rsbsvc	r6, r3, r2, ror fp
  38:	2f656361 	svccs	0x00656361
  3c:	636f7270 	cmnvs	pc, #7
  40:	2d737365 	ldclcs	3, cr7, [r3, #-404]!	; 0xfffffe6c
  44:	65686373 	strbvs	r6, [r8, #-883]!	; 0x373
  48:	656c7564 	strbvs	r7, [ip, #-1380]!	; 0x564
  4c:	6c622f72 	stclvs	15, cr2, [r2], #-456	; 0xfffffe38
  50:	696b6e69 	stmdbvs	fp!, {r0, r3, r5, r6, r9, sl, fp, sp, lr}^
  54:	6c2d676e 	stcvs	7, cr6, [sp], #-440	; 0xfffffe48
  58:	47006465 	strmi	r6, [r0, -r5, ror #8]
  5c:	4120554e 	teqmi	r0, lr, asr #10
  60:	2e322053 	mrccs	0, 1, r2, cr2, cr3, {2}
  64:	01003232 	tsteq	r0, r2, lsr r2
  68:	0000d580 	andeq	sp, r0, r0, lsl #11
  6c:	14000200 	strne	r0, [r0], #-512	; 0x200
  70:	04000000 	streq	r0, [r0], #-0
  74:	0000a101 	andeq	sl, r0, r1, lsl #2
  78:	00000100 	andeq	r0, r0, r0, lsl #2
  7c:	00680000 	rsbeq	r0, r8, r0
  80:	80d00000 	sbcshi	r0, r0, r0
  84:	81cc0000 	bichi	r0, ip, r0
  88:	00650000 	rsbeq	r0, r5, r0
  8c:	01020000 	mrseq	r0, (UNDEF: 2)
  90:	00000b06 	andeq	r0, r0, r6, lsl #22
  94:	05020200 	streq	r0, [r2, #-512]	; 0x200
  98:	000000ad 	andeq	r0, r0, sp, lsr #1
  9c:	5f050402 	svcpl	0x00050402
  a0:	02000000 	andeq	r0, r0, #0
  a4:	005a0508 	subseq	r0, sl, r8, lsl #10
  a8:	01020000 	mrseq	r0, (UNDEF: 2)
  ac:	00000908 	andeq	r0, r0, r8, lsl #18
  b0:	07020200 	streq	r0, [r2, -r0, lsl #4]
  b4:	00000017 	andeq	r0, r0, r7, lsl r0
  b8:	3c070402 	cfstrscc	mvf0, [r7], {2}
  bc:	02000000 	andeq	r0, r0, #0
  c0:	00370708 	eorseq	r0, r7, r8, lsl #14
  c4:	04030000 	streq	r0, [r3], #-0
  c8:	746e6905 	strbtvc	r6, [lr], #-2309	; 0x905
  cc:	07040200 	streq	r0, [r4, -r0, lsl #4]
  d0:	00000041 	andeq	r0, r0, r1, asr #32
  d4:	12080102 	andne	r0, r8, #-2147483648	; 0x80000000
  d8:	04000000 	streq	r0, [r0], #-0
  dc:	00004e01 	andeq	r4, r0, r1, lsl #28
  e0:	d0060100 	andle	r0, r6, r0, lsl #2
  e4:	24000080 	strcs	r0, [r0], #-128	; 0x80
  e8:	00000081 	andeq	r0, r0, r1, lsl #1
  ec:	01000000 	mrseq	r0, (UNDEF: 0)
  f0:	00000098 	muleq	r0, r8, r0
  f4:	01006905 	tsteq	r0, r5, lsl #18
  f8:	00005d08 	andeq	r5, r0, r8, lsl #26
  fc:	74910200 	ldrvc	r0, [r1], #512	; 0x200
 100:	b7010400 	strlt	r0, [r1, -r0, lsl #8]
 104:	01000000 	mrseq	r0, (UNDEF: 0)
 108:	00812412 	addeq	r2, r1, r2, lsl r4
 10c:	00817800 	addeq	r7, r1, r0, lsl #16
 110:	00002c00 	andeq	r2, r0, r0, lsl #24
 114:	00be0100 	adcseq	r0, lr, r0, lsl #2
 118:	69050000 	stmdbvs	r5, {}	; <UNPREDICTABLE>
 11c:	5d140100 	ldfpls	f0, [r4, #-0]
 120:	02000000 	andeq	r0, r0, #0
 124:	06007491 			; <UNDEFINED> instruction: 0x06007491
 128:	00002a01 	andeq	r2, r0, r1, lsl #20
 12c:	01200100 	teqeq	r0, r0, lsl #2
 130:	0000005d 	andeq	r0, r0, sp, asr r0
 134:	00008178 	andeq	r8, r0, r8, ror r1
 138:	000081cc 	andeq	r8, r0, ip, asr #3
 13c:	00000058 	andeq	r0, r0, r8, asr r0
 140:	042d0001 	strteq	r0, [sp], #-1
 144:	00020000 	andeq	r0, r2, r0
 148:	0000007f 	andeq	r0, r0, pc, ror r0
 14c:	00a10104 	adceq	r0, r1, r4, lsl #2
 150:	37010000 	strcc	r0, [r1, -r0]
 154:	e4000002 	str	r0, [r0], #-2
 158:	cc000000 	stcgt	0, cr0, [r0], {-0}
 15c:	94000081 	strls	r0, [r0], #-129	; 0x81
 160:	bf000087 	svclt	0x00000087
 164:	02000000 	andeq	r0, r0, #0
 168:	00170702 	andseq	r0, r7, r2, lsl #14
 16c:	d3030000 	movwle	r0, #12288	; 0x3000
 170:	02000001 	andeq	r0, r0, #1
 174:	00003705 	andeq	r3, r0, r5, lsl #14
 178:	07040200 	streq	r0, [r4, -r0, lsl #4]
 17c:	00000041 	andeq	r0, r0, r1, asr #32
 180:	00020603 	andeq	r0, r2, r3, lsl #12
 184:	49060200 	stmdbmi	r6, {r9}
 188:	02000000 	andeq	r0, r0, #0
 18c:	00090801 	andeq	r0, r9, r1, lsl #16
 190:	23040000 	movwcs	r0, #16384	; 0x4000
 194:	04000002 	streq	r0, [r0], #-2
 198:	00790301 	rsbseq	r0, r9, r1, lsl #6
 19c:	fe050000 	cdp2	0, 0, cr0, cr5, cr0, {0}
 1a0:	01000002 	tsteq	r0, r2
 1a4:	00002c04 	andeq	r2, r0, r4, lsl #24
 1a8:	00230200 	eoreq	r0, r3, r0, lsl #4
 1ac:	00016105 	andeq	r6, r1, r5, lsl #2
 1b0:	79050100 	stmdbvc	r5, {r8}
 1b4:	02000000 	andeq	r0, r0, #0
 1b8:	06000423 	streq	r0, [r0], -r3, lsr #8
 1bc:	0000008f 	andeq	r0, r0, pc, lsl #1
 1c0:	00000088 	andeq	r0, r0, r8, lsl #1
 1c4:	00008807 	andeq	r8, r0, r7, lsl #16
 1c8:	04020000 	streq	r0, [r2], #-0
 1cc:	0001f107 	andeq	pc, r1, r7, lsl #2
 1d0:	08010200 	stmdaeq	r1, {r9}
 1d4:	00000012 	andeq	r0, r0, r2, lsl r0
 1d8:	00012904 	andeq	r2, r1, r4, lsl #18
 1dc:	08010800 	stmdaeq	r1, {fp}
 1e0:	000000cd 	andeq	r0, r0, sp, asr #1
 1e4:	0002fe05 	andeq	pc, r2, r5, lsl #28
 1e8:	2c090100 	stfcss	f0, [r9], {-0}
 1ec:	02000000 	andeq	r0, r0, #0
 1f0:	0c050023 	stceq	0, cr0, [r5], {35}	; 0x23
 1f4:	01000002 	tsteq	r0, r2
 1f8:	00002c0a 	andeq	r2, r0, sl, lsl #24
 1fc:	04230200 	strteq	r0, [r3], #-512	; 0x200
 200:	00021b05 	andeq	r1, r2, r5, lsl #22
 204:	cd0b0100 	stfgts	f0, [fp, #-0]
 208:	02000000 	andeq	r0, r0, #0
 20c:	06000823 	streq	r0, [r0], -r3, lsr #16
 210:	000000dc 	ldrdeq	r0, [r0], -ip
 214:	000000dc 	ldrdeq	r0, [r0], -ip
 218:	00008807 	andeq	r8, r0, r7, lsl #16
 21c:	04080000 	streq	r0, [r8], #-0
 220:	00000050 	andeq	r0, r0, r0, asr r0
 224:	01500109 	cmpeq	r0, r9, lsl #2
 228:	11010000 	mrsne	r0, (UNDEF: 1)
 22c:	0000dc01 	andeq	sp, r0, r1, lsl #24
 230:	0081cc00 	addeq	ip, r1, r0, lsl #24
 234:	0081e800 	addeq	lr, r1, r0, lsl #16
 238:	00007800 	andeq	r7, r0, r0, lsl #16
 23c:	010f0100 	mrseq	r0, (UNDEF: 31)
 240:	700a0000 	andvc	r0, sl, r0
 244:	01007274 	tsteq	r0, r4, ror r2
 248:	00010f11 	andeq	r0, r1, r1, lsl pc
 24c:	7c910200 	lfmvc	f0, 4, [r1], {0}
 250:	8f040800 	svchi	0x00040800
 254:	0b000000 	bleq	25c <_start-0x7da4>
 258:	0001e501 	andeq	lr, r1, r1, lsl #10
 25c:	01170100 	tsteq	r7, r0, lsl #2
 260:	000081e8 	andeq	r8, r0, r8, ror #3
 264:	00008264 	andeq	r8, r0, r4, ror #4
 268:	00000098 	muleq	r0, r8, r0
 26c:	00014c01 	andeq	r4, r1, r1, lsl #24
 270:	74700a00 	ldrbtvc	r0, [r0], #-2560	; 0xa00
 274:	17010072 	smlsdxne	r1, r2, r0, r0
 278:	0000014c 	andeq	r0, r0, ip, asr #2
 27c:	0c749102 	ldfeqp	f1, [r4], #-8
 280:	000002fe 	strdeq	r0, [r0], -lr
 284:	002c1801 	eoreq	r1, ip, r1, lsl #16
 288:	91020000 	mrsls	r0, (UNDEF: 2)
 28c:	040d007c 	streq	r0, [sp], #-124	; 0x7c
 290:	0137010e 	teqeq	r7, lr, lsl #2
 294:	21010000 	mrscs	r0, (UNDEF: 1)
 298:	00826401 	addeq	r6, r2, r1, lsl #8
 29c:	00832800 	addeq	r2, r3, r0, lsl #16
 2a0:	0000b800 	andeq	fp, r0, r0, lsl #16
 2a4:	01a10100 			; <UNDEFINED> instruction: 0x01a10100
 2a8:	700a0000 	andvc	r0, sl, r0
 2ac:	01007274 	tsteq	r0, r4, ror r2
 2b0:	00014c21 	andeq	r4, r1, r1, lsr #24
 2b4:	64910200 	ldrvs	r0, [r1], #512	; 0x200
 2b8:	00015b0c 	andeq	r5, r1, ip, lsl #22
 2bc:	dc220100 	stfles	f0, [r2], #-0
 2c0:	02000000 	andeq	r0, r0, #0
 2c4:	c80c7091 	stmdagt	ip, {r0, r4, r7, ip, sp, lr}
 2c8:	01000000 	mrseq	r0, (UNDEF: 0)
 2cc:	00002c23 	andeq	r2, r0, r3, lsr #24
 2d0:	74910200 	ldrvc	r0, [r1], #512	; 0x200
 2d4:	0001760c 	andeq	r7, r1, ip, lsl #12
 2d8:	2c240100 	stfcss	f0, [r4], #-0
 2dc:	02000000 	andeq	r0, r0, #0
 2e0:	0b006c91 	bleq	1b52c <__bss_end+0x12524>
 2e4:	0001bd01 	andeq	fp, r1, r1, lsl #26
 2e8:	01340100 	teqeq	r4, r0, lsl #2
 2ec:	00008328 	andeq	r8, r0, r8, lsr #6
 2f0:	00008398 	muleq	r0, r8, r3
 2f4:	000000e4 	andeq	r0, r0, r4, ror #1
 2f8:	0001e201 	andeq	lr, r1, r1, lsl #4
 2fc:	00780a00 	rsbseq	r0, r8, r0, lsl #20
 300:	002c3401 	eoreq	r3, ip, r1, lsl #8
 304:	91020000 	mrsls	r0, (UNDEF: 2)
 308:	00790a74 	rsbseq	r0, r9, r4, ror sl
 30c:	002c3401 	eoreq	r3, ip, r1, lsl #8
 310:	91020000 	mrsls	r0, (UNDEF: 2)
 314:	6d740f70 	ldclvs	15, cr0, [r4, #-448]!	; 0xfffffe40
 318:	35010070 	strcc	r0, [r1, #-112]	; 0x70
 31c:	000000dc 	ldrdeq	r0, [r0], -ip
 320:	007c9102 	rsbseq	r9, ip, r2, lsl #2
 324:	01da0109 	bicseq	r0, sl, r9, lsl #2
 328:	3b010000 	blcc	40330 <__bss_end+0x37328>
 32c:	00002c01 	andeq	r2, r0, r1, lsl #24
 330:	00839800 	addeq	r9, r3, r0, lsl #16
 334:	0083f400 	addeq	pc, r3, r0, lsl #8
 338:	00010400 	andeq	r0, r1, r0, lsl #8
 33c:	021d0100 	andseq	r0, sp, #0
 340:	24100000 	ldrcs	r0, [r0], #-0
 344:	01000001 	tsteq	r0, r1
 348:	00002c3b 	andeq	r2, r0, fp, lsr ip
 34c:	7c910200 	lfmvc	f0, 4, [r1], {0}
 350:	00017010 	andeq	r7, r1, r0, lsl r0
 354:	2c3b0100 	ldfcss	f0, [fp], #-0
 358:	02000000 	andeq	r0, r0, #0
 35c:	09007891 	stmdbeq	r0, {r0, r4, r7, fp, ip, sp, lr}
 360:	00021101 	andeq	r1, r2, r1, lsl #2
 364:	01400100 	mrseq	r0, (UNDEF: 80)
 368:	0000002c 	andeq	r0, r0, ip, lsr #32
 36c:	000083f4 	strdeq	r8, [r0], -r4
 370:	00008450 	andeq	r8, r0, r0, asr r4
 374:	00000124 	andeq	r0, r0, r4, lsr #2
 378:	00025801 	andeq	r5, r2, r1, lsl #16
 37c:	01241000 	teqeq	r4, r0
 380:	40010000 	andmi	r0, r1, r0
 384:	0000002c 	andeq	r0, r0, ip, lsr #32
 388:	107c9102 	rsbsne	r9, ip, r2, lsl #2
 38c:	00000170 	andeq	r0, r0, r0, ror r1
 390:	002c4001 	eoreq	r4, ip, r1
 394:	91020000 	mrsls	r0, (UNDEF: 2)
 398:	010e0078 	tsteq	lr, r8, ror r0
 39c:	0000018e 	andeq	r0, r0, lr, lsl #3
 3a0:	50014501 	andpl	r4, r1, r1, lsl #10
 3a4:	3c000084 	stccc	0, cr0, [r0], {132}	; 0x84
 3a8:	44000085 	strmi	r0, [r0], #-133	; 0x85
 3ac:	01000001 	tsteq	r0, r1
 3b0:	000002ab 	andeq	r0, r0, fp, lsr #5
 3b4:	0000c810 	andeq	ip, r0, r0, lsl r8
 3b8:	2c450100 	stfcse	f0, [r5], {-0}
 3bc:	02000000 	andeq	r0, r0, #0
 3c0:	0c0c6491 	cfstrseq	mvf6, [ip], {145}	; 0x91
 3c4:	01000002 	tsteq	r0, r2
 3c8:	00002c4a 	andeq	r2, r0, sl, asr #24
 3cc:	6c910200 	lfmvs	f0, 4, [r1], {0}
 3d0:	0001240c 	andeq	r2, r1, ip, lsl #8
 3d4:	2c4b0100 	stfcse	f0, [fp], {-0}
 3d8:	02000000 	andeq	r0, r0, #0
 3dc:	700c7491 	mulvc	ip, r1, r4
 3e0:	01000001 	tsteq	r0, r1
 3e4:	00002c4c 	andeq	r2, r0, ip, asr #24
 3e8:	70910200 	addsvc	r0, r1, r0, lsl #4
 3ec:	cd010900 	stcgt	9, cr0, [r1, #-0]
 3f0:	01000000 	mrseq	r0, (UNDEF: 0)
 3f4:	010f015d 	tsteq	pc, sp, asr r1	; <UNPREDICTABLE>
 3f8:	853c0000 	ldrhi	r0, [ip, #-0]!
 3fc:	85900000 	ldrhi	r0, [r0]
 400:	01700000 	cmneq	r0, r0
 404:	e6010000 	str	r0, [r1], -r0
 408:	10000002 	andne	r0, r0, r2
 40c:	000002fe 	strdeq	r0, [r0], -lr
 410:	002c5d01 	eoreq	r5, ip, r1, lsl #26
 414:	91020000 	mrsls	r0, (UNDEF: 2)
 418:	015b0c74 	cmpeq	fp, r4, ror ip
 41c:	5e010000 	cdppl	0, 0, cr0, cr1, cr0, {0}
 420:	000000dc 	ldrdeq	r0, [r0], -ip
 424:	007c9102 	rsbseq	r9, ip, r2, lsl #2
 428:	01430111 	cmpeq	r3, r1, lsl r1
 42c:	64010000 	strvs	r0, [r1], #-0
 430:	00010f01 	andeq	r0, r1, r1, lsl #30
 434:	00859000 	addeq	r9, r5, r0
 438:	00868400 	addeq	r8, r6, r0, lsl #8
 43c:	00019000 	andeq	r9, r1, r0
 440:	033d0100 	teqeq	sp, #0
 444:	fe100000 	cdp2	0, 1, cr0, cr0, cr0, {0}
 448:	01000002 	tsteq	r0, r2
 44c:	00002c64 	andeq	r2, r0, r4, ror #24
 450:	64910200 	ldrvs	r0, [r1], #512	; 0x200
 454:	0000c80c 	andeq	ip, r0, ip, lsl #16
 458:	2c690100 	stfcse	f0, [r9], #-0
 45c:	02000000 	andeq	r0, r0, #0
 460:	0c0c7491 	cfstrseq	mvf7, [ip], {145}	; 0x91
 464:	01000002 	tsteq	r0, r2
 468:	00002c6a 	andeq	r2, r0, sl, ror #24
 46c:	6c910200 	lfmvs	f0, 4, [r1], {0}
 470:	7274700f 	rsbsvc	r7, r4, #15
 474:	0f6b0100 	svceq	0x006b0100
 478:	02000001 	andeq	r0, r0, #1
 47c:	12007091 	andne	r7, r0, #145	; 0x91
 480:	0001a601 	andeq	sl, r1, r1, lsl #12
 484:	2c790100 	ldfcse	f0, [r9], #-0
 488:	84000000 	strhi	r0, [r0], #-0
 48c:	9c000086 	stcls	0, cr0, [r0], {134}	; 0x86
 490:	02000086 	andeq	r0, r0, #134	; 0x86
 494:	0b01007d 	bleq	40690 <__bss_end+0x37688>
 498:	0001ff01 	andeq	pc, r1, r1, lsl #30
 49c:	017d0100 	cmneq	sp, r0, lsl #2
 4a0:	0000869c 	muleq	r0, ip, r6
 4a4:	00008794 	muleq	r0, r4, r7
 4a8:	000001bc 			; <UNDEFINED> instruction: 0x000001bc
 4ac:	0003fa01 	andeq	pc, r3, r1, lsl #20
 4b0:	72730a00 	rsbsvc	r0, r3, #0
 4b4:	7d010063 	stcvc	0, cr0, [r1, #-396]	; 0xfffffe74
 4b8:	0000014c 	andeq	r0, r0, ip, asr #2
 4bc:	0a5c9102 	beq	17248cc <__bss_end+0x171b8c4>
 4c0:	00747364 	rsbseq	r7, r4, r4, ror #6
 4c4:	014c7d01 	cmpeq	ip, r1, lsl #26
 4c8:	91020000 	mrsls	r0, (UNDEF: 2)
 4cc:	656c0a58 	strbvs	r0, [ip, #-2648]!	; 0xa58
 4d0:	7d01006e 	stcvc	0, cr0, [r1, #-440]	; 0xfffffe48
 4d4:	0000002c 	andeq	r0, r0, ip, lsr #32
 4d8:	0c549102 	ldfeqp	f1, [r4], {2}
 4dc:	0000016b 	andeq	r0, r0, fp, ror #2
 4e0:	002c7e01 	eoreq	r7, ip, r1, lsl #28
 4e4:	91020000 	mrsls	r0, (UNDEF: 2)
 4e8:	02320c78 	eorseq	r0, r2, #30720	; 0x7800
 4ec:	7f010000 	svcvc	0x00010000
 4f0:	0000002c 	andeq	r0, r0, ip, lsr #32
 4f4:	0c749102 	ldfeqp	f1, [r4], #-8
 4f8:	00000166 	andeq	r0, r0, r6, ror #2
 4fc:	03fa8001 	mvnseq	r8, #1
 500:	91020000 	mrsls	r0, (UNDEF: 2)
 504:	00c30c70 	sbceq	r0, r3, r0, ror ip
 508:	81010000 	mrshi	r0, (UNDEF: 1)
 50c:	000003fa 	strdeq	r0, [r0], -sl
 510:	0c6c9102 	stfeqp	f1, [ip], #-8
 514:	0000017d 	andeq	r0, r0, sp, ror r1
 518:	04008201 	streq	r8, [r0], #-513	; 0x201
 51c:	91020000 	mrsls	r0, (UNDEF: 2)
 520:	01fa0c68 	mvnseq	r0, r8, ror #24
 524:	83010000 	movwhi	r0, #4096	; 0x1000
 528:	00000400 	andeq	r0, r0, r0, lsl #8
 52c:	0f649102 	svceq	0x00649102
 530:	84010069 	strhi	r0, [r1], #-105	; 0x69
 534:	0000002c 	andeq	r0, r0, ip, lsr #32
 538:	007c9102 	rsbseq	r9, ip, r2, lsl #2
 53c:	002c0408 	eoreq	r0, ip, r8, lsl #8
 540:	04080000 	streq	r0, [r8], #-0
 544:	0000003e 	andeq	r0, r0, lr, lsr r0
 548:	00011313 	andeq	r1, r1, r3, lsl r3
 54c:	180e0100 	stmdane	lr, {r8}
 550:	01000004 	tsteq	r0, r4
 554:	8fe40305 	svchi	0x00e40305
 558:	04080000 	streq	r0, [r8], #-0
 55c:	00000096 	muleq	r0, r6, r0
 560:	00018213 	andeq	r8, r1, r3, lsl r2
 564:	0f0f0100 	svceq	0x000f0100
 568:	01000001 	tsteq	r0, r1
 56c:	8fe80305 	svchi	0x00e80305
 570:	b8000000 	stmdalt	r0, {}	; <UNPREDICTABLE>
 574:	02000000 	andeq	r0, r0, #0
 578:	0001ba00 	andeq	fp, r1, r0, lsl #20
 57c:	a1010400 	tstge	r1, r0, lsl #8
 580:	01000000 	mrseq	r0, (UNDEF: 0)
 584:	00000248 	andeq	r0, r0, r8, asr #4
 588:	000000e4 	andeq	r0, r0, r4, ror #1
 58c:	00008794 	muleq	r0, r4, r7
 590:	000088c4 	andeq	r8, r0, r4, asr #17
 594:	000001a0 	andeq	r0, r0, r0, lsr #3
 598:	17070202 	strne	r0, [r7, -r2, lsl #4]
 59c:	02000000 	andeq	r0, r0, #0
 5a0:	00410704 	subeq	r0, r1, r4, lsl #14
 5a4:	01020000 	mrseq	r0, (UNDEF: 2)
 5a8:	00000908 	andeq	r0, r0, r8, lsl #18
 5ac:	54010300 	strpl	r0, [r1], #-768	; 0x300
 5b0:	01000002 	tsteq	r0, r2
 5b4:	0087941b 	addeq	r9, r7, fp, lsl r4
 5b8:	0087e000 	addeq	lr, r7, r0
 5bc:	0001dc00 	andeq	sp, r1, r0, lsl #24
 5c0:	00610100 	rsbeq	r0, r1, r0, lsl #2
 5c4:	72040000 	andvc	r0, r4, #0
 5c8:	1d010078 	stcne	0, cr0, [r1, #-480]	; 0xfffffe20
 5cc:	0000002c 	andeq	r0, r0, ip, lsr #32
 5d0:	00749102 	rsbseq	r9, r4, r2, lsl #2
 5d4:	026e0105 	rsbeq	r0, lr, #1073741825	; 0x40000001
 5d8:	2a010000 	bcs	405e0 <__bss_end+0x375d8>
 5dc:	000087e0 	andeq	r8, r0, r0, ror #15
 5e0:	000087f8 	strdeq	r8, [r0], -r8	; <UNPREDICTABLE>
 5e4:	00000208 	andeq	r0, r0, r8, lsl #4
 5e8:	4d010501 	cfstr32mi	mvfx0, [r1, #-4]
 5ec:	01000002 	tsteq	r0, r2
 5f0:	0087f830 	addeq	pc, r7, r0, lsr r8	; <UNPREDICTABLE>
 5f4:	00881000 	addeq	r1, r8, r0
 5f8:	00022800 	andeq	r2, r2, r0, lsl #16
 5fc:	01060100 	mrseq	r0, (UNDEF: 22)
 600:	00000240 	andeq	r0, r0, r0, asr #4
 604:	88103901 	ldmdahi	r0, {r0, r8, fp, ip, sp}
 608:	88c40000 	stmiahi	r4, {}^	; <UNPREDICTABLE>
 60c:	02480000 	subeq	r0, r8, #0
 610:	04010000 	streq	r0, [r1], #-0
 614:	01006172 	tsteq	r0, r2, ror r1
 618:	00002c3b 	andeq	r2, r0, fp, lsr ip
 61c:	74910200 	ldrvc	r0, [r1], #512	; 0x200
 620:	00787204 	rsbseq	r7, r8, r4, lsl #4
 624:	002c3c01 	eoreq	r3, ip, r1, lsl #24
 628:	91020000 	mrsls	r0, (UNDEF: 2)
 62c:	6d000070 	stcvs	0, cr0, [r0, #-448]	; 0xfffffe40
 630:	02000002 	andeq	r0, r0, #2
 634:	00022c00 	andeq	r2, r2, r0, lsl #24
 638:	a1010400 	tstge	r1, r0, lsl #8
 63c:	01000000 	mrseq	r0, (UNDEF: 0)
 640:	000002a6 	andeq	r0, r0, r6, lsr #5
 644:	000000e4 	andeq	r0, r0, r4, ror #1
 648:	000088c4 	andeq	r8, r0, r4, asr #17
 64c:	00008c28 	andeq	r8, r0, r8, lsr #24
 650:	000001ee 	andeq	r0, r0, lr, ror #3
 654:	0b060102 	bleq	180a64 <__bss_end+0x177a5c>
 658:	02000000 	andeq	r0, r0, #0
 65c:	00ad0502 	adceq	r0, sp, r2, lsl #10
 660:	04020000 	streq	r0, [r2], #-0
 664:	00005f05 	andeq	r5, r0, r5, lsl #30
 668:	05080200 	streq	r0, [r8, #-512]	; 0x200
 66c:	0000005a 	andeq	r0, r0, sl, asr r0
 670:	09080102 	stmdbeq	r8, {r1, r8}
 674:	02000000 	andeq	r0, r0, #0
 678:	00170702 	andseq	r0, r7, r2, lsl #14
 67c:	30030000 	andcc	r0, r3, r0
 680:	02000003 	andeq	r0, r0, #3
 684:	00005a34 	andeq	r5, r0, r4, lsr sl
 688:	07040200 	streq	r0, [r4, -r0, lsl #4]
 68c:	0000003c 	andeq	r0, r0, ip, lsr r0
 690:	37070802 	strcc	r0, [r7, -r2, lsl #16]
 694:	04000000 	streq	r0, [r0], #-0
 698:	6e690504 	cdpvs	5, 6, cr0, cr9, cr4, {0}
 69c:	04020074 	streq	r0, [r2], #-116	; 0x74
 6a0:	00004107 	andeq	r4, r0, r7, lsl #2
 6a4:	02eb0300 	rsceq	r0, fp, #0
 6a8:	09030000 	stmdbeq	r3, {}	; <UNPREDICTABLE>
 6ac:	00000081 	andeq	r0, r0, r1, lsl #1
 6b0:	76060105 	strvc	r0, [r6], -r5, lsl #2
 6b4:	01000002 	tsteq	r0, r2
 6b8:	00a80b03 	adceq	r0, r8, r3, lsl #22
 6bc:	f2070000 	vhadd.s8	d0, d7, d0
 6c0:	00000002 	andeq	r0, r0, r2
 6c4:	57454e08 	strbpl	r4, [r5, -r8, lsl #28]
 6c8:	3e070100 	adfccs	f0, f7, f0
 6cc:	02000003 	andeq	r0, r0, #3
 6d0:	00028807 	andeq	r8, r2, r7, lsl #16
 6d4:	09000300 	stmdbeq	r0, {r8, r9}
 6d8:	000002cb 	andeq	r0, r0, fp, asr #5
 6dc:	160d031c 			; <UNDEFINED> instruction: 0x160d031c
 6e0:	0a000001 	beq	6ec <_start-0x7914>
 6e4:	03007073 	movweq	r7, #115	; 0x73
 6e8:	0001160f 	andeq	r1, r1, pc, lsl #12
 6ec:	00230200 	eoreq	r0, r3, r0, lsl #4
 6f0:	0002ae0b 	andeq	sl, r2, fp, lsl #28
 6f4:	1c120300 	ldcne	3, cr0, [r2], {-0}
 6f8:	02000001 	andeq	r0, r0, #1
 6fc:	1c0b0423 	cfstrsne	mvf0, [fp], {35}	; 0x23
 700:	03000003 	movweq	r0, #3
 704:	00012213 	andeq	r2, r1, r3, lsl r2
 708:	08230200 	stmdaeq	r3!, {r9}
 70c:	0002fe0b 	andeq	pc, r2, fp, lsl #28
 710:	6f150300 	svcvs	0x00150300
 714:	02000000 	andeq	r0, r0, #0
 718:	d10b0c23 	tstle	fp, r3, lsr #24
 71c:	03000002 	movweq	r0, #2
 720:	00012416 	andeq	r2, r1, r6, lsl r4
 724:	10230200 	eorne	r0, r3, r0, lsl #4
 728:	0002820b 	andeq	r8, r2, fp, lsl #4
 72c:	83170300 	tsthi	r7, #0
 730:	02000000 	andeq	r0, r0, #0
 734:	390b1423 	stmdbcc	fp, {r0, r1, r5, sl, ip}
 738:	03000003 	movweq	r0, #3
 73c:	00013119 	andeq	r3, r1, r9, lsl r1
 740:	18230200 	stmdane	r3!, {r9}
 744:	4f040c00 	svcmi	0x00040c00
 748:	0c000000 	stceq	0, cr0, [r0], {-0}
 74c:	00007604 	andeq	r7, r0, r4, lsl #12
 750:	0c040d00 	stceq	13, cr0, [r4], {-0}
 754:	00012a04 	andeq	r2, r1, r4, lsl #20
 758:	08010200 	stmdaeq	r1, {r9}
 75c:	00000012 	andeq	r0, r0, r2, lsl r0
 760:	00a8040c 	adceq	r0, r8, ip, lsl #8
 764:	010e0000 	mrseq	r0, (UNDEF: 14)
 768:	00000290 	muleq	r0, r0, r2
 76c:	88c41101 	stmiahi	r4, {r0, r8, ip}^
 770:	89040000 	stmdbhi	r4, {}	; <UNPREDICTABLE>
 774:	02740000 	rsbseq	r0, r4, #0
 778:	0f010000 	svceq	0x00010000
 77c:	00030f01 	andeq	r0, r3, r1, lsl #30
 780:	011c0100 	tsteq	ip, r0, lsl #2
 784:	00000068 	andeq	r0, r0, r8, rrx
 788:	00008904 	andeq	r8, r0, r4, lsl #18
 78c:	000089d0 	ldrdeq	r8, [r0], -r0
 790:	00000294 	muleq	r0, r4, r2
 794:	00019301 	andeq	r9, r1, r1, lsl #6
 798:	63701000 	cmnvs	r0, #0
 79c:	1c010062 	stcne	0, cr0, [r1], {98}	; 0x62
 7a0:	00000131 	andeq	r0, r0, r1, lsr r1
 7a4:	11749102 	cmnne	r4, r2, lsl #2
 7a8:	000002f8 	strdeq	r0, [r0], -r8
 7ac:	00681c01 	rsbeq	r1, r8, r1, lsl #24
 7b0:	91020000 	mrsls	r0, (UNDEF: 2)
 7b4:	00661070 	rsbeq	r1, r6, r0, ror r0
 7b8:	011c1c01 	tsteq	ip, r1, lsl #24
 7bc:	91020000 	mrsls	r0, (UNDEF: 2)
 7c0:	010f006c 	tsteq	pc, ip, rrx
 7c4:	00000321 	andeq	r0, r0, r1, lsr #6
 7c8:	68013401 	stmdavs	r1, {r0, sl, ip, sp}
 7cc:	d0000000 	andle	r0, r0, r0
 7d0:	6c000089 	stcvs	0, cr0, [r0], {137}	; 0x89
 7d4:	c000008a 	andgt	r0, r0, sl, lsl #1
 7d8:	01000002 	tsteq	r0, r2
 7dc:	000001da 	ldrdeq	r0, [r0], -sl
 7e0:	01006610 	tsteq	r0, r0, lsl r6
 7e4:	00011c34 	andeq	r1, r1, r4, lsr ip
 7e8:	6c910200 	lfmvs	f0, 4, [r1], {0}
 7ec:	0002fe11 	andeq	pc, r2, r1, lsl lr	; <UNPREDICTABLE>
 7f0:	6f340100 	svcvs	0x00340100
 7f4:	02000000 	andeq	r0, r0, #0
 7f8:	70126891 	mulsvc	r2, r1, r8
 7fc:	01006263 	tsteq	r0, r3, ror #4
 800:	00013136 	andeq	r3, r1, r6, lsr r1
 804:	74910200 	ldrvc	r0, [r1], #512	; 0x200
 808:	e2011300 	and	r1, r1, #0
 80c:	01000002 	tsteq	r0, r2
 810:	008a6c48 	addeq	r6, sl, r8, asr #24
 814:	008bd400 	addeq	sp, fp, r0, lsl #8
 818:	0002ec00 	andeq	lr, r2, r0, lsl #24
 81c:	02100100 	andseq	r0, r0, #0
 820:	70120000 	andsvc	r0, r2, r0
 824:	01006263 	tsteq	r0, r3, ror #4
 828:	0001314a 	andeq	r3, r1, sl, asr #2
 82c:	74910200 	ldrvc	r0, [r1], #512	; 0x200
 830:	00034914 	andeq	r4, r3, r4, lsl r9
 834:	314b0100 	mrscc	r0, (UNDEF: 91)
 838:	02000001 	andeq	r0, r0, #1
 83c:	0e007091 	mcreq	0, 0, r7, cr0, cr1, {4}
 840:	0002dc01 	andeq	sp, r2, r1, lsl #24
 844:	d47c0100 	ldrbtle	r0, [ip], #-256	; 0x100
 848:	e000008b 	and	r0, r0, fp, lsl #1
 84c:	1800008b 	stmdane	r0, {r0, r1, r3, r7}
 850:	01000003 	tsteq	r0, r3
 854:	02ba010e 	adcseq	r0, sl, #-2147483645	; 0x80000003
 858:	82010000 	andhi	r0, r1, #0
 85c:	00008be0 	andeq	r8, r0, r0, ror #23
 860:	00008c28 	andeq	r8, r0, r8, lsr #24
 864:	00000338 	andeq	r0, r0, r8, lsr r3
 868:	02961501 	addseq	r1, r6, #4194304	; 0x400000
 86c:	09010000 	stmdbeq	r1, {}	; <UNPREDICTABLE>
 870:	00000131 	andeq	r0, r0, r1, lsr r1
 874:	e0030501 	and	r0, r3, r1, lsl #10
 878:	1500008f 	strne	r0, [r0, #-143]	; 0x8f
 87c:	000002c6 	andeq	r0, r0, r6, asr #5
 880:	00a80701 	adceq	r0, r8, r1, lsl #14
 884:	05010000 	streq	r0, [r1, #-0]
 888:	008fec03 	addeq	lr, pc, r3, lsl #24
 88c:	03031500 	movweq	r1, #13568	; 0x3500
 890:	08010000 	stmdaeq	r1, {}	; <UNPREDICTABLE>
 894:	00000131 	andeq	r0, r0, r1, lsr r1
 898:	dc030501 	cfstr32le	mvfx0, [r3], {1}
 89c:	0000008f 	andeq	r0, r0, pc, lsl #1
 8a0:	00000156 	andeq	r0, r0, r6, asr r1
 8a4:	035f0002 	cmpeq	pc, #2
 8a8:	01040000 	mrseq	r0, (UNDEF: 4)
 8ac:	000000a1 	andeq	r0, r0, r1, lsr #1
 8b0:	00035201 	andeq	r5, r3, r1, lsl #4
 8b4:	0000e400 	andeq	lr, r0, r0, lsl #8
 8b8:	008c2800 	addeq	r2, ip, r0, lsl #16
 8bc:	008c9c00 	addeq	r9, ip, r0, lsl #24
 8c0:	0002dc00 	andeq	sp, r2, r0, lsl #24
 8c4:	06010200 	streq	r0, [r1], -r0, lsl #4
 8c8:	0000000b 	andeq	r0, r0, fp
 8cc:	ad050202 	sfmge	f0, 4, [r5, #-8]
 8d0:	02000000 	andeq	r0, r0, #0
 8d4:	005f0504 	subseq	r0, pc, r4, lsl #10
 8d8:	08020000 	stmdaeq	r2, {}	; <UNPREDICTABLE>
 8dc:	00005a05 	andeq	r5, r0, r5, lsl #20
 8e0:	08010200 	stmdaeq	r1, {r9}
 8e4:	00000009 	andeq	r0, r0, r9
 8e8:	17070202 	strne	r0, [r7, -r2, lsl #4]
 8ec:	03000000 	movweq	r0, #0
 8f0:	00000330 	andeq	r0, r0, r0, lsr r3
 8f4:	005a3402 	subseq	r3, sl, r2, lsl #8
 8f8:	04020000 	streq	r0, [r2], #-0
 8fc:	00003c07 	andeq	r3, r0, r7, lsl #24
 900:	07080200 	streq	r0, [r8, -r0, lsl #4]
 904:	00000037 	andeq	r0, r0, r7, lsr r0
 908:	69050404 	stmdbvs	r5, {r2, sl}
 90c:	0200746e 	andeq	r7, r0, #1845493760	; 0x6e000000
 910:	00410704 	subeq	r0, r1, r4, lsl #14
 914:	eb030000 	bl	c091c <__bss_end+0xb7914>
 918:	03000002 	movweq	r0, #2
 91c:	00008109 	andeq	r8, r0, r9, lsl #2
 920:	06010500 	streq	r0, [r1], -r0, lsl #10
 924:	00000276 	andeq	r0, r0, r6, ror r2
 928:	a80b0301 	stmdage	fp, {r0, r8, r9}
 92c:	07000000 	streq	r0, [r0, -r0]
 930:	000002f2 	strdeq	r0, [r0], -r2
 934:	454e0800 	strbmi	r0, [lr, #-2048]	; 0x800
 938:	07010057 	smlsdeq	r1, r7, r0, r0
 93c:	0000033e 	andeq	r0, r0, lr, lsr r3
 940:	02880702 	addeq	r0, r8, #524288	; 0x80000
 944:	00030000 	andeq	r0, r3, r0
 948:	0002cb09 	andeq	ip, r2, r9, lsl #22
 94c:	0d031c00 	stceq	12, cr1, [r3, #-0]
 950:	00000116 	andeq	r0, r0, r6, lsl r1
 954:	0070730a 	rsbseq	r7, r0, sl, lsl #6
 958:	01160f03 	tsteq	r6, r3, lsl #30
 95c:	23020000 	movwcs	r0, #8192	; 0x2000
 960:	02ae0b00 	adceq	r0, lr, #0
 964:	12030000 	andne	r0, r3, #0
 968:	0000011c 	andeq	r0, r0, ip, lsl r1
 96c:	0b042302 	bleq	10957c <__bss_end+0x100574>
 970:	0000031c 	andeq	r0, r0, ip, lsl r3
 974:	01221303 	teqeq	r2, r3, lsl #6
 978:	23020000 	movwcs	r0, #8192	; 0x2000
 97c:	02fe0b08 	rscseq	r0, lr, #8192	; 0x2000
 980:	15030000 	strne	r0, [r3, #-0]
 984:	0000006f 	andeq	r0, r0, pc, rrx
 988:	0b0c2302 	bleq	309598 <__bss_end+0x300590>
 98c:	000002d1 	ldrdeq	r0, [r0], -r1
 990:	01241603 	teqeq	r4, r3, lsl #12
 994:	23020000 	movwcs	r0, #8192	; 0x2000
 998:	02820b10 	addeq	r0, r2, #16384	; 0x4000
 99c:	17030000 	strne	r0, [r3, -r0]
 9a0:	00000083 	andeq	r0, r0, r3, lsl #1
 9a4:	0b142302 	bleq	5095b4 <__bss_end+0x5005ac>
 9a8:	00000339 	andeq	r0, r0, r9, lsr r3
 9ac:	01311903 	teqeq	r1, r3, lsl #18
 9b0:	23020000 	movwcs	r0, #8192	; 0x2000
 9b4:	040c0018 	streq	r0, [ip], #-24
 9b8:	0000004f 	andeq	r0, r0, pc, asr #32
 9bc:	0076040c 	rsbseq	r0, r6, ip, lsl #8
 9c0:	040d0000 	streq	r0, [sp], #-0
 9c4:	012a040c 	teqeq	sl, ip, lsl #8
 9c8:	01020000 	mrseq	r0, (UNDEF: 2)
 9cc:	00001208 	andeq	r1, r0, r8, lsl #4
 9d0:	a8040c00 	stmdage	r4, {sl, fp}
 9d4:	0e000000 	cdpeq	0, 0, cr0, cr0, cr0, {0}
 9d8:	00035f01 	andeq	r5, r3, r1, lsl #30
 9dc:	01050100 	mrseq	r0, (UNDEF: 21)
 9e0:	00008c28 	andeq	r8, r0, r8, lsr #24
 9e4:	00008c9c 	muleq	r0, ip, ip
 9e8:	01007d02 	tsteq	r0, r2, lsl #26
 9ec:	0002960f 	andeq	r9, r2, pc, lsl #12
 9f0:	31070300 	mrscc	r0, SP_und
 9f4:	01000001 	tsteq	r0, r1
 9f8:	032a0001 	teqeq	sl, #1
 9fc:	00020000 	andeq	r0, r2, r0
 a00:	00000424 	andeq	r0, r0, r4, lsr #8
 a04:	00a10104 	adceq	r0, r1, r4, lsl #2
 a08:	9e010000 	cdpls	0, 0, cr0, cr1, cr0, {0}
 a0c:	68000003 	stmdavs	r0, {r0, r1}
 a10:	9c000000 	stcls	0, cr0, [r0], {-0}
 a14:	dc00008c 	stcle	0, cr0, [r0], {140}	; 0x8c
 a18:	8200008f 	andhi	r0, r0, #143	; 0x8f
 a1c:	02000003 	andeq	r0, r0, #3
 a20:	000b0601 	andeq	r0, fp, r1, lsl #12
 a24:	02020000 	andeq	r0, r2, #0
 a28:	0000ad05 	andeq	sl, r0, r5, lsl #26
 a2c:	05040200 	streq	r0, [r4, #-512]	; 0x200
 a30:	0000005f 	andeq	r0, r0, pc, asr r0
 a34:	5a050802 	bpl	142a44 <__bss_end+0x139a3c>
 a38:	02000000 	andeq	r0, r0, #0
 a3c:	00090801 	andeq	r0, r9, r1, lsl #16
 a40:	02020000 	andeq	r0, r2, #0
 a44:	00001707 	andeq	r1, r0, r7, lsl #14
 a48:	03300300 	teqeq	r0, #0
 a4c:	34020000 	strcc	r0, [r2], #-0
 a50:	0000005a 	andeq	r0, r0, sl, asr r0
 a54:	3c070402 	cfstrscc	mvf0, [r7], {2}
 a58:	02000000 	andeq	r0, r0, #0
 a5c:	00370708 	eorseq	r0, r7, r8, lsl #14
 a60:	04040000 	streq	r0, [r4], #-0
 a64:	746e6905 	strbtvc	r6, [lr], #-2309	; 0x905
 a68:	07040200 	streq	r0, [r4, -r0, lsl #4]
 a6c:	00000041 	andeq	r0, r0, r1, asr #32
 a70:	0002eb03 	andeq	lr, r2, r3, lsl #22
 a74:	81090300 	mrshi	r0, (UNDEF: 57)
 a78:	05000000 	streq	r0, [r0, #-0]
 a7c:	02760601 	rsbseq	r0, r6, #1048576	; 0x100000
 a80:	03010000 	movweq	r0, #4096	; 0x1000
 a84:	0000a80b 	andeq	sl, r0, fp, lsl #16
 a88:	02f20700 	rscseq	r0, r2, #0
 a8c:	08000000 	stmdaeq	r0, {}	; <UNPREDICTABLE>
 a90:	0057454e 	subseq	r4, r7, lr, asr #10
 a94:	033e0701 	teqeq	lr, #262144	; 0x40000
 a98:	07020000 	streq	r0, [r2, -r0]
 a9c:	00000288 	andeq	r0, r0, r8, lsl #5
 aa0:	cb090003 	blgt	240ab4 <__bss_end+0x237aac>
 aa4:	1c000002 	stcne	0, cr0, [r0], {2}
 aa8:	01160d03 	tsteq	r6, r3, lsl #26
 aac:	730a0000 	movwvc	r0, #40960	; 0xa000
 ab0:	0f030070 	svceq	0x00030070
 ab4:	00000116 	andeq	r0, r0, r6, lsl r1
 ab8:	0b002302 	bleq	96c8 <__bss_end+0x6c0>
 abc:	000002ae 	andeq	r0, r0, lr, lsr #5
 ac0:	011c1203 	tsteq	ip, r3, lsl #4
 ac4:	23020000 	movwcs	r0, #8192	; 0x2000
 ac8:	031c0b04 	tsteq	ip, #4096	; 0x1000
 acc:	13030000 	movwne	r0, #12288	; 0x3000
 ad0:	00000122 	andeq	r0, r0, r2, lsr #2
 ad4:	0b082302 	bleq	2096e4 <__bss_end+0x2006dc>
 ad8:	000002fe 	strdeq	r0, [r0], -lr
 adc:	006f1503 	rsbeq	r1, pc, r3, lsl #10
 ae0:	23020000 	movwcs	r0, #8192	; 0x2000
 ae4:	02d10b0c 	sbcseq	r0, r1, #12288	; 0x3000
 ae8:	16030000 	strne	r0, [r3], -r0
 aec:	00000124 	andeq	r0, r0, r4, lsr #2
 af0:	0b102302 	bleq	409700 <__bss_end+0x4006f8>
 af4:	00000282 	andeq	r0, r0, r2, lsl #5
 af8:	00831703 	addeq	r1, r3, r3, lsl #14
 afc:	23020000 	movwcs	r0, #8192	; 0x2000
 b00:	03390b14 	teqeq	r9, #20480	; 0x5000
 b04:	19030000 	stmdbne	r3, {}	; <UNPREDICTABLE>
 b08:	00000131 	andeq	r0, r0, r1, lsr r1
 b0c:	00182302 	andseq	r2, r8, r2, lsl #6
 b10:	004f040c 	subeq	r0, pc, ip, lsl #8
 b14:	040c0000 	streq	r0, [ip], #-0
 b18:	00000076 	andeq	r0, r0, r6, ror r0
 b1c:	040c040d 	streq	r0, [ip], #-1037	; 0x40d
 b20:	0000012a 	andeq	r0, r0, sl, lsr #2
 b24:	12080102 	andne	r0, r8, #-2147483648	; 0x80000000
 b28:	0c000000 	stceq	0, cr0, [r0], {-0}
 b2c:	0000a804 	andeq	sl, r0, r4, lsl #16
 b30:	03b30900 			; <UNDEFINED> instruction: 0x03b30900
 b34:	04080000 	streq	r0, [r8], #-0
 b38:	00016005 	andeq	r6, r1, r5
 b3c:	03280b00 	teqeq	r8, #0
 b40:	06040000 	streq	r0, [r4], -r0
 b44:	00000131 	andeq	r0, r0, r1, lsr r1
 b48:	0b002302 	bleq	9758 <__bss_end+0x750>
 b4c:	00000339 	andeq	r0, r0, r9, lsr r3
 b50:	01600704 	cmneq	r0, r4, lsl #14
 b54:	23020000 	movwcs	r0, #8192	; 0x2000
 b58:	040c0004 	streq	r0, [ip], #-4
 b5c:	00000137 	andeq	r0, r0, r7, lsr r1
 b60:	0003c309 	andeq	ip, r3, r9, lsl #6
 b64:	0a041000 	beq	104b6c <__bss_end+0xfbb64>
 b68:	000001ab 	andeq	r0, r0, fp, lsr #3
 b6c:	6c61760a 	stclvs	6, cr7, [r1], #-40	; 0xffffffd8
 b70:	680b0400 	stmdavs	fp, {sl}
 b74:	02000000 	andeq	r0, r0, #0
 b78:	f00b0023 			; <UNDEFINED> instruction: 0xf00b0023
 b7c:	04000003 	streq	r0, [r0], #-3
 b80:	0000680c 	andeq	r6, r0, ip, lsl #16
 b84:	04230200 	strteq	r0, [r3], #-512	; 0x200
 b88:	0003090b 	andeq	r0, r3, fp, lsl #18
 b8c:	600d0400 	andvs	r0, sp, r0, lsl #8
 b90:	02000001 	andeq	r0, r0, #1
 b94:	e30b0823 	movw	r0, #47139	; 0xb823
 b98:	04000003 	streq	r0, [r0], #-3
 b9c:	0001600e 	andeq	r6, r1, lr
 ba0:	0c230200 	sfmeq	f0, 4, [r3], #-0
 ba4:	03dd0900 	bicseq	r0, sp, #0
 ba8:	04080000 	streq	r0, [r8], #-0
 bac:	0001d413 	andeq	sp, r1, r3, lsl r4
 bb0:	04010b00 	streq	r0, [r1], #-2816	; 0xb00
 bb4:	14040000 	strne	r0, [r4], #-0
 bb8:	000001d4 	ldrdeq	r0, [r0], -r4
 bbc:	0b002302 	bleq	97cc <__bss_end+0x7c4>
 bc0:	000003c9 	andeq	r0, r0, r9, asr #7
 bc4:	01311504 	teqeq	r1, r4, lsl #10
 bc8:	23020000 	movwcs	r0, #8192	; 0x2000
 bcc:	040c0004 	streq	r0, [ip], #-4
 bd0:	00000166 	andeq	r0, r0, r6, ror #2
 bd4:	0373010e 	cmneq	r3, #-2147483645	; 0x80000003
 bd8:	06010000 	streq	r0, [r1], -r0
 bdc:	008c9c01 	addeq	r9, ip, r1, lsl #24
 be0:	008cf800 	addeq	pc, ip, r0, lsl #16
 be4:	00035800 	andeq	r5, r3, r0, lsl #16
 be8:	02110100 	andseq	r0, r1, #0
 bec:	730f0000 	movwvc	r0, #61440	; 0xf000
 bf0:	01006d65 	tsteq	r0, r5, ror #26
 bf4:	00021106 	andeq	r1, r2, r6, lsl #2
 bf8:	74910200 	ldrvc	r0, [r1], #512	; 0x200
 bfc:	6c61760f 	stclvs	6, cr7, [r1], #-60	; 0xffffffc4
 c00:	6f060100 	svcvs	0x00060100
 c04:	02000000 	andeq	r0, r0, #0
 c08:	0c007091 	stceq	0, cr7, [r0], {145}	; 0x91
 c0c:	0001d404 	andeq	sp, r1, r4, lsl #8
 c10:	82010e00 	andhi	r0, r1, #0
 c14:	01000003 	tsteq	r0, r3
 c18:	8cf8010d 	ldfhie	f0, [r8], #52	; 0x34
 c1c:	8da00000 	stchi	0, cr0, [r0]
 c20:	03840000 	orreq	r0, r4, #0
 c24:	58010000 	stmdapl	r1, {}	; <UNPREDICTABLE>
 c28:	0f000002 	svceq	0x00000002
 c2c:	006d6573 	rsbeq	r6, sp, r3, ror r5
 c30:	01d40d01 	bicseq	r0, r4, r1, lsl #26
 c34:	91020000 	mrsls	r0, (UNDEF: 2)
 c38:	8d28106c 	stchi	0, cr1, [r8, #-432]!	; 0xfffffe50
 c3c:	8d700000 	ldclhi	0, cr0, [r0, #-0]
 c40:	cf110000 	svcgt	0x00110000
 c44:	01000003 	tsteq	r0, r3
 c48:	00016012 	andeq	r6, r1, r2, lsl r0
 c4c:	74910200 	ldrvc	r0, [r1], #512	; 0x200
 c50:	010e0000 	mrseq	r0, (UNDEF: 14)
 c54:	000003f8 	strdeq	r0, [r0], -r8
 c58:	a0012201 	andge	r2, r1, r1, lsl #4
 c5c:	c800008d 	stmdagt	r0, {r0, r2, r3, r7}
 c60:	b000008e 	andlt	r0, r0, lr, lsl #1
 c64:	01000003 	tsteq	r0, r3
 c68:	00000299 	muleq	r0, r9, r2
 c6c:	6d65730f 	stclvs	3, cr7, [r5, #-60]!	; 0xffffffc4
 c70:	d4220100 	strtle	r0, [r2], #-256	; 0x100
 c74:	02000001 	andeq	r0, r0, #1
 c78:	e4106c91 	ldr	r6, [r0], #-3217	; 0xc91
 c7c:	a800008d 	stmdage	r0, {r0, r2, r3, r7}
 c80:	1100008e 	smlabbne	r0, lr, r0, r0
 c84:	00000394 	muleq	r0, r4, r3
 c88:	01602801 	cmneq	r0, r1, lsl #16
 c8c:	91020000 	mrsls	r0, (UNDEF: 2)
 c90:	0e000074 	mcreq	0, 0, r0, cr0, cr4, {3}
 c94:	00036a01 	andeq	r6, r3, r1, lsl #20
 c98:	01450100 	mrseq	r0, (UNDEF: 85)
 c9c:	00008ec8 	andeq	r8, r0, r8, asr #29
 ca0:	00008f14 	andeq	r8, r0, r4, lsl pc
 ca4:	000003dc 	ldrdeq	r0, [r0], -ip
 ca8:	0002c201 	andeq	ip, r2, r1, lsl #4
 cac:	037c1200 	cmneq	ip, #0
 cb0:	45010000 	strmi	r0, [r1, #-0]
 cb4:	000002c2 	andeq	r0, r0, r2, asr #5
 cb8:	00749102 	rsbseq	r9, r4, r2, lsl #2
 cbc:	02c8040c 	sbceq	r0, r8, #201326592	; 0xc000000
 cc0:	040c0000 	streq	r0, [ip], #-0
 cc4:	000001ab 	andeq	r0, r0, fp, lsr #3
 cc8:	03aa010e 			; <UNDEFINED> instruction: 0x03aa010e
 ccc:	4b010000 	blmi	40cd4 <__bss_end+0x37ccc>
 cd0:	008f1401 	addeq	r1, pc, r1, lsl #8
 cd4:	008f7400 	addeq	r7, pc, r0, lsl #8
 cd8:	00040800 	andeq	r0, r4, r0, lsl #16
 cdc:	02f70100 	rscseq	r0, r7, #0
 ce0:	7c120000 	ldcvc	0, cr0, [r2], {-0}
 ce4:	01000003 	tsteq	r0, r3
 ce8:	0002c84b 	andeq	ip, r2, fp, asr #16
 cec:	74910200 	ldrvc	r0, [r1], #512	; 0x200
 cf0:	89010e00 	stmdbhi	r1, {r9, sl, fp}
 cf4:	01000003 	tsteq	r0, r3
 cf8:	8f740151 	svchi	0x00740151
 cfc:	8fdc0000 	svchi	0x00dc0000
 d00:	04340000 	ldrteq	r0, [r4], #-0
 d04:	20010000 	andcs	r0, r1, r0
 d08:	12000003 	andne	r0, r0, #3
 d0c:	0000037c 	andeq	r0, r0, ip, ror r3
 d10:	02c85101 	sbceq	r5, r8, #1073741824	; 0x40000000
 d14:	91020000 	mrsls	r0, (UNDEF: 2)
 d18:	96130074 			; <UNDEFINED> instruction: 0x96130074
 d1c:	03000002 	movweq	r0, #2
 d20:	00013107 	andeq	r3, r1, r7, lsl #2
 d24:	00010100 	andeq	r0, r1, r0, lsl #2

Disassembly of section .debug_abbrev:

00000000 <.debug_abbrev>:
   0:	10001101 	andne	r1, r0, r1, lsl #2
   4:	12011106 	andne	r1, r1, #-2147483647	; 0x80000001
   8:	1b080301 	blne	200c14 <__bss_end+0x1f7c0c>
   c:	13082508 	movwne	r2, #34056	; 0x8508
  10:	00000005 	andeq	r0, r0, r5
  14:	25011101 	strcs	r1, [r1, #-257]	; 0x101
  18:	030b130e 	movweq	r1, #45838	; 0xb30e
  1c:	110e1b0e 	tstne	lr, lr, lsl #22
  20:	10011201 	andne	r1, r1, r1, lsl #4
  24:	02000006 	andeq	r0, r0, #6
  28:	0b0b0024 	bleq	2c00c0 <__bss_end+0x2b70b8>
  2c:	0e030b3e 	vmoveq.16	d3[0], r0
  30:	24030000 	strcs	r0, [r3], #-0
  34:	3e0b0b00 	vmlacc.f64	d0, d11, d0
  38:	0008030b 	andeq	r0, r8, fp, lsl #6
  3c:	012e0400 	teqeq	lr, r0, lsl #8
  40:	0e030c3f 	mcreq	12, 0, r0, cr3, cr15, {1}
  44:	0b3b0b3a 	bleq	ec2d34 <__bss_end+0xeb9d2c>
  48:	01120111 	tsteq	r2, r1, lsl r1
  4c:	42960640 	addsmi	r0, r6, #67108864	; 0x4000000
  50:	0013010c 	andseq	r0, r3, ip, lsl #2
  54:	00340500 	eorseq	r0, r4, r0, lsl #10
  58:	0b3a0803 	bleq	e8206c <__bss_end+0xe79064>
  5c:	13490b3b 	movtne	r0, #39739	; 0x9b3b
  60:	00000a02 	andeq	r0, r0, r2, lsl #20
  64:	3f002e06 	svccc	0x00002e06
  68:	3a0e030c 	bcc	380ca0 <__bss_end+0x377c98>
  6c:	270b3b0b 	strcs	r3, [fp, -fp, lsl #22]
  70:	1113490c 	tstne	r3, ip, lsl #18
  74:	40011201 	andmi	r1, r1, r1, lsl #4
  78:	0c429606 	mcrreq	6, 0, r9, r2, cr6
  7c:	01000000 	mrseq	r0, (UNDEF: 0)
  80:	0e250111 	mcreq	1, 1, r0, cr5, cr1, {0}
  84:	0e030b13 	vmoveq.32	d3[0], r0
  88:	01110e1b 	tsteq	r1, fp, lsl lr
  8c:	06100112 			; <UNDEFINED> instruction: 0x06100112
  90:	24020000 	strcs	r0, [r2], #-0
  94:	3e0b0b00 	vmlacc.f64	d0, d11, d0
  98:	000e030b 	andeq	r0, lr, fp, lsl #6
  9c:	00160300 	andseq	r0, r6, r0, lsl #6
  a0:	0b3a0e03 	bleq	e838b4 <__bss_end+0xe7a8ac>
  a4:	13490b3b 	movtne	r0, #39739	; 0x9b3b
  a8:	13040000 	movwne	r0, #16384	; 0x4000
  ac:	0b0e0301 	bleq	380cb8 <__bss_end+0x377cb0>
  b0:	3b0b3a0b 	blcc	2ce8e4 <__bss_end+0x2c58dc>
  b4:	0013010b 	andseq	r0, r3, fp, lsl #2
  b8:	000d0500 	andeq	r0, sp, r0, lsl #10
  bc:	0b3a0e03 	bleq	e838d0 <__bss_end+0xe7a8c8>
  c0:	13490b3b 	movtne	r0, #39739	; 0x9b3b
  c4:	00000a38 	andeq	r0, r0, r8, lsr sl
  c8:	49010106 	stmdbmi	r1, {r1, r2, r8}
  cc:	00130113 	andseq	r0, r3, r3, lsl r1
  d0:	00210700 	eoreq	r0, r1, r0, lsl #14
  d4:	00001349 	andeq	r1, r0, r9, asr #6
  d8:	0b000f08 	bleq	3d00 <_start-0x4300>
  dc:	0013490b 	andseq	r4, r3, fp, lsl #18
  e0:	012e0900 	teqeq	lr, r0, lsl #18
  e4:	0e030c3f 	mcreq	12, 0, r0, cr3, cr15, {1}
  e8:	0b3b0b3a 	bleq	ec2dd8 <__bss_end+0xeb9dd0>
  ec:	13490c27 	movtne	r0, #39975	; 0x9c27
  f0:	01120111 	tsteq	r2, r1, lsl r1
  f4:	42970640 	addsmi	r0, r7, #67108864	; 0x4000000
  f8:	0013010c 	andseq	r0, r3, ip, lsl #2
  fc:	00050a00 	andeq	r0, r5, r0, lsl #20
 100:	0b3a0803 	bleq	e82114 <__bss_end+0xe7910c>
 104:	13490b3b 	movtne	r0, #39739	; 0x9b3b
 108:	00000a02 	andeq	r0, r0, r2, lsl #20
 10c:	3f012e0b 	svccc	0x00012e0b
 110:	3a0e030c 	bcc	380d48 <__bss_end+0x377d40>
 114:	270b3b0b 	strcs	r3, [fp, -fp, lsl #22]
 118:	1201110c 	andne	r1, r1, #3
 11c:	97064001 	strls	r4, [r6, -r1]
 120:	13010c42 	movwne	r0, #7234	; 0x1c42
 124:	340c0000 	strcc	r0, [ip], #-0
 128:	3a0e0300 	bcc	380d30 <__bss_end+0x377d28>
 12c:	490b3b0b 	stmdbmi	fp, {r0, r1, r3, r8, r9, fp, ip, sp}
 130:	000a0213 	andeq	r0, sl, r3, lsl r2
 134:	000f0d00 	andeq	r0, pc, r0, lsl #26
 138:	00000b0b 	andeq	r0, r0, fp, lsl #22
 13c:	3f012e0e 	svccc	0x00012e0e
 140:	3a0e030c 	bcc	380d78 <__bss_end+0x377d70>
 144:	270b3b0b 	strcs	r3, [fp, -fp, lsl #22]
 148:	1201110c 	andne	r1, r1, #3
 14c:	96064001 	strls	r4, [r6], -r1
 150:	13010c42 	movwne	r0, #7234	; 0x1c42
 154:	340f0000 	strcc	r0, [pc], #-0	; 15c <_start-0x7ea4>
 158:	3a080300 	bcc	200d60 <__bss_end+0x1f7d58>
 15c:	490b3b0b 	stmdbmi	fp, {r0, r1, r3, r8, r9, fp, ip, sp}
 160:	000a0213 	andeq	r0, sl, r3, lsl r2
 164:	00051000 	andeq	r1, r5, r0
 168:	0b3a0e03 	bleq	e8397c <__bss_end+0xe7a974>
 16c:	13490b3b 	movtne	r0, #39739	; 0x9b3b
 170:	00000a02 	andeq	r0, r0, r2, lsl #20
 174:	3f012e11 	svccc	0x00012e11
 178:	3a0e030c 	bcc	380db0 <__bss_end+0x377da8>
 17c:	270b3b0b 	strcs	r3, [fp, -fp, lsl #22]
 180:	1113490c 	tstne	r3, ip, lsl #18
 184:	40011201 	andmi	r1, r1, r1, lsl #4
 188:	0c429606 	mcrreq	6, 0, r9, r2, cr6
 18c:	00001301 	andeq	r1, r0, r1, lsl #6
 190:	3f002e12 	svccc	0x00002e12
 194:	3a0e030c 	bcc	380dcc <__bss_end+0x377dc4>
 198:	490b3b0b 	stmdbmi	fp, {r0, r1, r3, r8, r9, fp, ip, sp}
 19c:	12011113 	andne	r1, r1, #-1073741820	; 0xc0000004
 1a0:	970a4001 	strls	r4, [sl, -r1]
 1a4:	00000c42 	andeq	r0, r0, r2, asr #24
 1a8:	03003413 	movweq	r3, #1043	; 0x413
 1ac:	3b0b3a0e 	blcc	2ce9ec <__bss_end+0x2c59e4>
 1b0:	3f13490b 	svccc	0x0013490b
 1b4:	000a020c 	andeq	r0, sl, ip, lsl #4
 1b8:	11010000 	mrsne	r0, (UNDEF: 1)
 1bc:	130e2501 	movwne	r2, #58625	; 0xe501
 1c0:	1b0e030b 	blne	380df4 <__bss_end+0x377dec>
 1c4:	1201110e 	andne	r1, r1, #-2147483645	; 0x80000003
 1c8:	00061001 	andeq	r1, r6, r1
 1cc:	00240200 	eoreq	r0, r4, r0, lsl #4
 1d0:	0b3e0b0b 	bleq	f82e04 <__bss_end+0xf79dfc>
 1d4:	00000e03 	andeq	r0, r0, r3, lsl #28
 1d8:	3f012e03 	svccc	0x00012e03
 1dc:	3a0e030c 	bcc	380e14 <__bss_end+0x377e0c>
 1e0:	110b3b0b 	tstne	fp, fp, lsl #22
 1e4:	40011201 	andmi	r1, r1, r1, lsl #4
 1e8:	0c429606 	mcrreq	6, 0, r9, r2, cr6
 1ec:	00001301 	andeq	r1, r0, r1, lsl #6
 1f0:	03003404 	movweq	r3, #1028	; 0x404
 1f4:	3b0b3a08 	blcc	2cea1c <__bss_end+0x2c5a14>
 1f8:	0213490b 	andseq	r4, r3, #180224	; 0x2c000
 1fc:	0500000a 	streq	r0, [r0, #-10]
 200:	0c3f002e 	ldceq	0, cr0, [pc], #-184	; 150 <_start-0x7eb0>
 204:	0b3a0e03 	bleq	e83a18 <__bss_end+0xe7aa10>
 208:	01110b3b 	tsteq	r1, fp, lsr fp
 20c:	06400112 			; <UNDEFINED> instruction: 0x06400112
 210:	000c4296 	muleq	ip, r6, r2
 214:	012e0600 	teqeq	lr, r0, lsl #12
 218:	0e030c3f 	mcreq	12, 0, r0, cr3, cr15, {1}
 21c:	0b3b0b3a 	bleq	ec2f0c <__bss_end+0xeb9f04>
 220:	01120111 	tsteq	r2, r1, lsl r1
 224:	42960640 	addsmi	r0, r6, #67108864	; 0x4000000
 228:	0000000c 	andeq	r0, r0, ip
 22c:	25011101 	strcs	r1, [r1, #-257]	; 0x101
 230:	030b130e 	movweq	r1, #45838	; 0xb30e
 234:	110e1b0e 	tstne	lr, lr, lsl #22
 238:	10011201 	andne	r1, r1, r1, lsl #4
 23c:	02000006 	andeq	r0, r0, #6
 240:	0b0b0024 	bleq	2c02d8 <__bss_end+0x2b72d0>
 244:	0e030b3e 	vmoveq.16	d3[0], r0
 248:	16030000 	strne	r0, [r3], -r0
 24c:	3a0e0300 	bcc	380e54 <__bss_end+0x377e4c>
 250:	490b3b0b 	stmdbmi	fp, {r0, r1, r3, r8, r9, fp, ip, sp}
 254:	04000013 	streq	r0, [r0], #-19
 258:	0b0b0024 	bleq	2c02f0 <__bss_end+0x2b72e8>
 25c:	08030b3e 	stmdaeq	r3, {r1, r2, r3, r4, r5, r8, r9, fp}
 260:	15050000 	strne	r0, [r5, #-0]
 264:	000c2700 	andeq	r2, ip, r0, lsl #14
 268:	01040600 	tsteq	r4, r0, lsl #12
 26c:	0b0b0e03 	bleq	2c3a80 <__bss_end+0x2baa78>
 270:	0b3b0b3a 	bleq	ec2f60 <__bss_end+0xeb9f58>
 274:	00001301 	andeq	r1, r0, r1, lsl #6
 278:	03002807 	movweq	r2, #2055	; 0x807
 27c:	000d1c0e 	andeq	r1, sp, lr, lsl #24
 280:	00280800 	eoreq	r0, r8, r0, lsl #16
 284:	0d1c0803 	ldceq	8, cr0, [ip, #-12]
 288:	13090000 	movwne	r0, #36864	; 0x9000
 28c:	0b0e0301 	bleq	380e98 <__bss_end+0x377e90>
 290:	3b0b3a0b 	blcc	2ceac4 <__bss_end+0x2c5abc>
 294:	0013010b 	andseq	r0, r3, fp, lsl #2
 298:	000d0a00 	andeq	r0, sp, r0, lsl #20
 29c:	0b3a0803 	bleq	e822b0 <__bss_end+0xe792a8>
 2a0:	13490b3b 	movtne	r0, #39739	; 0x9b3b
 2a4:	00000a38 	andeq	r0, r0, r8, lsr sl
 2a8:	03000d0b 	movweq	r0, #3339	; 0xd0b
 2ac:	3b0b3a0e 	blcc	2ceaec <__bss_end+0x2c5ae4>
 2b0:	3813490b 	ldmdacc	r3, {r0, r1, r3, r8, fp, lr}
 2b4:	0c00000a 	stceq	0, cr0, [r0], {10}
 2b8:	0b0b000f 	bleq	2c02fc <__bss_end+0x2b72f4>
 2bc:	00001349 	andeq	r1, r0, r9, asr #6
 2c0:	0b000f0d 	bleq	3efc <_start-0x4104>
 2c4:	0e00000b 	cdpeq	0, 0, cr0, cr0, cr11, {0}
 2c8:	0c3f002e 	ldceq	0, cr0, [pc], #-184	; 218 <_start-0x7de8>
 2cc:	0b3a0e03 	bleq	e83ae0 <__bss_end+0xe7aad8>
 2d0:	01110b3b 	tsteq	r1, fp, lsr fp
 2d4:	06400112 			; <UNDEFINED> instruction: 0x06400112
 2d8:	000c4296 	muleq	ip, r6, r2
 2dc:	012e0f00 	teqeq	lr, r0, lsl #30
 2e0:	0e030c3f 	mcreq	12, 0, r0, cr3, cr15, {1}
 2e4:	0b3b0b3a 	bleq	ec2fd4 <__bss_end+0xeb9fcc>
 2e8:	13490c27 	movtne	r0, #39975	; 0x9c27
 2ec:	01120111 	tsteq	r2, r1, lsl r1
 2f0:	42960640 	addsmi	r0, r6, #67108864	; 0x4000000
 2f4:	0013010c 	andseq	r0, r3, ip, lsl #2
 2f8:	00051000 	andeq	r1, r5, r0
 2fc:	0b3a0803 	bleq	e82310 <__bss_end+0xe79308>
 300:	13490b3b 	movtne	r0, #39739	; 0x9b3b
 304:	00000a02 	andeq	r0, r0, r2, lsl #20
 308:	03000511 	movweq	r0, #1297	; 0x511
 30c:	3b0b3a0e 	blcc	2ceb4c <__bss_end+0x2c5b44>
 310:	0213490b 	andseq	r4, r3, #180224	; 0x2c000
 314:	1200000a 	andne	r0, r0, #10
 318:	08030034 	stmdaeq	r3, {r2, r4, r5}
 31c:	0b3b0b3a 	bleq	ec300c <__bss_end+0xeba004>
 320:	0a021349 	beq	8504c <__bss_end+0x7c044>
 324:	2e130000 	cdpcs	0, 1, cr0, cr3, cr0, {0}
 328:	030c3f01 	movweq	r3, #52993	; 0xcf01
 32c:	3b0b3a0e 	blcc	2ceb6c <__bss_end+0x2c5b64>
 330:	1201110b 	andne	r1, r1, #-1073741822	; 0xc0000002
 334:	96064001 	strls	r4, [r6], -r1
 338:	13010c42 	movwne	r0, #7234	; 0x1c42
 33c:	34140000 	ldrcc	r0, [r4], #-0
 340:	3a0e0300 	bcc	380f48 <__bss_end+0x377f40>
 344:	490b3b0b 	stmdbmi	fp, {r0, r1, r3, r8, r9, fp, ip, sp}
 348:	000a0213 	andeq	r0, sl, r3, lsl r2
 34c:	00341500 	eorseq	r1, r4, r0, lsl #10
 350:	0b3a0e03 	bleq	e83b64 <__bss_end+0xe7ab5c>
 354:	13490b3b 	movtne	r0, #39739	; 0x9b3b
 358:	0a020c3f 	beq	8345c <__bss_end+0x7a454>
 35c:	01000000 	mrseq	r0, (UNDEF: 0)
 360:	0e250111 	mcreq	1, 1, r0, cr5, cr1, {0}
 364:	0e030b13 	vmoveq.32	d3[0], r0
 368:	01110e1b 	tsteq	r1, fp, lsl lr
 36c:	06100112 			; <UNDEFINED> instruction: 0x06100112
 370:	24020000 	strcs	r0, [r2], #-0
 374:	3e0b0b00 	vmlacc.f64	d0, d11, d0
 378:	000e030b 	andeq	r0, lr, fp, lsl #6
 37c:	00160300 	andseq	r0, r6, r0, lsl #6
 380:	0b3a0e03 	bleq	e83b94 <__bss_end+0xe7ab8c>
 384:	13490b3b 	movtne	r0, #39739	; 0x9b3b
 388:	24040000 	strcs	r0, [r4], #-0
 38c:	3e0b0b00 	vmlacc.f64	d0, d11, d0
 390:	0008030b 	andeq	r0, r8, fp, lsl #6
 394:	00150500 	andseq	r0, r5, r0, lsl #10
 398:	00000c27 	andeq	r0, r0, r7, lsr #24
 39c:	03010406 	movweq	r0, #5126	; 0x1406
 3a0:	3a0b0b0e 	bcc	2c2fe0 <__bss_end+0x2b9fd8>
 3a4:	010b3b0b 	tsteq	fp, fp, lsl #22
 3a8:	07000013 	smladeq	r0, r3, r0, r0
 3ac:	0e030028 	cdpeq	0, 0, cr0, cr3, cr8, {1}
 3b0:	00000d1c 	andeq	r0, r0, ip, lsl sp
 3b4:	03002808 	movweq	r2, #2056	; 0x808
 3b8:	000d1c08 	andeq	r1, sp, r8, lsl #24
 3bc:	01130900 	tsteq	r3, r0, lsl #18
 3c0:	0b0b0e03 	bleq	2c3bd4 <__bss_end+0x2babcc>
 3c4:	0b3b0b3a 	bleq	ec30b4 <__bss_end+0xeba0ac>
 3c8:	00001301 	andeq	r1, r0, r1, lsl #6
 3cc:	03000d0a 	movweq	r0, #3338	; 0xd0a
 3d0:	3b0b3a08 	blcc	2cebf8 <__bss_end+0x2c5bf0>
 3d4:	3813490b 	ldmdacc	r3, {r0, r1, r3, r8, fp, lr}
 3d8:	0b00000a 	bleq	408 <_start-0x7bf8>
 3dc:	0e03000d 	cdpeq	0, 0, cr0, cr3, cr13, {0}
 3e0:	0b3b0b3a 	bleq	ec30d0 <__bss_end+0xeba0c8>
 3e4:	0a381349 	beq	e05110 <__bss_end+0xdfc108>
 3e8:	0f0c0000 	svceq	0x000c0000
 3ec:	490b0b00 	stmdbmi	fp, {r8, r9, fp}
 3f0:	0d000013 	stceq	0, cr0, [r0, #-76]	; 0xffffffb4
 3f4:	0b0b000f 	bleq	2c0438 <__bss_end+0x2b7430>
 3f8:	2e0e0000 	cdpcs	0, 0, cr0, cr14, cr0, {0}
 3fc:	030c3f00 	movweq	r3, #52992	; 0xcf00
 400:	3b0b3a0e 	blcc	2cec40 <__bss_end+0x2c5c38>
 404:	110c270b 	tstne	ip, fp, lsl #14
 408:	40011201 	andmi	r1, r1, r1, lsl #4
 40c:	0c42960a 	mcrreq	6, 0, r9, r2, cr10
 410:	340f0000 	strcc	r0, [pc], #-0	; 418 <_start-0x7be8>
 414:	3a0e0300 	bcc	38101c <__bss_end+0x378014>
 418:	490b3b0b 	stmdbmi	fp, {r0, r1, r3, r8, r9, fp, ip, sp}
 41c:	3c0c3f13 	stccc	15, cr3, [ip], {19}
 420:	0000000c 	andeq	r0, r0, ip
 424:	25011101 	strcs	r1, [r1, #-257]	; 0x101
 428:	030b130e 	movweq	r1, #45838	; 0xb30e
 42c:	110e1b0e 	tstne	lr, lr, lsl #22
 430:	10011201 	andne	r1, r1, r1, lsl #4
 434:	02000006 	andeq	r0, r0, #6
 438:	0b0b0024 	bleq	2c04d0 <__bss_end+0x2b74c8>
 43c:	0e030b3e 	vmoveq.16	d3[0], r0
 440:	16030000 	strne	r0, [r3], -r0
 444:	3a0e0300 	bcc	38104c <__bss_end+0x378044>
 448:	490b3b0b 	stmdbmi	fp, {r0, r1, r3, r8, r9, fp, ip, sp}
 44c:	04000013 	streq	r0, [r0], #-19
 450:	0b0b0024 	bleq	2c04e8 <__bss_end+0x2b74e0>
 454:	08030b3e 	stmdaeq	r3, {r1, r2, r3, r4, r5, r8, r9, fp}
 458:	15050000 	strne	r0, [r5, #-0]
 45c:	000c2700 	andeq	r2, ip, r0, lsl #14
 460:	01040600 	tsteq	r4, r0, lsl #12
 464:	0b0b0e03 	bleq	2c3c78 <__bss_end+0x2bac70>
 468:	0b3b0b3a 	bleq	ec3158 <__bss_end+0xeba150>
 46c:	00001301 	andeq	r1, r0, r1, lsl #6
 470:	03002807 	movweq	r2, #2055	; 0x807
 474:	000d1c0e 	andeq	r1, sp, lr, lsl #24
 478:	00280800 	eoreq	r0, r8, r0, lsl #16
 47c:	0d1c0803 	ldceq	8, cr0, [ip, #-12]
 480:	13090000 	movwne	r0, #36864	; 0x9000
 484:	0b0e0301 	bleq	381090 <__bss_end+0x378088>
 488:	3b0b3a0b 	blcc	2cecbc <__bss_end+0x2c5cb4>
 48c:	0013010b 	andseq	r0, r3, fp, lsl #2
 490:	000d0a00 	andeq	r0, sp, r0, lsl #20
 494:	0b3a0803 	bleq	e824a8 <__bss_end+0xe794a0>
 498:	13490b3b 	movtne	r0, #39739	; 0x9b3b
 49c:	00000a38 	andeq	r0, r0, r8, lsr sl
 4a0:	03000d0b 	movweq	r0, #3339	; 0xd0b
 4a4:	3b0b3a0e 	blcc	2cece4 <__bss_end+0x2c5cdc>
 4a8:	3813490b 	ldmdacc	r3, {r0, r1, r3, r8, fp, lr}
 4ac:	0c00000a 	stceq	0, cr0, [r0], {10}
 4b0:	0b0b000f 	bleq	2c04f4 <__bss_end+0x2b74ec>
 4b4:	00001349 	andeq	r1, r0, r9, asr #6
 4b8:	0b000f0d 	bleq	40f4 <_start-0x3f0c>
 4bc:	0e00000b 	cdpeq	0, 0, cr0, cr0, cr11, {0}
 4c0:	0c3f012e 	ldfeqs	f0, [pc], #-184	; 410 <_start-0x7bf0>
 4c4:	0b3a0e03 	bleq	e83cd8 <__bss_end+0xe7acd0>
 4c8:	0c270b3b 	stceq	11, cr0, [r7], #-236	; 0xffffff14
 4cc:	01120111 	tsteq	r2, r1, lsl r1
 4d0:	42960640 	addsmi	r0, r6, #67108864	; 0x4000000
 4d4:	0013010c 	andseq	r0, r3, ip, lsl #2
 4d8:	00050f00 	andeq	r0, r5, r0, lsl #30
 4dc:	0b3a0803 	bleq	e824f0 <__bss_end+0xe794e8>
 4e0:	13490b3b 	movtne	r0, #39739	; 0x9b3b
 4e4:	00000a02 	andeq	r0, r0, r2, lsl #20
 4e8:	11010b10 	tstne	r1, r0, lsl fp
 4ec:	00011201 	andeq	r1, r1, r1, lsl #4
 4f0:	00341100 	eorseq	r1, r4, r0, lsl #2
 4f4:	0b3a0e03 	bleq	e83d08 <__bss_end+0xe7ad00>
 4f8:	13490b3b 	movtne	r0, #39739	; 0x9b3b
 4fc:	00000a02 	andeq	r0, r0, r2, lsl #20
 500:	03000512 	movweq	r0, #1298	; 0x512
 504:	3b0b3a0e 	blcc	2ced44 <__bss_end+0x2c5d3c>
 508:	0213490b 	andseq	r4, r3, #180224	; 0x2c000
 50c:	1300000a 	movwne	r0, #10
 510:	0e030034 	mcreq	0, 0, r0, cr3, cr4, {1}
 514:	0b3b0b3a 	bleq	ec3204 <__bss_end+0xeba1fc>
 518:	0c3f1349 	ldceq	3, cr1, [pc], #-292	; 3fc <_start-0x7c04>
 51c:	00000c3c 	andeq	r0, r0, ip, lsr ip
	...

Disassembly of section .debug_aranges:

00000000 <.debug_aranges>:
   0:	0000001c 	andeq	r0, r0, ip, lsl r0
   4:	00000002 	andeq	r0, r0, r2
   8:	00040000 	andeq	r0, r4, r0
   c:	00000000 	andeq	r0, r0, r0
  10:	00008000 	andeq	r8, r0, r0
  14:	000000d0 	ldrdeq	r0, [r0], -r0	; <UNPREDICTABLE>
	...
  20:	0000001c 	andeq	r0, r0, ip, lsl r0
  24:	00690002 	rsbeq	r0, r9, r2
  28:	00040000 	andeq	r0, r4, r0
  2c:	00000000 	andeq	r0, r0, r0
  30:	000080d0 	ldrdeq	r8, [r0], -r0
  34:	000000fc 	strdeq	r0, [r0], -ip
	...
  40:	0000001c 	andeq	r0, r0, ip, lsl r0
  44:	01420002 	cmpeq	r2, r2
  48:	00040000 	andeq	r0, r4, r0
  4c:	00000000 	andeq	r0, r0, r0
  50:	000081cc 	andeq	r8, r0, ip, asr #3
  54:	000005c8 	andeq	r0, r0, r8, asr #11
	...
  60:	0000001c 	andeq	r0, r0, ip, lsl r0
  64:	05730002 	ldrbeq	r0, [r3, #-2]!
  68:	00040000 	andeq	r0, r4, r0
  6c:	00000000 	andeq	r0, r0, r0
  70:	00008794 	muleq	r0, r4, r7
  74:	00000130 	andeq	r0, r0, r0, lsr r1
	...
  80:	0000001c 	andeq	r0, r0, ip, lsl r0
  84:	062f0002 	strteq	r0, [pc], -r2
  88:	00040000 	andeq	r0, r4, r0
  8c:	00000000 	andeq	r0, r0, r0
  90:	000088c4 	andeq	r8, r0, r4, asr #17
  94:	00000364 	andeq	r0, r0, r4, ror #6
	...
  a0:	0000001c 	andeq	r0, r0, ip, lsl r0
  a4:	08a00002 	stmiaeq	r0!, {r1}
  a8:	00040000 	andeq	r0, r4, r0
  ac:	00000000 	andeq	r0, r0, r0
  b0:	00008c28 	andeq	r8, r0, r8, lsr #24
  b4:	00000074 	andeq	r0, r0, r4, ror r0
	...
  c0:	0000001c 	andeq	r0, r0, ip, lsl r0
  c4:	09fa0002 	ldmibeq	sl!, {r1}^
  c8:	00040000 	andeq	r0, r4, r0
  cc:	00000000 	andeq	r0, r0, r0
  d0:	00008c9c 	muleq	r0, ip, ip
  d4:	00000340 	andeq	r0, r0, r0, asr #6
	...

Disassembly of section .debug_loc:

00000000 <.debug_loc>:
   0:	00000000 	andeq	r0, r0, r0
   4:	00000004 	andeq	r0, r0, r4
   8:	007d0002 	rsbseq	r0, sp, r2
   c:	00000004 	andeq	r0, r0, r4
  10:	00000008 	andeq	r0, r0, r8
  14:	047d0002 	ldrbteq	r0, [sp], #-2
  18:	00000008 	andeq	r0, r0, r8
  1c:	00000054 	andeq	r0, r0, r4, asr r0
  20:	107d0002 	rsbsne	r0, sp, r2
	...
  2c:	00000054 	andeq	r0, r0, r4, asr r0
  30:	00000058 	andeq	r0, r0, r8, asr r0
  34:	007d0002 	rsbseq	r0, sp, r2
  38:	00000058 	andeq	r0, r0, r8, asr r0
  3c:	0000005c 	andeq	r0, r0, ip, asr r0
  40:	047d0002 	ldrbteq	r0, [sp], #-2
  44:	0000005c 	andeq	r0, r0, ip, asr r0
  48:	000000a8 	andeq	r0, r0, r8, lsr #1
  4c:	107d0002 	rsbsne	r0, sp, r2
	...
  58:	000000a8 	andeq	r0, r0, r8, lsr #1
  5c:	000000ac 	andeq	r0, r0, ip, lsr #1
  60:	007d0002 	rsbseq	r0, sp, r2
  64:	000000ac 	andeq	r0, r0, ip, lsr #1
  68:	000000fc 	strdeq	r0, [r0], -ip
  6c:	087d0002 	ldmdaeq	sp!, {r1}^
	...
  7c:	00000004 	andeq	r0, r0, r4
  80:	007d0002 	rsbseq	r0, sp, r2
  84:	00000004 	andeq	r0, r0, r4
  88:	0000001c 	andeq	r0, r0, ip, lsl r0
  8c:	087d0002 	ldmdaeq	sp!, {r1}^
	...
  98:	0000001c 	andeq	r0, r0, ip, lsl r0
  9c:	00000020 	andeq	r0, r0, r0, lsr #32
  a0:	007d0002 	rsbseq	r0, sp, r2
  a4:	00000020 	andeq	r0, r0, r0, lsr #32
  a8:	00000098 	muleq	r0, r8, r0
  ac:	107d0002 	rsbsne	r0, sp, r2
	...
  b8:	00000098 	muleq	r0, r8, r0
  bc:	0000009c 	muleq	r0, ip, r0
  c0:	007d0002 	rsbseq	r0, sp, r2
  c4:	0000009c 	muleq	r0, ip, r0
  c8:	000000a0 	andeq	r0, r0, r0, lsr #1
  cc:	047d0002 	ldrbteq	r0, [sp], #-2
  d0:	000000a0 	andeq	r0, r0, r0, lsr #1
  d4:	0000015c 	andeq	r0, r0, ip, asr r1
  d8:	207d0002 	rsbscs	r0, sp, r2
	...
  e4:	0000015c 	andeq	r0, r0, ip, asr r1
  e8:	00000160 	andeq	r0, r0, r0, ror #2
  ec:	007d0002 	rsbseq	r0, sp, r2
  f0:	00000160 	andeq	r0, r0, r0, ror #2
  f4:	000001cc 	andeq	r0, r0, ip, asr #3
  f8:	107d0002 	rsbsne	r0, sp, r2
	...
 104:	000001cc 	andeq	r0, r0, ip, asr #3
 108:	000001d0 	ldrdeq	r0, [r0], -r0	; <UNPREDICTABLE>
 10c:	007d0002 	rsbseq	r0, sp, r2
 110:	000001d0 	ldrdeq	r0, [r0], -r0	; <UNPREDICTABLE>
 114:	00000228 	andeq	r0, r0, r8, lsr #4
 118:	087d0002 	ldmdaeq	sp!, {r1}^
	...
 124:	00000228 	andeq	r0, r0, r8, lsr #4
 128:	0000022c 	andeq	r0, r0, ip, lsr #4
 12c:	007d0002 	rsbseq	r0, sp, r2
 130:	0000022c 	andeq	r0, r0, ip, lsr #4
 134:	00000284 	andeq	r0, r0, r4, lsl #5
 138:	087d0002 	ldmdaeq	sp!, {r1}^
	...
 144:	00000284 	andeq	r0, r0, r4, lsl #5
 148:	00000288 	andeq	r0, r0, r8, lsl #5
 14c:	007d0002 	rsbseq	r0, sp, r2
 150:	00000288 	andeq	r0, r0, r8, lsl #5
 154:	0000028c 	andeq	r0, r0, ip, lsl #5
 158:	047d0002 	ldrbteq	r0, [sp], #-2
 15c:	0000028c 	andeq	r0, r0, ip, lsl #5
 160:	00000370 	andeq	r0, r0, r0, ror r3
 164:	207d0002 	rsbscs	r0, sp, r2
	...
 170:	00000370 	andeq	r0, r0, r0, ror r3
 174:	00000374 	andeq	r0, r0, r4, ror r3
 178:	007d0002 	rsbseq	r0, sp, r2
 17c:	00000374 	andeq	r0, r0, r4, ror r3
 180:	000003c4 	andeq	r0, r0, r4, asr #7
 184:	107d0002 	rsbsne	r0, sp, r2
	...
 190:	000003c4 	andeq	r0, r0, r4, asr #7
 194:	000003c8 	andeq	r0, r0, r8, asr #7
 198:	007d0002 	rsbseq	r0, sp, r2
 19c:	000003c8 	andeq	r0, r0, r8, asr #7
 1a0:	000003cc 	andeq	r0, r0, ip, asr #7
 1a4:	047d0002 	ldrbteq	r0, [sp], #-2
 1a8:	000003cc 	andeq	r0, r0, ip, asr #7
 1ac:	000004b8 			; <UNDEFINED> instruction: 0x000004b8
 1b0:	207d0002 	rsbscs	r0, sp, r2
	...
 1bc:	000004d0 	ldrdeq	r0, [r0], -r0	; <UNPREDICTABLE>
 1c0:	000004d4 	ldrdeq	r0, [r0], -r4
 1c4:	007d0002 	rsbseq	r0, sp, r2
 1c8:	000004d4 	ldrdeq	r0, [r0], -r4
 1cc:	000005c8 	andeq	r0, r0, r8, asr #11
 1d0:	307d0002 	rsbscc	r0, sp, r2
	...
 1e0:	00000004 	andeq	r0, r0, r4
 1e4:	007d0002 	rsbseq	r0, sp, r2
 1e8:	00000004 	andeq	r0, r0, r4
 1ec:	00000008 	andeq	r0, r0, r8
 1f0:	047d0002 	ldrbteq	r0, [sp], #-2
 1f4:	00000008 	andeq	r0, r0, r8
 1f8:	0000004c 	andeq	r0, r0, ip, asr #32
 1fc:	107d0002 	rsbsne	r0, sp, r2
	...
 208:	0000004c 	andeq	r0, r0, ip, asr #32
 20c:	00000050 	andeq	r0, r0, r0, asr r0
 210:	007d0002 	rsbseq	r0, sp, r2
 214:	00000050 	andeq	r0, r0, r0, asr r0
 218:	00000064 	andeq	r0, r0, r4, rrx
 21c:	087d0002 	ldmdaeq	sp!, {r1}^
	...
 228:	00000064 	andeq	r0, r0, r4, rrx
 22c:	00000068 	andeq	r0, r0, r8, rrx
 230:	007d0002 	rsbseq	r0, sp, r2
 234:	00000068 	andeq	r0, r0, r8, rrx
 238:	0000007c 	andeq	r0, r0, ip, ror r0
 23c:	087d0002 	ldmdaeq	sp!, {r1}^
	...
 248:	0000007c 	andeq	r0, r0, ip, ror r0
 24c:	00000080 	andeq	r0, r0, r0, lsl #1
 250:	007d0002 	rsbseq	r0, sp, r2
 254:	00000080 	andeq	r0, r0, r0, lsl #1
 258:	00000084 	andeq	r0, r0, r4, lsl #1
 25c:	047d0002 	ldrbteq	r0, [sp], #-2
 260:	00000084 	andeq	r0, r0, r4, lsl #1
 264:	00000130 	andeq	r0, r0, r0, lsr r1
 268:	107d0002 	rsbsne	r0, sp, r2
	...
 278:	00000004 	andeq	r0, r0, r4
 27c:	007d0002 	rsbseq	r0, sp, r2
 280:	00000004 	andeq	r0, r0, r4
 284:	00000040 	andeq	r0, r0, r0, asr #32
 288:	087d0002 	ldmdaeq	sp!, {r1}^
	...
 294:	00000040 	andeq	r0, r0, r0, asr #32
 298:	00000044 	andeq	r0, r0, r4, asr #32
 29c:	007d0002 	rsbseq	r0, sp, r2
 2a0:	00000044 	andeq	r0, r0, r4, asr #32
 2a4:	00000048 	andeq	r0, r0, r8, asr #32
 2a8:	047d0002 	ldrbteq	r0, [sp], #-2
 2ac:	00000048 	andeq	r0, r0, r8, asr #32
 2b0:	0000010c 	andeq	r0, r0, ip, lsl #2
 2b4:	187d0002 	ldmdane	sp!, {r1}^
	...
 2c0:	0000010c 	andeq	r0, r0, ip, lsl #2
 2c4:	00000110 	andeq	r0, r0, r0, lsl r1
 2c8:	007d0002 	rsbseq	r0, sp, r2
 2cc:	00000110 	andeq	r0, r0, r0, lsl r1
 2d0:	00000114 	andeq	r0, r0, r4, lsl r1
 2d4:	047d0002 	ldrbteq	r0, [sp], #-2
 2d8:	00000114 	andeq	r0, r0, r4, lsl r1
 2dc:	000001a8 	andeq	r0, r0, r8, lsr #3
 2e0:	187d0002 	ldmdane	sp!, {r1}^
	...
 2ec:	000001a8 	andeq	r0, r0, r8, lsr #3
 2f0:	000001ac 	andeq	r0, r0, ip, lsr #3
 2f4:	007d0002 	rsbseq	r0, sp, r2
 2f8:	000001ac 	andeq	r0, r0, ip, lsr #3
 2fc:	000001b0 			; <UNDEFINED> instruction: 0x000001b0
 300:	047d0002 	ldrbteq	r0, [sp], #-2
 304:	000001b0 			; <UNDEFINED> instruction: 0x000001b0
 308:	00000310 	andeq	r0, r0, r0, lsl r3
 30c:	107d0002 	rsbsne	r0, sp, r2
	...
 318:	00000310 	andeq	r0, r0, r0, lsl r3
 31c:	00000314 	andeq	r0, r0, r4, lsl r3
 320:	007d0002 	rsbseq	r0, sp, r2
 324:	00000314 	andeq	r0, r0, r4, lsl r3
 328:	0000031c 	andeq	r0, r0, ip, lsl r3
 32c:	087d0002 	ldmdaeq	sp!, {r1}^
	...
 338:	0000031c 	andeq	r0, r0, ip, lsl r3
 33c:	00000320 	andeq	r0, r0, r0, lsr #6
 340:	007d0002 	rsbseq	r0, sp, r2
 344:	00000320 	andeq	r0, r0, r0, lsr #6
 348:	00000364 	andeq	r0, r0, r4, ror #6
 34c:	087d0002 	ldmdaeq	sp!, {r1}^
	...
 35c:	00000004 	andeq	r0, r0, r4
 360:	007d0002 	rsbseq	r0, sp, r2
 364:	00000004 	andeq	r0, r0, r4
 368:	00000008 	andeq	r0, r0, r8
 36c:	047d0002 	ldrbteq	r0, [sp], #-2
 370:	00000008 	andeq	r0, r0, r8
 374:	0000005c 	andeq	r0, r0, ip, asr r0
 378:	107d0002 	rsbsne	r0, sp, r2
	...
 384:	0000005c 	andeq	r0, r0, ip, asr r0
 388:	00000060 	andeq	r0, r0, r0, rrx
 38c:	007d0002 	rsbseq	r0, sp, r2
 390:	00000060 	andeq	r0, r0, r0, rrx
 394:	00000064 	andeq	r0, r0, r4, rrx
 398:	047d0002 	ldrbteq	r0, [sp], #-2
 39c:	00000064 	andeq	r0, r0, r4, rrx
 3a0:	00000104 	andeq	r0, r0, r4, lsl #2
 3a4:	187d0002 	ldmdane	sp!, {r1}^
	...
 3b0:	00000104 	andeq	r0, r0, r4, lsl #2
 3b4:	00000108 	andeq	r0, r0, r8, lsl #2
 3b8:	007d0002 	rsbseq	r0, sp, r2
 3bc:	00000108 	andeq	r0, r0, r8, lsl #2
 3c0:	0000010c 	andeq	r0, r0, ip, lsl #2
 3c4:	047d0002 	ldrbteq	r0, [sp], #-2
 3c8:	0000010c 	andeq	r0, r0, ip, lsl #2
 3cc:	0000022c 	andeq	r0, r0, ip, lsr #4
 3d0:	187d0002 	ldmdane	sp!, {r1}^
	...
 3dc:	0000022c 	andeq	r0, r0, ip, lsr #4
 3e0:	00000230 	andeq	r0, r0, r0, lsr r2
 3e4:	007d0002 	rsbseq	r0, sp, r2
 3e8:	00000230 	andeq	r0, r0, r0, lsr r2
 3ec:	00000234 	andeq	r0, r0, r4, lsr r2
 3f0:	047d0002 	ldrbteq	r0, [sp], #-2
 3f4:	00000234 	andeq	r0, r0, r4, lsr r2
 3f8:	00000278 	andeq	r0, r0, r8, ror r2
 3fc:	107d0002 	rsbsne	r0, sp, r2
	...
 408:	00000278 	andeq	r0, r0, r8, ror r2
 40c:	0000027c 	andeq	r0, r0, ip, ror r2
 410:	007d0002 	rsbseq	r0, sp, r2
 414:	0000027c 	andeq	r0, r0, ip, ror r2
 418:	00000280 	andeq	r0, r0, r0, lsl #5
 41c:	047d0002 	ldrbteq	r0, [sp], #-2
 420:	00000280 	andeq	r0, r0, r0, lsl #5
 424:	000002d8 	ldrdeq	r0, [r0], -r8
 428:	107d0002 	rsbsne	r0, sp, r2
	...
 434:	000002d8 	ldrdeq	r0, [r0], -r8
 438:	000002dc 	ldrdeq	r0, [r0], -ip
 43c:	007d0002 	rsbseq	r0, sp, r2
 440:	000002dc 	ldrdeq	r0, [r0], -ip
 444:	000002e0 	andeq	r0, r0, r0, ror #5
 448:	047d0002 	ldrbteq	r0, [sp], #-2
 44c:	000002e0 	andeq	r0, r0, r0, ror #5
 450:	00000340 	andeq	r0, r0, r0, asr #6
 454:	107d0002 	rsbsne	r0, sp, r2
	...

Disassembly of section .debug_str:

00000000 <.debug_str>:
   0:	6e72656b 	cdpvs	5, 7, cr6, cr2, cr11, {3}
   4:	632e6c65 	teqvs	lr, #25856	; 0x6500
   8:	736e7500 	cmnvc	lr, #0
   c:	656e6769 	strbvs	r6, [lr, #-1897]!	; 0x769
  10:	68632064 	stmdavs	r3!, {r2, r5, r6, sp}^
  14:	73007261 	movwvc	r7, #609	; 0x261
  18:	74726f68 	ldrbtvc	r6, [r2], #-3944	; 0xf68
  1c:	736e7520 	cmnvc	lr, #134217728	; 0x8000000
  20:	656e6769 	strbvs	r6, [lr, #-1897]!	; 0x769
  24:	6e692064 	cdpvs	0, 6, cr2, cr9, cr4, {3}
  28:	74730074 	ldrbtvc	r0, [r3], #-116	; 0x74
  2c:	5f747261 	svcpl	0x00747261
  30:	6e72656b 	cdpvs	5, 7, cr6, cr2, cr11, {3}
  34:	6c006c65 	stcvs	12, cr6, [r0], {101}	; 0x65
  38:	20676e6f 	rsbcs	r6, r7, pc, ror #28
  3c:	676e6f6c 	strbvs	r6, [lr, -ip, ror #30]!
  40:	736e7520 	cmnvc	lr, #134217728	; 0x8000000
  44:	656e6769 	strbvs	r6, [lr, #-1897]!	; 0x769
  48:	6e692064 	cdpvs	0, 6, cr2, cr9, cr4, {3}
  4c:	72700074 	rsbsvc	r0, r0, #116	; 0x74
  50:	7365636f 	cmnvc	r5, #-1140850687	; 0xbc000001
  54:	5f737573 	svcpl	0x00737573
  58:	6f6c0041 	svcvs	0x006c0041
  5c:	6c20676e 	stcvs	7, cr6, [r0], #-440	; 0xfffffe48
  60:	20676e6f 	rsbcs	r6, r7, pc, ror #28
  64:	00746e69 	rsbseq	r6, r4, r9, ror #28
  68:	6d6f682f 	stclvs	8, cr6, [pc, #-188]!	; ffffffb4 <__bss_end+0xffff6fac>
  6c:	6b612f65 	blvs	184be08 <__bss_end+0x1842e00>
  70:	6b686361 	blvs	1a18dfc <__bss_end+0x1a0fdf4>
  74:	2f686361 	svccs	0x00686361
  78:	6b726f77 	blvs	1c9be5c <__bss_end+0x1c92e54>
  7c:	63617073 	cmnvs	r1, #115	; 0x73
  80:	72702f65 	rsbsvc	r2, r0, #404	; 0x194
  84:	7365636f 	cmnvc	r5, #-1140850687	; 0xbc000001
  88:	63732d73 	cmnvs	r3, #7360	; 0x1cc0
  8c:	75646568 	strbvc	r6, [r4, #-1384]!	; 0x568
  90:	2f72656c 	svccs	0x0072656c
  94:	6e696c62 	cdpvs	12, 6, cr6, cr9, cr2, {3}
  98:	676e696b 	strbvs	r6, [lr, -fp, ror #18]!
  9c:	64656c2d 	strbtvs	r6, [r5], #-3117	; 0xc2d
  a0:	554e4700 	strbpl	r4, [lr, #-1792]	; 0x700
  a4:	34204320 	strtcc	r4, [r0], #-800	; 0x320
  a8:	312e372e 	teqcc	lr, lr, lsr #14
  ac:	6f687300 	svcvs	0x00687300
  b0:	69207472 	stmdbvs	r0!, {r1, r4, r5, r6, sl, ip, sp, lr}
  b4:	7000746e 	andvc	r7, r0, lr, ror #8
  b8:	65636f72 	strbvs	r6, [r3, #-3954]!	; 0xf72
  bc:	73757373 	cmnvc	r5, #-872415231	; 0xcc000001
  c0:	6900425f 	stmdbvs	r0, {r0, r1, r2, r3, r4, r6, r9, lr}
  c4:	00747364 	rsbseq	r7, r4, r4, ror #6
  c8:	72727563 	rsbsvc	r7, r2, #415236096	; 0x18c00000
  cc:	6c616d00 	stclvs	13, cr6, [r1], #-0
  d0:	5f636f6c 	svcpl	0x00636f6c
  d4:	6f6c6c61 	svcvs	0x006c6c61
  d8:	656e5f63 	strbvs	r5, [lr, #-3939]!	; 0xf63
  dc:	6e655f77 	mcrvs	15, 3, r5, cr5, cr7, {3}
  e0:	00797274 	rsbseq	r7, r9, r4, ror r2
  e4:	6d6f682f 	stclvs	8, cr6, [pc, #-188]!	; 30 <_start-0x7fd0>
  e8:	6b612f65 	blvs	184be84 <__bss_end+0x1842e7c>
  ec:	6b686361 	blvs	1a18e78 <__bss_end+0x1a0fe70>
  f0:	2f686361 	svccs	0x00686361
  f4:	6b726f77 	blvs	1c9bed8 <__bss_end+0x1c92ed0>
  f8:	63617073 	cmnvs	r1, #115	; 0x73
  fc:	72702f65 	rsbsvc	r2, r0, #404	; 0x194
 100:	7365636f 	cmnvc	r5, #-1140850687	; 0xbc000001
 104:	63732d73 	cmnvs	r3, #7360	; 0x1cc0
 108:	75646568 	strbvc	r6, [r4, #-1384]!	; 0x568
 10c:	2f72656c 	svccs	0x0072656c
 110:	6d00736f 	stcvs	3, cr7, [r0, #-444]	; 0xfffffe44
 114:	6f6c6c61 	svcvs	0x006c6c61
 118:	72665f63 	rsbvc	r5, r6, #396	; 0x18c
 11c:	6c5f6565 	cfldr64vs	mvdx6, [pc], {101}	; 0x65
 120:	00747369 	rsbseq	r7, r4, r9, ror #6
 124:	7466656c 	strbtvc	r6, [r6], #-1388	; 0x56c
 128:	6c616d00 	stclvs	13, cr6, [r1], #-0
 12c:	5f636f6c 	svcpl	0x00636f6c
 130:	70616568 	rsbvc	r6, r1, r8, ror #10
 134:	6d00745f 	cfstrsvs	mvf7, [r0, #-380]	; 0xfffffe84
 138:	6f6c6c61 	svcvs	0x006c6c61
 13c:	72665f63 	rsbvc	r5, r6, #396	; 0x18c
 140:	6d006565 	cfstr32vs	mvfx6, [r0, #-404]	; 0xfffffe6c
 144:	6f6c6c61 	svcvs	0x006c6c61
 148:	6c615f63 	stclvs	15, cr5, [r1], #-396	; 0xfffffe74
 14c:	00636f6c 	rsbeq	r6, r3, ip, ror #30
 150:	6c6c616d 	stfvse	f6, [ip], #-436	; 0xfffffe4c
 154:	675f636f 	ldrbvs	r6, [pc, -pc, ror #6]
 158:	655f7465 	ldrbvs	r7, [pc, #-1125]	; fffffcfb <__bss_end+0xffff6cf3>
 15c:	7972746e 	ldmdbvc	r2!, {r1, r2, r3, r5, r6, sl, ip, sp, lr}^
 160:	74616400 	strbtvc	r6, [r1], #-1024	; 0x400
 164:	73690061 	cmnvc	r9, #97	; 0x61
 168:	69006372 	stmdbvs	r0, {r1, r4, r5, r6, r8, r9, sp, lr}
 16c:	006e656c 	rsbeq	r6, lr, ip, ror #10
 170:	68676972 	stmdavs	r7!, {r1, r4, r5, r6, r8, fp, sp, lr}^
 174:	61700074 	cmnvs	r0, r4, ror r0
 178:	746e6572 	strbtvc	r6, [lr], #-1394	; 0x572
 17c:	72736300 	rsbsvc	r6, r3, #0
 180:	616d0063 	cmnvs	sp, r3, rrx
 184:	636f6c6c 	cmnvs	pc, #27648	; 0x6c00
 188:	6165685f 	cmnvs	r5, pc, asr r8
 18c:	616d0064 	cmnvs	sp, r4, rrx
 190:	636f6c6c 	cmnvs	pc, #27648	; 0x6c00
 194:	6572665f 	ldrbvs	r6, [r2, #-1631]!	; 0x65f
 198:	696c5f65 	stmdbvs	ip!, {r0, r2, r5, r6, r8, r9, sl, fp, ip, lr}^
 19c:	725f7473 	subsvc	r7, pc, #1929379840	; 0x73000000
 1a0:	766f6d65 	strbtvc	r6, [pc], -r5, ror #26
 1a4:	616d0065 	cmnvs	sp, r5, rrx
 1a8:	636f6c6c 	cmnvs	pc, #27648	; 0x6c00
 1ac:	6572665f 	ldrbvs	r6, [r2, #-1631]!	; 0x65f
 1b0:	73696c65 	cmnvc	r9, #25856	; 0x6500
 1b4:	656c5f74 	strbvs	r5, [ip, #-3956]!	; 0xf74
 1b8:	6874676e 	ldmdavs	r4!, {r1, r2, r3, r5, r6, r8, r9, sl, sp, lr}^
 1bc:	6c616d00 	stclvs	13, cr6, [r1], #-0
 1c0:	5f636f6c 	svcpl	0x00636f6c
 1c4:	65657266 	strbvs	r7, [r5, #-614]!	; 0x266
 1c8:	73696c5f 	cmnvc	r9, #24320	; 0x5f00
 1cc:	77735f74 			; <UNDEFINED> instruction: 0x77735f74
 1d0:	75007061 	strvc	r7, [r0, #-97]	; 0x61
 1d4:	33746e69 	cmncc	r4, #1680	; 0x690
 1d8:	616d0032 	cmnvs	sp, r2, lsr r0
 1dc:	636f6c6c 	cmnvs	pc, #27648	; 0x6c00
 1e0:	71656c5f 	cmnvc	r5, pc, asr ip
 1e4:	6c616d00 	stclvs	13, cr6, [r1], #-0
 1e8:	5f636f6c 	svcpl	0x00636f6c
 1ec:	74696e69 	strbtvc	r6, [r9], #-3689	; 0xe69
 1f0:	7a697300 	bvc	1a5cdf8 <__bss_end+0x1a53df0>
 1f4:	70797465 	rsbsvc	r7, r9, r5, ror #8
 1f8:	64630065 	strbtvs	r0, [r3], #-101	; 0x65
 1fc:	6d007473 	cfstrsvs	mvf7, [r0, #-460]	; 0xfffffe34
 200:	70636d65 	rsbvc	r6, r3, r5, ror #26
 204:	69750079 	ldmdbvs	r5!, {r0, r3, r4, r5, r6}^
 208:	0038746e 	eorseq	r7, r8, lr, ror #8
 20c:	6c696174 	stfvse	f6, [r9], #-464	; 0xfffffe30
 210:	6c616d00 	stclvs	13, cr6, [r1], #-0
 214:	5f636f6c 	svcpl	0x00636f6c
 218:	6500656c 	strvs	r6, [r0, #-1388]	; 0x56c
 21c:	6972746e 	ldmdbvs	r2!, {r1, r2, r3, r5, r6, sl, ip, sp, lr}^
 220:	6d007365 	stcvs	3, cr7, [r0, #-404]	; 0xfffffe6c
 224:	6f6c6c61 	svcvs	0x006c6c61
 228:	6e655f63 	cdpvs	15, 6, cr5, cr5, cr3, {3}
 22c:	5f797274 	svcpl	0x00797274
 230:	6c630074 	stclvs	0, cr0, [r3], #-464	; 0xfffffe30
 234:	6d006e65 	stcvs	14, cr6, [r0, #-404]	; 0xfffffe6c
 238:	6f6c6c61 	svcvs	0x006c6c61
 23c:	00632e63 	rsbeq	r2, r3, r3, ror #28
 240:	74696e69 	strbtvc	r6, [r9], #-3689	; 0xe69
 244:	0077685f 	rsbseq	r6, r7, pc, asr r8
 248:	632e7768 	teqvs	lr, #27262976	; 0x1a00000
 24c:	64656c00 	strbtvs	r6, [r5], #-3072	; 0xc00
 250:	006e6f5f 	rsbeq	r6, lr, pc, asr pc
 254:	5f746573 	svcpl	0x00746573
 258:	6b636974 	blvs	18da830 <__bss_end+0x18d1828>
 25c:	646e615f 	strbtvs	r6, [lr], #-351	; 0x15f
 260:	616e655f 	cmnvs	lr, pc, asr r5
 264:	5f656c62 	svcpl	0x00656c62
 268:	656d6974 	strbvs	r6, [sp, #-2420]!	; 0x974
 26c:	656c0072 	strbvs	r0, [ip, #-114]!	; 0x72
 270:	666f5f64 	strbtvs	r5, [pc], -r4, ror #30
 274:	63700066 	cmnvs	r0, #102	; 0x66
 278:	74735f62 	ldrbtvc	r5, [r3], #-3938	; 0xf62
 27c:	5f657461 	svcpl	0x00657461
 280:	74730065 	ldrbtvc	r0, [r3], #-101	; 0x65
 284:	00657461 	rsbeq	r7, r5, r1, ror #8
 288:	54494157 	strbpl	r4, [r9], #-343	; 0x157
 28c:	00474e49 	subeq	r4, r7, r9, asr #28
 290:	72617473 	rsbvc	r7, r1, #1929379840	; 0x73000000
 294:	75635f74 	strbvc	r5, [r3, #-3956]!	; 0xf74
 298:	6e657272 	mcrvs	2, 3, r7, cr5, cr2, {3}
 29c:	72705f74 	rsbsvc	r5, r0, #464	; 0x1d0
 2a0:	7365636f 	cmnvc	r5, #-1140850687	; 0xbc000001
 2a4:	63730073 	cmnvs	r3, #115	; 0x73
 2a8:	2e646568 	cdpcs	5, 6, cr6, cr4, cr8, {3}
 2ac:	6e650063 	cdpvs	0, 6, cr0, cr5, cr3, {3}
 2b0:	5f797274 	svcpl	0x00797274
 2b4:	6e696f70 	mcrvs	15, 3, r6, cr9, cr0, {3}
 2b8:	74730074 	ldrbtvc	r0, [r3], #-116	; 0x74
 2bc:	5f747261 	svcpl	0x00747261
 2c0:	65686373 	strbvs	r6, [r8, #-883]!	; 0x373
 2c4:	64690064 	strbtvs	r0, [r9], #-100	; 0x64
 2c8:	7000656c 	andvc	r6, r0, ip, ror #10
 2cc:	735f6263 	cmpvc	pc, #805306374	; 0x30000006
 2d0:	61747300 	cmnvs	r4, r0, lsl #6
 2d4:	625f6b63 	subsvs	r6, pc, #101376	; 0x18c00
 2d8:	00657361 	rsbeq	r7, r5, r1, ror #6
 2dc:	6c656979 	stclvs	9, cr6, [r5], #-484	; 0xfffffe1c
 2e0:	63730064 	cmnvs	r3, #100	; 0x64
 2e4:	75646568 	strbvc	r6, [r4, #-1384]!	; 0x568
 2e8:	6600656c 	strvs	r6, [r0], -ip, ror #10
 2ec:	5f636e75 	svcpl	0x00636e75
 2f0:	45520074 	ldrbmi	r0, [r2, #-116]	; 0x74
 2f4:	00594441 	subseq	r4, r9, r1, asr #8
 2f8:	63617473 	cmnvs	r1, #1929379840	; 0x73000000
 2fc:	69735f6b 	ldmdbvs	r3!, {r0, r1, r3, r5, r6, r8, r9, sl, fp, ip, lr}^
 300:	7200657a 	andvc	r6, r0, #511705088	; 0x1e800000
 304:	79646165 	stmdbvc	r4!, {r0, r2, r5, r6, r8, sp, lr}^
 308:	6575715f 	ldrbvs	r7, [r5, #-351]!	; 0x15f
 30c:	69006575 	stmdbvs	r0, {r0, r2, r4, r5, r6, r8, sl, sp, lr}
 310:	5f74696e 	svcpl	0x0074696e
 314:	636f7270 	cmnvs	pc, #7
 318:	00737365 	rsbseq	r7, r3, r5, ror #6
 31c:	73677261 	cmnvc	r7, #268435462	; 0x10000006
 320:	65726300 	ldrbvs	r6, [r2, #-768]!	; 0x300
 324:	5f657461 	svcpl	0x00657461
 328:	636f7270 	cmnvs	pc, #7
 32c:	00737365 	rsbseq	r7, r3, r5, ror #6
 330:	746e6975 	strbtvc	r6, [lr], #-2421	; 0x975
 334:	745f3233 	ldrbvc	r3, [pc], #-563	; 33c <_start-0x7cc4>
 338:	78656e00 	stmdavc	r5!, {r9, sl, fp, sp, lr}^
 33c:	45540074 	ldrbmi	r0, [r4, #-116]	; 0x74
 340:	4e494d52 	mcrmi	13, 2, r4, cr9, cr2, {2}
 344:	44455441 	strbmi	r5, [r5], #-1089	; 0x441
 348:	62637000 	rsbvs	r7, r3, #0
 34c:	696e695f 	stmdbvs	lr!, {r0, r1, r2, r3, r4, r6, r8, fp, sp, lr}^
 350:	69640074 	stmdbvs	r4!, {r2, r4, r5, r6}^
 354:	74617073 	strbtvc	r7, [r1], #-115	; 0x73
 358:	72656863 	rsbvc	r6, r5, #6488064	; 0x630000
 35c:	6300632e 	movwvs	r6, #814	; 0x32e
 360:	735f7874 	cmpvc	pc, #7602176	; 0x740000
 364:	63746977 	cmnvs	r4, #1949696	; 0x1dc000
 368:	746d0068 	strbtvc	r0, [sp], #-104	; 0x68
 36c:	6e695f78 	mcrvs	15, 3, r5, cr9, cr8, {3}
 370:	73007469 	movwvc	r7, #1129	; 0x469
 374:	695f6d65 	ldmdbvs	pc, {r0, r2, r5, r6, r8, sl, fp, sp, lr}^	; <UNPREDICTABLE>
 378:	0074696e 	rsbseq	r6, r4, lr, ror #18
 37c:	6574756d 	ldrbvs	r7, [r4, #-1389]!	; 0x56d
 380:	65730078 	ldrbvs	r0, [r3, #-120]!	; 0x78
 384:	70755f6d 	rsbsvc	r5, r5, sp, ror #30
 388:	78746d00 	ldmdavc	r4!, {r8, sl, fp, sp, lr}^
 38c:	6c6e755f 	cfstr64vs	mvdx7, [lr], #-380	; 0xfffffe84
 390:	006b636f 	rsbeq	r6, fp, pc, ror #6
 394:	74696177 	strbtvc	r6, [r9], #-375	; 0x177
 398:	6f72705f 	svcvs	0x0072705f
 39c:	2e2e0063 	cdpcs	0, 2, cr0, cr14, cr3, {3}
 3a0:	2f736f2f 	svccs	0x00736f2f
 3a4:	2e6d6573 	mcrcs	5, 3, r6, cr13, cr3, {3}
 3a8:	746d0063 	strbtvc	r0, [sp], #-99	; 0x63
 3ac:	6f6c5f78 	svcvs	0x006c5f78
 3b0:	77006b63 	strvc	r6, [r0, -r3, ror #22]
 3b4:	69746961 	ldmdbvs	r4!, {r0, r5, r6, r8, fp, sp, lr}^
 3b8:	705f676e 	subsvc	r6, pc, lr, ror #14
 3bc:	65636f72 	strbvs	r6, [r3, #-3954]!	; 0xf72
 3c0:	73007373 	movwvc	r7, #883	; 0x373
 3c4:	735f6d65 	cmpvc	pc, #6464	; 0x1940
 3c8:	6e776f00 	cdpvs	15, 7, cr6, cr7, cr0, {0}
 3cc:	66007265 	strvs	r7, [r0], -r5, ror #4
 3d0:	74737269 	ldrbtvc	r7, [r3], #-617	; 0x269
 3d4:	6f72705f 	svcvs	0x0072705f
 3d8:	73736563 	cmnvc	r3, #415236096	; 0x18c00000
 3dc:	78746d00 	ldmdavc	r4!, {r8, sl, fp, sp, lr}^
 3e0:	6c00735f 	stcvs	3, cr7, [r0], {95}	; 0x5f
 3e4:	5f747361 	svcpl	0x00747361
 3e8:	636f7270 	cmnvs	pc, #7
 3ec:	00737365 	rsbseq	r7, r3, r5, ror #6
 3f0:	74696177 	strbtvc	r6, [r9], #-375	; 0x177
 3f4:	00676e69 	rsbeq	r6, r7, r9, ror #28
 3f8:	5f6d6573 	svcpl	0x006d6573
 3fc:	6e776f64 	cdpvs	15, 7, cr6, cr7, cr4, {3}
 400:	6d657300 	stclvs	3, cr7, [r5, #-0]
 404:	78746d5f 	ldmdavc	r4!, {r0, r1, r2, r3, r4, r6, r8, sl, fp, sp, lr}^
	...

Disassembly of section .debug_frame:

00000000 <.debug_frame>:
   0:	0000000c 	andeq	r0, r0, ip
   4:	ffffffff 			; <UNDEFINED> instruction: 0xffffffff
   8:	7c020001 	stcvc	0, cr0, [r2], {1}
   c:	000d0c0e 	andeq	r0, sp, lr, lsl #24
  10:	00000014 	andeq	r0, r0, r4, lsl r0
  14:	00000000 	andeq	r0, r0, r0
  18:	000080d0 	ldrdeq	r8, [r0], -r0
  1c:	00000054 	andeq	r0, r0, r4, asr r0
  20:	8e040e42 	cdphi	14, 0, cr0, cr4, cr2, {2}
  24:	100e4201 	andne	r4, lr, r1, lsl #4
  28:	00000014 	andeq	r0, r0, r4, lsl r0
  2c:	00000000 	andeq	r0, r0, r0
  30:	00008124 	andeq	r8, r0, r4, lsr #2
  34:	00000054 	andeq	r0, r0, r4, asr r0
  38:	8e040e42 	cdphi	14, 0, cr0, cr4, cr2, {2}
  3c:	100e4201 	andne	r4, lr, r1, lsl #4
  40:	00000014 	andeq	r0, r0, r4, lsl r0
  44:	00000000 	andeq	r0, r0, r0
  48:	00008178 	andeq	r8, r0, r8, ror r1
  4c:	00000054 	andeq	r0, r0, r4, asr r0
  50:	83080e42 	movwhi	r0, #36418	; 0x8e42
  54:	00018e02 	andeq	r8, r1, r2, lsl #28
  58:	0000000c 	andeq	r0, r0, ip
  5c:	ffffffff 			; <UNDEFINED> instruction: 0xffffffff
  60:	7c020001 	stcvc	0, cr0, [r2], {1}
  64:	000d0c0e 	andeq	r0, sp, lr, lsl #24
  68:	00000010 	andeq	r0, r0, r0, lsl r0
  6c:	00000058 	andeq	r0, r0, r8, asr r0
  70:	000081cc 	andeq	r8, r0, ip, asr #3
  74:	0000001c 	andeq	r0, r0, ip, lsl r0
  78:	00080e42 	andeq	r0, r8, r2, asr #28
  7c:	00000010 	andeq	r0, r0, r0, lsl r0
  80:	00000058 	andeq	r0, r0, r8, asr r0
  84:	000081e8 	andeq	r8, r0, r8, ror #3
  88:	0000007c 	andeq	r0, r0, ip, ror r0
  8c:	00100e42 	andseq	r0, r0, r2, asr #28
  90:	00000014 	andeq	r0, r0, r4, lsl r0
  94:	00000058 	andeq	r0, r0, r8, asr r0
  98:	00008264 	andeq	r8, r0, r4, ror #4
  9c:	000000c4 	andeq	r0, r0, r4, asr #1
  a0:	8e040e42 	cdphi	14, 0, cr0, cr4, cr2, {2}
  a4:	200e4201 	andcs	r4, lr, r1, lsl #4
  a8:	00000010 	andeq	r0, r0, r0, lsl r0
  ac:	00000058 	andeq	r0, r0, r8, asr r0
  b0:	00008328 	andeq	r8, r0, r8, lsr #6
  b4:	00000070 	andeq	r0, r0, r0, ror r0
  b8:	00100e42 	andseq	r0, r0, r2, asr #28
  bc:	00000010 	andeq	r0, r0, r0, lsl r0
  c0:	00000058 	andeq	r0, r0, r8, asr r0
  c4:	00008398 	muleq	r0, r8, r3
  c8:	0000005c 	andeq	r0, r0, ip, asr r0
  cc:	00080e42 	andeq	r0, r8, r2, asr #28
  d0:	00000010 	andeq	r0, r0, r0, lsl r0
  d4:	00000058 	andeq	r0, r0, r8, asr r0
  d8:	000083f4 	strdeq	r8, [r0], -r4
  dc:	0000005c 	andeq	r0, r0, ip, asr r0
  e0:	00080e42 	andeq	r0, r8, r2, asr #28
  e4:	00000014 	andeq	r0, r0, r4, lsl r0
  e8:	00000058 	andeq	r0, r0, r8, asr r0
  ec:	00008450 	andeq	r8, r0, r0, asr r4
  f0:	000000ec 	andeq	r0, r0, ip, ror #1
  f4:	8e040e42 	cdphi	14, 0, cr0, cr4, cr2, {2}
  f8:	200e4201 	andcs	r4, lr, r1, lsl #4
  fc:	00000010 	andeq	r0, r0, r0, lsl r0
 100:	00000058 	andeq	r0, r0, r8, asr r0
 104:	0000853c 	andeq	r8, r0, ip, lsr r5
 108:	00000054 	andeq	r0, r0, r4, asr r0
 10c:	00100e42 	andseq	r0, r0, r2, asr #28
 110:	00000014 	andeq	r0, r0, r4, lsl r0
 114:	00000058 	andeq	r0, r0, r8, asr r0
 118:	00008590 	muleq	r0, r0, r5
 11c:	000000f4 	strdeq	r0, [r0], -r4
 120:	8e040e42 	cdphi	14, 0, cr0, cr4, cr2, {2}
 124:	200e4201 	andcs	r4, lr, r1, lsl #4
 128:	0000000c 	andeq	r0, r0, ip
 12c:	00000058 	andeq	r0, r0, r8, asr r0
 130:	00008684 	andeq	r8, r0, r4, lsl #13
 134:	00000018 	andeq	r0, r0, r8, lsl r0
 138:	00000010 	andeq	r0, r0, r0, lsl r0
 13c:	00000058 	andeq	r0, r0, r8, asr r0
 140:	0000869c 	muleq	r0, ip, r6
 144:	000000f8 	strdeq	r0, [r0], -r8
 148:	00300e42 	eorseq	r0, r0, r2, asr #28
 14c:	0000000c 	andeq	r0, r0, ip
 150:	ffffffff 			; <UNDEFINED> instruction: 0xffffffff
 154:	7c020001 	stcvc	0, cr0, [r2], {1}
 158:	000d0c0e 	andeq	r0, sp, lr, lsl #24
 15c:	00000014 	andeq	r0, r0, r4, lsl r0
 160:	0000014c 	andeq	r0, r0, ip, asr #2
 164:	00008794 	muleq	r0, r4, r7
 168:	0000004c 	andeq	r0, r0, ip, asr #32
 16c:	8e040e42 	cdphi	14, 0, cr0, cr4, cr2, {2}
 170:	100e4201 	andne	r4, lr, r1, lsl #4
 174:	00000014 	andeq	r0, r0, r4, lsl r0
 178:	0000014c 	andeq	r0, r0, ip, asr #2
 17c:	000087e0 	andeq	r8, r0, r0, ror #15
 180:	00000018 	andeq	r0, r0, r8, lsl r0
 184:	83080e42 	movwhi	r0, #36418	; 0x8e42
 188:	00018e02 	andeq	r8, r1, r2, lsl #28
 18c:	00000014 	andeq	r0, r0, r4, lsl r0
 190:	0000014c 	andeq	r0, r0, ip, asr #2
 194:	000087f8 	strdeq	r8, [r0], -r8	; <UNPREDICTABLE>
 198:	00000018 	andeq	r0, r0, r8, lsl r0
 19c:	83080e42 	movwhi	r0, #36418	; 0x8e42
 1a0:	00018e02 	andeq	r8, r1, r2, lsl #28
 1a4:	00000014 	andeq	r0, r0, r4, lsl r0
 1a8:	0000014c 	andeq	r0, r0, ip, asr #2
 1ac:	00008810 	andeq	r8, r0, r0, lsl r8
 1b0:	000000b4 	strheq	r0, [r0], -r4
 1b4:	8e040e42 	cdphi	14, 0, cr0, cr4, cr2, {2}
 1b8:	100e4201 	andne	r4, lr, r1, lsl #4
 1bc:	0000000c 	andeq	r0, r0, ip
 1c0:	ffffffff 			; <UNDEFINED> instruction: 0xffffffff
 1c4:	7c020001 	stcvc	0, cr0, [r2], {1}
 1c8:	000d0c0e 	andeq	r0, sp, lr, lsl #24
 1cc:	00000014 	andeq	r0, r0, r4, lsl r0
 1d0:	000001bc 			; <UNDEFINED> instruction: 0x000001bc
 1d4:	000088c4 	andeq	r8, r0, r4, asr #17
 1d8:	00000040 	andeq	r0, r0, r0, asr #32
 1dc:	83080e42 	movwhi	r0, #36418	; 0x8e42
 1e0:	00018e02 	andeq	r8, r1, r2, lsl #28
 1e4:	00000014 	andeq	r0, r0, r4, lsl r0
 1e8:	000001bc 			; <UNDEFINED> instruction: 0x000001bc
 1ec:	00008904 	andeq	r8, r0, r4, lsl #18
 1f0:	000000cc 	andeq	r0, r0, ip, asr #1
 1f4:	8e040e42 	cdphi	14, 0, cr0, cr4, cr2, {2}
 1f8:	180e4201 	stmdane	lr, {r0, r9, lr}
 1fc:	00000014 	andeq	r0, r0, r4, lsl r0
 200:	000001bc 			; <UNDEFINED> instruction: 0x000001bc
 204:	000089d0 	ldrdeq	r8, [r0], -r0
 208:	0000009c 	muleq	r0, ip, r0
 20c:	8e040e42 	cdphi	14, 0, cr0, cr4, cr2, {2}
 210:	180e4201 	stmdane	lr, {r0, r9, lr}
 214:	00000014 	andeq	r0, r0, r4, lsl r0
 218:	000001bc 			; <UNDEFINED> instruction: 0x000001bc
 21c:	00008a6c 	andeq	r8, r0, ip, ror #20
 220:	00000168 	andeq	r0, r0, r8, ror #2
 224:	8e040e42 	cdphi	14, 0, cr0, cr4, cr2, {2}
 228:	100e4201 	andne	r4, lr, r1, lsl #4
 22c:	00000014 	andeq	r0, r0, r4, lsl r0
 230:	000001bc 			; <UNDEFINED> instruction: 0x000001bc
 234:	00008bd4 	ldrdeq	r8, [r0], -r4
 238:	0000000c 	andeq	r0, r0, ip
 23c:	83080e42 	movwhi	r0, #36418	; 0x8e42
 240:	00018e02 	andeq	r8, r1, r2, lsl #28
 244:	00000014 	andeq	r0, r0, r4, lsl r0
 248:	000001bc 			; <UNDEFINED> instruction: 0x000001bc
 24c:	00008be0 	andeq	r8, r0, r0, ror #23
 250:	00000048 	andeq	r0, r0, r8, asr #32
 254:	83080e42 	movwhi	r0, #36418	; 0x8e42
 258:	00018e02 	andeq	r8, r1, r2, lsl #28
 25c:	0000000c 	andeq	r0, r0, ip
 260:	ffffffff 			; <UNDEFINED> instruction: 0xffffffff
 264:	7c020001 	stcvc	0, cr0, [r2], {1}
 268:	000d0c0e 	andeq	r0, sp, lr, lsl #24
 26c:	0000000c 	andeq	r0, r0, ip
 270:	0000025c 	andeq	r0, r0, ip, asr r2
 274:	00008c28 	andeq	r8, r0, r8, lsr #24
 278:	00000074 	andeq	r0, r0, r4, ror r0
 27c:	0000000c 	andeq	r0, r0, ip
 280:	ffffffff 			; <UNDEFINED> instruction: 0xffffffff
 284:	7c020001 	stcvc	0, cr0, [r2], {1}
 288:	000d0c0e 	andeq	r0, sp, lr, lsl #24
 28c:	00000014 	andeq	r0, r0, r4, lsl r0
 290:	0000027c 	andeq	r0, r0, ip, ror r2
 294:	00008c9c 	muleq	r0, ip, ip
 298:	0000005c 	andeq	r0, r0, ip, asr r0
 29c:	8e040e42 	cdphi	14, 0, cr0, cr4, cr2, {2}
 2a0:	100e4201 	andne	r4, lr, r1, lsl #4
 2a4:	00000014 	andeq	r0, r0, r4, lsl r0
 2a8:	0000027c 	andeq	r0, r0, ip, ror r2
 2ac:	00008cf8 	strdeq	r8, [r0], -r8	; <UNPREDICTABLE>
 2b0:	000000a8 	andeq	r0, r0, r8, lsr #1
 2b4:	8e040e42 	cdphi	14, 0, cr0, cr4, cr2, {2}
 2b8:	180e4201 	stmdane	lr, {r0, r9, lr}
 2bc:	00000014 	andeq	r0, r0, r4, lsl r0
 2c0:	0000027c 	andeq	r0, r0, ip, ror r2
 2c4:	00008da0 	andeq	r8, r0, r0, lsr #27
 2c8:	00000128 	andeq	r0, r0, r8, lsr #2
 2cc:	8e040e42 	cdphi	14, 0, cr0, cr4, cr2, {2}
 2d0:	180e4201 	stmdane	lr, {r0, r9, lr}
 2d4:	00000014 	andeq	r0, r0, r4, lsl r0
 2d8:	0000027c 	andeq	r0, r0, ip, ror r2
 2dc:	00008ec8 	andeq	r8, r0, r8, asr #29
 2e0:	0000004c 	andeq	r0, r0, ip, asr #32
 2e4:	8e040e42 	cdphi	14, 0, cr0, cr4, cr2, {2}
 2e8:	100e4201 	andne	r4, lr, r1, lsl #4
 2ec:	00000014 	andeq	r0, r0, r4, lsl r0
 2f0:	0000027c 	andeq	r0, r0, ip, ror r2
 2f4:	00008f14 	andeq	r8, r0, r4, lsl pc
 2f8:	00000060 	andeq	r0, r0, r0, rrx
 2fc:	8e040e42 	cdphi	14, 0, cr0, cr4, cr2, {2}
 300:	100e4201 	andne	r4, lr, r1, lsl #4
 304:	00000014 	andeq	r0, r0, r4, lsl r0
 308:	0000027c 	andeq	r0, r0, ip, ror r2
 30c:	00008f74 	andeq	r8, r0, r4, ror pc
 310:	00000068 	andeq	r0, r0, r8, rrx
 314:	8e040e42 	cdphi	14, 0, cr0, cr4, cr2, {2}
 318:	100e4201 	andne	r4, lr, r1, lsl #4
