
kernel.elf:     file format elf32-littlearm


Disassembly of section .text:

00008000 <_start>:
    8000:	e59ff018 	ldr	pc, [pc, #24]	; 8020 <reset_handler>
    8004:	e59ff018 	ldr	pc, [pc, #24]	; 8024 <undefined_handler>
    8008:	e59ff018 	ldr	pc, [pc, #24]	; 8028 <swi_handler>
    800c:	e59ff018 	ldr	pc, [pc, #24]	; 802c <prefetch_handler>
    8010:	e59ff018 	ldr	pc, [pc, #24]	; 8030 <data_handler>
    8014:	e59ff018 	ldr	pc, [pc, #24]	; 8034 <unused_handler>
    8018:	e59ff018 	ldr	pc, [pc, #24]	; 8038 <irq_handler>
    801c:	e59ff018 	ldr	pc, [pc, #24]	; 803c <fiq_handler>

00008020 <reset_handler>:
    8020:	00008040 	andeq	r8, r0, r0, asr #32

00008024 <undefined_handler>:
    8024:	00008084 	andeq	r8, r0, r4, lsl #1

00008028 <swi_handler>:
    8028:	00008088 	andeq	r8, r0, r8, lsl #1

0000802c <prefetch_handler>:
    802c:	0000808c 	andeq	r8, r0, ip, lsl #1

00008030 <data_handler>:
    8030:	00008090 	muleq	r0, r0, r0

00008034 <unused_handler>:
    8034:	00008094 	muleq	r0, r4, r0

00008038 <irq_handler>:
    8038:	000080cc 	andeq	r8, r0, ip, asr #1

0000803c <fiq_handler>:
    803c:	00008098 	muleq	r0, r8, r0

00008040 <reset>:
    8040:	e3a00902 	mov	r0, #32768	; 0x8000
    8044:	e3a01000 	mov	r1, #0
    8048:	e8b003fc 	ldm	r0!, {r2, r3, r4, r5, r6, r7, r8, r9}
    804c:	e8a103fc 	stmia	r1!, {r2, r3, r4, r5, r6, r7, r8, r9}
    8050:	e8b003fc 	ldm	r0!, {r2, r3, r4, r5, r6, r7, r8, r9}
    8054:	e8a103fc 	stmia	r1!, {r2, r3, r4, r5, r6, r7, r8, r9}
    8058:	e3a000d1 	mov	r0, #209	; 0xd1
    805c:	e121f000 	msr	CPSR_c, r0
    8060:	e3a0d90e 	mov	sp, #229376	; 0x38000
    8064:	e3a000d2 	mov	r0, #210	; 0xd2
    8068:	e121f000 	msr	CPSR_c, r0
    806c:	e3a0d701 	mov	sp, #262144	; 0x40000
    8070:	e3a000d3 	mov	r0, #211	; 0xd3
    8074:	e121f000 	msr	CPSR_c, r0
    8078:	e3a0d912 	mov	sp, #294912	; 0x48000
    807c:	eb000035 	bl	8158 <start_kernel>

00008080 <hang>:
    8080:	eafffffe 	b	8080 <hang>

00008084 <undefined>:
    8084:	eafffffe 	b	8084 <undefined>

00008088 <swi>:
    8088:	eafffffe 	b	8088 <swi>

0000808c <prefetch>:
    808c:	eafffffe 	b	808c <prefetch>

00008090 <data>:
    8090:	eafffffe 	b	8090 <data>

00008094 <unused>:
    8094:	eafffffe 	b	8094 <unused>

00008098 <fiq>:
    8098:	eafffffe 	b	8098 <fiq>

0000809c <PUT32>:
    809c:	e5801000 	str	r1, [r0]
    80a0:	e12fff1e 	bx	lr

000080a4 <PUT16>:
    80a4:	e1c010b0 	strh	r1, [r0]
    80a8:	e12fff1e 	bx	lr

000080ac <PUT8>:
    80ac:	e5c01000 	strb	r1, [r0]
    80b0:	e12fff1e 	bx	lr

000080b4 <GET32>:
    80b4:	e5900000 	ldr	r0, [r0]
    80b8:	e12fff1e 	bx	lr

000080bc <GETPC>:
    80bc:	e1a0000e 	mov	r0, lr
    80c0:	e12fff1e 	bx	lr

000080c4 <BRANCHTO>:
    80c4:	e12fff10 	bx	r0

000080c8 <dummy>:
    80c8:	e12fff1e 	bx	lr

000080cc <irq>:
    80cc:	ea000260 	b	8a54 <ctx_switch>

000080d0 <sort>:
    80d0:	e52de004 	push	{lr}		; (str lr, [sp, #-4]!)
    80d4:	e24dd014 	sub	sp, sp, #20
    80d8:	e58d0004 	str	r0, [sp, #4]
    80dc:	e59d3004 	ldr	r3, [sp, #4]
    80e0:	e58d300c 	str	r3, [sp, #12]
    80e4:	e59d200c 	ldr	r2, [sp, #12]
    80e8:	e1a03002 	mov	r3, r2
    80ec:	e1a03103 	lsl	r3, r3, #2
    80f0:	e0833002 	add	r3, r3, r2
    80f4:	e1a00003 	mov	r0, r3
    80f8:	eb0002d3 	bl	8c4c <sleep_proc>
    80fc:	e59f3048 	ldr	r3, [pc, #72]	; 814c <sort+0x7c>
    8100:	e5933000 	ldr	r3, [r3]
    8104:	e1a00003 	mov	r0, r3
    8108:	eb000323 	bl	8d9c <sem_down>
    810c:	e59f303c 	ldr	r3, [pc, #60]	; 8150 <sort+0x80>
    8110:	e5932000 	ldr	r2, [r3]
    8114:	e59f3038 	ldr	r3, [pc, #56]	; 8154 <sort+0x84>
    8118:	e59d100c 	ldr	r1, [sp, #12]
    811c:	e7831102 	str	r1, [r3, r2, lsl #2]
    8120:	e59f3028 	ldr	r3, [pc, #40]	; 8150 <sort+0x80>
    8124:	e5933000 	ldr	r3, [r3]
    8128:	e2832001 	add	r2, r3, #1
    812c:	e59f301c 	ldr	r3, [pc, #28]	; 8150 <sort+0x80>
    8130:	e5832000 	str	r2, [r3]
    8134:	e59f3010 	ldr	r3, [pc, #16]	; 814c <sort+0x7c>
    8138:	e5933000 	ldr	r3, [r3]
    813c:	e1a00003 	mov	r0, r3
    8140:	eb0002eb 	bl	8cf4 <sem_up>
    8144:	e28dd014 	add	sp, sp, #20
    8148:	e8bd8000 	pop	{pc}
    814c:	00009000 	andeq	r9, r0, r0
    8150:	00008fd8 	ldrdeq	r8, [r0], -r8	; <UNPREDICTABLE>
    8154:	00008fdc 	ldrdeq	r8, [r0], -ip

00008158 <start_kernel>:
    8158:	e52de004 	push	{lr}		; (str lr, [sp, #-4]!)
    815c:	e24dd02c 	sub	sp, sp, #44	; 0x2c
    8160:	e3a00805 	mov	r0, #327680	; 0x50000
    8164:	eb000033 	bl	8238 <malloc_init>
    8168:	e3a03003 	mov	r3, #3
    816c:	e58d3004 	str	r3, [sp, #4]
    8170:	e3a03008 	mov	r3, #8
    8174:	e58d3008 	str	r3, [sp, #8]
    8178:	e3a03006 	mov	r3, #6
    817c:	e58d300c 	str	r3, [sp, #12]
    8180:	e3a03002 	mov	r3, #2
    8184:	e58d3010 	str	r3, [sp, #16]
    8188:	e3a03004 	mov	r3, #4
    818c:	e58d3014 	str	r3, [sp, #20]
    8190:	e3a03001 	mov	r3, #1
    8194:	e58d3018 	str	r3, [sp, #24]
    8198:	e3a0300c 	mov	r3, #12
    819c:	e58d301c 	str	r3, [sp, #28]
    81a0:	e3a0300a 	mov	r3, #10
    81a4:	e58d3020 	str	r3, [sp, #32]
    81a8:	e3a03000 	mov	r3, #0
    81ac:	e58d3024 	str	r3, [sp, #36]	; 0x24
    81b0:	ea00000c 	b	81e8 <start_kernel+0x90>
    81b4:	e59d2024 	ldr	r2, [sp, #36]	; 0x24
    81b8:	e3e03023 	mvn	r3, #35	; 0x23
    81bc:	e1a02102 	lsl	r2, r2, #2
    81c0:	e28d1028 	add	r1, sp, #40	; 0x28
    81c4:	e0812002 	add	r2, r1, r2
    81c8:	e0823003 	add	r3, r2, r3
    81cc:	e5933000 	ldr	r3, [r3]
    81d0:	e59f003c 	ldr	r0, [pc, #60]	; 8214 <start_kernel+0xbc>
    81d4:	e1a01003 	mov	r1, r3
    81d8:	eb0001db 	bl	894c <create_process>
    81dc:	e59d3024 	ldr	r3, [sp, #36]	; 0x24
    81e0:	e2833001 	add	r3, r3, #1
    81e4:	e58d3024 	str	r3, [sp, #36]	; 0x24
    81e8:	e59d3024 	ldr	r3, [sp, #36]	; 0x24
    81ec:	e3530007 	cmp	r3, #7
    81f0:	daffffef 	ble	81b4 <start_kernel+0x5c>
    81f4:	e59f001c 	ldr	r0, [pc, #28]	; 8218 <start_kernel+0xc0>
    81f8:	e3a01001 	mov	r1, #1
    81fc:	eb0002a5 	bl	8c98 <sem_init>
    8200:	eb0001c3 	bl	8914 <start_sched>
    8204:	e3a03000 	mov	r3, #0
    8208:	e1a00003 	mov	r0, r3
    820c:	e28dd02c 	add	sp, sp, #44	; 0x2c
    8210:	e8bd8000 	pop	{pc}
    8214:	000080d0 	ldrdeq	r8, [r0], -r0
    8218:	00009000 	andeq	r9, r0, r0

0000821c <malloc_get_entry>:
    821c:	e24dd008 	sub	sp, sp, #8
    8220:	e58d0004 	str	r0, [sp, #4]
    8224:	e59d3004 	ldr	r3, [sp, #4]
    8228:	e2433004 	sub	r3, r3, #4
    822c:	e1a00003 	mov	r0, r3
    8230:	e28dd008 	add	sp, sp, #8
    8234:	e12fff1e 	bx	lr

00008238 <malloc_init>:
    8238:	e24dd010 	sub	sp, sp, #16
    823c:	e58d0004 	str	r0, [sp, #4]
    8240:	e3a03a05 	mov	r3, #20480	; 0x5000
    8244:	e58d300c 	str	r3, [sp, #12]
    8248:	e59f305c 	ldr	r3, [pc, #92]	; 82ac <malloc_init+0x74>
    824c:	e59d2004 	ldr	r2, [sp, #4]
    8250:	e5832000 	str	r2, [r3]
    8254:	e59f3050 	ldr	r3, [pc, #80]	; 82ac <malloc_init+0x74>
    8258:	e5932000 	ldr	r2, [r3]
    825c:	e59f304c 	ldr	r3, [pc, #76]	; 82b0 <malloc_init+0x78>
    8260:	e5832000 	str	r2, [r3]
    8264:	e59f3040 	ldr	r3, [pc, #64]	; 82ac <malloc_init+0x74>
    8268:	e5932000 	ldr	r2, [r3]
    826c:	e59d300c 	ldr	r3, [sp, #12]
    8270:	e2833002 	add	r3, r3, #2
    8274:	e1a03103 	lsl	r3, r3, #2
    8278:	e0822003 	add	r2, r2, r3
    827c:	e59f3028 	ldr	r3, [pc, #40]	; 82ac <malloc_init+0x74>
    8280:	e5832000 	str	r2, [r3]
    8284:	e59f3024 	ldr	r3, [pc, #36]	; 82b0 <malloc_init+0x78>
    8288:	e5933000 	ldr	r3, [r3]
    828c:	e59d200c 	ldr	r2, [sp, #12]
    8290:	e5832000 	str	r2, [r3]
    8294:	e59f3014 	ldr	r3, [pc, #20]	; 82b0 <malloc_init+0x78>
    8298:	e5933000 	ldr	r3, [r3]
    829c:	e3a02000 	mov	r2, #0
    82a0:	e5832004 	str	r2, [r3, #4]
    82a4:	e28dd010 	add	sp, sp, #16
    82a8:	e12fff1e 	bx	lr
    82ac:	00009008 	andeq	r9, r0, r8
    82b0:	00009004 	andeq	r9, r0, r4

000082b4 <malloc_free>:
    82b4:	e52de004 	push	{lr}		; (str lr, [sp, #-4]!)
    82b8:	e24dd01c 	sub	sp, sp, #28
    82bc:	e58d0004 	str	r0, [sp, #4]
    82c0:	e59d0004 	ldr	r0, [sp, #4]
    82c4:	ebffffd4 	bl	821c <malloc_get_entry>
    82c8:	e58d0010 	str	r0, [sp, #16]
    82cc:	e59f30a0 	ldr	r3, [pc, #160]	; 8374 <malloc_free+0xc0>
    82d0:	e5933000 	ldr	r3, [r3]
    82d4:	e5932004 	ldr	r2, [r3, #4]
    82d8:	e58d2014 	str	r2, [sp, #20]
    82dc:	e2822001 	add	r2, r2, #1
    82e0:	e5832004 	str	r2, [r3, #4]
    82e4:	e59d3014 	ldr	r3, [sp, #20]
    82e8:	e1a030a3 	lsr	r3, r3, #1
    82ec:	e58d300c 	str	r3, [sp, #12]
    82f0:	e59f307c 	ldr	r3, [pc, #124]	; 8374 <malloc_free+0xc0>
    82f4:	e5933000 	ldr	r3, [r3]
    82f8:	e59d2014 	ldr	r2, [sp, #20]
    82fc:	e2822002 	add	r2, r2, #2
    8300:	e59d1010 	ldr	r1, [sp, #16]
    8304:	e7831102 	str	r1, [r3, r2, lsl #2]
    8308:	ea000012 	b	8358 <malloc_free+0xa4>
    830c:	e59f3060 	ldr	r3, [pc, #96]	; 8374 <malloc_free+0xc0>
    8310:	e5933000 	ldr	r3, [r3]
    8314:	e59d2014 	ldr	r2, [sp, #20]
    8318:	e2822002 	add	r2, r2, #2
    831c:	e7933102 	ldr	r3, [r3, r2, lsl #2]
    8320:	e5932000 	ldr	r2, [r3]
    8324:	e59f3048 	ldr	r3, [pc, #72]	; 8374 <malloc_free+0xc0>
    8328:	e5933000 	ldr	r3, [r3]
    832c:	e59d100c 	ldr	r1, [sp, #12]
    8330:	e2811002 	add	r1, r1, #2
    8334:	e7933101 	ldr	r3, [r3, r1, lsl #2]
    8338:	e5933000 	ldr	r3, [r3]
    833c:	e1520003 	cmp	r2, r3
    8340:	2a000008 	bcs	8368 <malloc_free+0xb4>
    8344:	e59d000c 	ldr	r0, [sp, #12]
    8348:	e59d1014 	ldr	r1, [sp, #20]
    834c:	eb000009 	bl	8378 <malloc_free_list_swap>
    8350:	e59d300c 	ldr	r3, [sp, #12]
    8354:	e58d3014 	str	r3, [sp, #20]
    8358:	e59d3014 	ldr	r3, [sp, #20]
    835c:	e3530000 	cmp	r3, #0
    8360:	1affffe9 	bne	830c <malloc_free+0x58>
    8364:	ea000000 	b	836c <malloc_free+0xb8>
    8368:	e1a00000 	nop			; (mov r0, r0)
    836c:	e28dd01c 	add	sp, sp, #28
    8370:	e8bd8000 	pop	{pc}
    8374:	00009004 	andeq	r9, r0, r4

00008378 <malloc_free_list_swap>:
    8378:	e24dd010 	sub	sp, sp, #16
    837c:	e58d0004 	str	r0, [sp, #4]
    8380:	e58d1000 	str	r1, [sp]
    8384:	e59f3058 	ldr	r3, [pc, #88]	; 83e4 <malloc_free_list_swap+0x6c>
    8388:	e5933000 	ldr	r3, [r3]
    838c:	e59d2004 	ldr	r2, [sp, #4]
    8390:	e2822002 	add	r2, r2, #2
    8394:	e7933102 	ldr	r3, [r3, r2, lsl #2]
    8398:	e58d300c 	str	r3, [sp, #12]
    839c:	e59f3040 	ldr	r3, [pc, #64]	; 83e4 <malloc_free_list_swap+0x6c>
    83a0:	e5933000 	ldr	r3, [r3]
    83a4:	e59f2038 	ldr	r2, [pc, #56]	; 83e4 <malloc_free_list_swap+0x6c>
    83a8:	e5922000 	ldr	r2, [r2]
    83ac:	e59d1000 	ldr	r1, [sp]
    83b0:	e2811002 	add	r1, r1, #2
    83b4:	e7921101 	ldr	r1, [r2, r1, lsl #2]
    83b8:	e59d2004 	ldr	r2, [sp, #4]
    83bc:	e2822002 	add	r2, r2, #2
    83c0:	e7831102 	str	r1, [r3, r2, lsl #2]
    83c4:	e59f3018 	ldr	r3, [pc, #24]	; 83e4 <malloc_free_list_swap+0x6c>
    83c8:	e5933000 	ldr	r3, [r3]
    83cc:	e59d2000 	ldr	r2, [sp]
    83d0:	e2822002 	add	r2, r2, #2
    83d4:	e59d100c 	ldr	r1, [sp, #12]
    83d8:	e7831102 	str	r1, [r3, r2, lsl #2]
    83dc:	e28dd010 	add	sp, sp, #16
    83e0:	e12fff1e 	bx	lr
    83e4:	00009004 	andeq	r9, r0, r4

000083e8 <malloc_leq>:
    83e8:	e24dd008 	sub	sp, sp, #8
    83ec:	e58d0004 	str	r0, [sp, #4]
    83f0:	e58d1000 	str	r1, [sp]
    83f4:	e59f3044 	ldr	r3, [pc, #68]	; 8440 <malloc_leq+0x58>
    83f8:	e5933000 	ldr	r3, [r3]
    83fc:	e59d2004 	ldr	r2, [sp, #4]
    8400:	e2822002 	add	r2, r2, #2
    8404:	e7933102 	ldr	r3, [r3, r2, lsl #2]
    8408:	e5932000 	ldr	r2, [r3]
    840c:	e59f302c 	ldr	r3, [pc, #44]	; 8440 <malloc_leq+0x58>
    8410:	e5933000 	ldr	r3, [r3]
    8414:	e59d1000 	ldr	r1, [sp]
    8418:	e2811002 	add	r1, r1, #2
    841c:	e7933101 	ldr	r3, [r3, r1, lsl #2]
    8420:	e5933000 	ldr	r3, [r3]
    8424:	e1520003 	cmp	r2, r3
    8428:	83a03000 	movhi	r3, #0
    842c:	93a03001 	movls	r3, #1
    8430:	e6ef3073 	uxtb	r3, r3
    8434:	e1a00003 	mov	r0, r3
    8438:	e28dd008 	add	sp, sp, #8
    843c:	e12fff1e 	bx	lr
    8440:	00009004 	andeq	r9, r0, r4

00008444 <malloc_le>:
    8444:	e24dd008 	sub	sp, sp, #8
    8448:	e58d0004 	str	r0, [sp, #4]
    844c:	e58d1000 	str	r1, [sp]
    8450:	e59f3044 	ldr	r3, [pc, #68]	; 849c <malloc_le+0x58>
    8454:	e5933000 	ldr	r3, [r3]
    8458:	e59d2004 	ldr	r2, [sp, #4]
    845c:	e2822002 	add	r2, r2, #2
    8460:	e7933102 	ldr	r3, [r3, r2, lsl #2]
    8464:	e5932000 	ldr	r2, [r3]
    8468:	e59f302c 	ldr	r3, [pc, #44]	; 849c <malloc_le+0x58>
    846c:	e5933000 	ldr	r3, [r3]
    8470:	e59d1000 	ldr	r1, [sp]
    8474:	e2811002 	add	r1, r1, #2
    8478:	e7933101 	ldr	r3, [r3, r1, lsl #2]
    847c:	e5933000 	ldr	r3, [r3]
    8480:	e1520003 	cmp	r2, r3
    8484:	23a03000 	movcs	r3, #0
    8488:	33a03001 	movcc	r3, #1
    848c:	e6ef3073 	uxtb	r3, r3
    8490:	e1a00003 	mov	r0, r3
    8494:	e28dd008 	add	sp, sp, #8
    8498:	e12fff1e 	bx	lr
    849c:	00009004 	andeq	r9, r0, r4

000084a0 <malloc_free_list_remove>:
    84a0:	e52de004 	push	{lr}		; (str lr, [sp, #-4]!)
    84a4:	e24dd01c 	sub	sp, sp, #28
    84a8:	e58d0004 	str	r0, [sp, #4]
    84ac:	e59f30d4 	ldr	r3, [pc, #212]	; 8588 <malloc_free_list_remove+0xe8>
    84b0:	e5933000 	ldr	r3, [r3]
    84b4:	e5933004 	ldr	r3, [r3, #4]
    84b8:	e3530000 	cmp	r3, #0
    84bc:	0a00002e 	beq	857c <malloc_free_list_remove+0xdc>
    84c0:	e59f30c0 	ldr	r3, [pc, #192]	; 8588 <malloc_free_list_remove+0xe8>
    84c4:	e5933000 	ldr	r3, [r3]
    84c8:	e5932004 	ldr	r2, [r3, #4]
    84cc:	e2422001 	sub	r2, r2, #1
    84d0:	e5832004 	str	r2, [r3, #4]
    84d4:	e5933004 	ldr	r3, [r3, #4]
    84d8:	e58d300c 	str	r3, [sp, #12]
    84dc:	e59d3004 	ldr	r3, [sp, #4]
    84e0:	e1a03083 	lsl	r3, r3, #1
    84e4:	e2833001 	add	r3, r3, #1
    84e8:	e58d3014 	str	r3, [sp, #20]
    84ec:	e59d3014 	ldr	r3, [sp, #20]
    84f0:	e2833001 	add	r3, r3, #1
    84f4:	e58d3010 	str	r3, [sp, #16]
    84f8:	e59d0004 	ldr	r0, [sp, #4]
    84fc:	e59d100c 	ldr	r1, [sp, #12]
    8500:	ebffff9c 	bl	8378 <malloc_free_list_swap>
    8504:	ea000017 	b	8568 <malloc_free_list_remove+0xc8>
    8508:	e59d0014 	ldr	r0, [sp, #20]
    850c:	e59d1010 	ldr	r1, [sp, #16]
    8510:	ebffffcb 	bl	8444 <malloc_le>
    8514:	e1a03000 	mov	r3, r0
    8518:	e3530000 	cmp	r3, #0
    851c:	0a000005 	beq	8538 <malloc_free_list_remove+0x98>
    8520:	e59d0014 	ldr	r0, [sp, #20]
    8524:	e59d1004 	ldr	r1, [sp, #4]
    8528:	ebffff92 	bl	8378 <malloc_free_list_swap>
    852c:	e59d3014 	ldr	r3, [sp, #20]
    8530:	e58d3004 	str	r3, [sp, #4]
    8534:	ea000004 	b	854c <malloc_free_list_remove+0xac>
    8538:	e59d0010 	ldr	r0, [sp, #16]
    853c:	e59d1004 	ldr	r1, [sp, #4]
    8540:	ebffff8c 	bl	8378 <malloc_free_list_swap>
    8544:	e59d3010 	ldr	r3, [sp, #16]
    8548:	e58d3004 	str	r3, [sp, #4]
    854c:	e59d3004 	ldr	r3, [sp, #4]
    8550:	e1a03083 	lsl	r3, r3, #1
    8554:	e2833001 	add	r3, r3, #1
    8558:	e58d3014 	str	r3, [sp, #20]
    855c:	e59d3014 	ldr	r3, [sp, #20]
    8560:	e2833001 	add	r3, r3, #1
    8564:	e58d3010 	str	r3, [sp, #16]
    8568:	e59d2014 	ldr	r2, [sp, #20]
    856c:	e59d300c 	ldr	r3, [sp, #12]
    8570:	e1520003 	cmp	r2, r3
    8574:	3affffe3 	bcc	8508 <malloc_free_list_remove+0x68>
    8578:	ea000000 	b	8580 <malloc_free_list_remove+0xe0>
    857c:	e1a00000 	nop			; (mov r0, r0)
    8580:	e28dd01c 	add	sp, sp, #28
    8584:	e8bd8000 	pop	{pc}
    8588:	00009004 	andeq	r9, r0, r4

0000858c <malloc_alloc_new_entry>:
    858c:	e24dd010 	sub	sp, sp, #16
    8590:	e58d0004 	str	r0, [sp, #4]
    8594:	e59f3040 	ldr	r3, [pc, #64]	; 85dc <malloc_alloc_new_entry+0x50>
    8598:	e5933000 	ldr	r3, [r3]
    859c:	e58d300c 	str	r3, [sp, #12]
    85a0:	e59f3034 	ldr	r3, [pc, #52]	; 85dc <malloc_alloc_new_entry+0x50>
    85a4:	e5932000 	ldr	r2, [r3]
    85a8:	e59d3004 	ldr	r3, [sp, #4]
    85ac:	e2833004 	add	r3, r3, #4
    85b0:	e0822003 	add	r2, r2, r3
    85b4:	e59f3020 	ldr	r3, [pc, #32]	; 85dc <malloc_alloc_new_entry+0x50>
    85b8:	e5832000 	str	r2, [r3]
    85bc:	e59d300c 	ldr	r3, [sp, #12]
    85c0:	e59d2004 	ldr	r2, [sp, #4]
    85c4:	e5832000 	str	r2, [r3]
    85c8:	e59d300c 	ldr	r3, [sp, #12]
    85cc:	e2833004 	add	r3, r3, #4
    85d0:	e1a00003 	mov	r0, r3
    85d4:	e28dd010 	add	sp, sp, #16
    85d8:	e12fff1e 	bx	lr
    85dc:	00009008 	andeq	r9, r0, r8

000085e0 <malloc_alloc>:
    85e0:	e52de004 	push	{lr}		; (str lr, [sp, #-4]!)
    85e4:	e24dd01c 	sub	sp, sp, #28
    85e8:	e58d0004 	str	r0, [sp, #4]
    85ec:	e59d3004 	ldr	r3, [sp, #4]
    85f0:	e2033003 	and	r3, r3, #3
    85f4:	e3530000 	cmp	r3, #0
    85f8:	0a000003 	beq	860c <malloc_alloc+0x2c>
    85fc:	e59d3004 	ldr	r3, [sp, #4]
    8600:	e3c33003 	bic	r3, r3, #3
    8604:	e2833004 	add	r3, r3, #4
    8608:	e58d3004 	str	r3, [sp, #4]
    860c:	e3a03000 	mov	r3, #0
    8610:	e58d3014 	str	r3, [sp, #20]
    8614:	e59f30b4 	ldr	r3, [pc, #180]	; 86d0 <malloc_alloc+0xf0>
    8618:	e5933000 	ldr	r3, [r3]
    861c:	e5933004 	ldr	r3, [r3, #4]
    8620:	e58d300c 	str	r3, [sp, #12]
    8624:	e3a03000 	mov	r3, #0
    8628:	e58d3010 	str	r3, [sp, #16]
    862c:	ea000003 	b	8640 <malloc_alloc+0x60>
    8630:	e59d3014 	ldr	r3, [sp, #20]
    8634:	e1a03083 	lsl	r3, r3, #1
    8638:	e2833001 	add	r3, r3, #1
    863c:	e58d3014 	str	r3, [sp, #20]
    8640:	e59d2014 	ldr	r2, [sp, #20]
    8644:	e59d300c 	ldr	r3, [sp, #12]
    8648:	e1520003 	cmp	r2, r3
    864c:	2a000008 	bcs	8674 <malloc_alloc+0x94>
    8650:	e59f3078 	ldr	r3, [pc, #120]	; 86d0 <malloc_alloc+0xf0>
    8654:	e5933000 	ldr	r3, [r3]
    8658:	e59d2014 	ldr	r2, [sp, #20]
    865c:	e2822002 	add	r2, r2, #2
    8660:	e7933102 	ldr	r3, [r3, r2, lsl #2]
    8664:	e5932000 	ldr	r2, [r3]
    8668:	e59d3004 	ldr	r3, [sp, #4]
    866c:	e1520003 	cmp	r2, r3
    8670:	3affffee 	bcc	8630 <malloc_alloc+0x50>
    8674:	e59d2014 	ldr	r2, [sp, #20]
    8678:	e59d300c 	ldr	r3, [sp, #12]
    867c:	e1520003 	cmp	r2, r3
    8680:	2a00000b 	bcs	86b4 <malloc_alloc+0xd4>
    8684:	e59d0014 	ldr	r0, [sp, #20]
    8688:	ebffff84 	bl	84a0 <malloc_free_list_remove>
    868c:	e59f303c 	ldr	r3, [pc, #60]	; 86d0 <malloc_alloc+0xf0>
    8690:	e5933000 	ldr	r3, [r3]
    8694:	e59f2034 	ldr	r2, [pc, #52]	; 86d0 <malloc_alloc+0xf0>
    8698:	e5922000 	ldr	r2, [r2]
    869c:	e5922004 	ldr	r2, [r2, #4]
    86a0:	e2822002 	add	r2, r2, #2
    86a4:	e7933102 	ldr	r3, [r3, r2, lsl #2]
    86a8:	e2833004 	add	r3, r3, #4
    86ac:	e58d3010 	str	r3, [sp, #16]
    86b0:	ea000002 	b	86c0 <malloc_alloc+0xe0>
    86b4:	e59d0004 	ldr	r0, [sp, #4]
    86b8:	ebffffb3 	bl	858c <malloc_alloc_new_entry>
    86bc:	e58d0010 	str	r0, [sp, #16]
    86c0:	e59d3010 	ldr	r3, [sp, #16]
    86c4:	e1a00003 	mov	r0, r3
    86c8:	e28dd01c 	add	sp, sp, #28
    86cc:	e8bd8000 	pop	{pc}
    86d0:	00009004 	andeq	r9, r0, r4

000086d4 <malloc_freelist_length>:
    86d4:	e59f300c 	ldr	r3, [pc, #12]	; 86e8 <malloc_freelist_length+0x14>
    86d8:	e5933000 	ldr	r3, [r3]
    86dc:	e5933004 	ldr	r3, [r3, #4]
    86e0:	e1a00003 	mov	r0, r3
    86e4:	e12fff1e 	bx	lr
    86e8:	00009004 	andeq	r9, r0, r4

000086ec <memcpy>:
    86ec:	e24dd030 	sub	sp, sp, #48	; 0x30
    86f0:	e58d000c 	str	r0, [sp, #12]
    86f4:	e58d1008 	str	r1, [sp, #8]
    86f8:	e58d2004 	str	r2, [sp, #4]
    86fc:	e59d3004 	ldr	r3, [sp, #4]
    8700:	e1a03123 	lsr	r3, r3, #2
    8704:	e58d3028 	str	r3, [sp, #40]	; 0x28
    8708:	e59d3004 	ldr	r3, [sp, #4]
    870c:	e2033003 	and	r3, r3, #3
    8710:	e58d3024 	str	r3, [sp, #36]	; 0x24
    8714:	e59d300c 	ldr	r3, [sp, #12]
    8718:	e58d3020 	str	r3, [sp, #32]
    871c:	e59d3008 	ldr	r3, [sp, #8]
    8720:	e58d301c 	str	r3, [sp, #28]
    8724:	e59d300c 	ldr	r3, [sp, #12]
    8728:	e58d3018 	str	r3, [sp, #24]
    872c:	e59d300c 	ldr	r3, [sp, #12]
    8730:	e58d3014 	str	r3, [sp, #20]
    8734:	e3a03000 	mov	r3, #0
    8738:	e58d302c 	str	r3, [sp, #44]	; 0x2c
    873c:	ea00000c 	b	8774 <memcpy+0x88>
    8740:	e59d302c 	ldr	r3, [sp, #44]	; 0x2c
    8744:	e1a03103 	lsl	r3, r3, #2
    8748:	e59d201c 	ldr	r2, [sp, #28]
    874c:	e0823003 	add	r3, r2, r3
    8750:	e59d202c 	ldr	r2, [sp, #44]	; 0x2c
    8754:	e1a02102 	lsl	r2, r2, #2
    8758:	e59d1020 	ldr	r1, [sp, #32]
    875c:	e0812002 	add	r2, r1, r2
    8760:	e5922000 	ldr	r2, [r2]
    8764:	e5832000 	str	r2, [r3]
    8768:	e59d302c 	ldr	r3, [sp, #44]	; 0x2c
    876c:	e2833001 	add	r3, r3, #1
    8770:	e58d302c 	str	r3, [sp, #44]	; 0x2c
    8774:	e59d202c 	ldr	r2, [sp, #44]	; 0x2c
    8778:	e59d3028 	ldr	r3, [sp, #40]	; 0x28
    877c:	e1520003 	cmp	r2, r3
    8780:	3affffee 	bcc	8740 <memcpy+0x54>
    8784:	e3a03001 	mov	r3, #1
    8788:	e58d302c 	str	r3, [sp, #44]	; 0x2c
    878c:	ea00000e 	b	87cc <memcpy+0xe0>
    8790:	e59d2004 	ldr	r2, [sp, #4]
    8794:	e59d302c 	ldr	r3, [sp, #44]	; 0x2c
    8798:	e0633002 	rsb	r3, r3, r2
    879c:	e59d2014 	ldr	r2, [sp, #20]
    87a0:	e0823003 	add	r3, r2, r3
    87a4:	e59d1004 	ldr	r1, [sp, #4]
    87a8:	e59d202c 	ldr	r2, [sp, #44]	; 0x2c
    87ac:	e0622001 	rsb	r2, r2, r1
    87b0:	e59d1018 	ldr	r1, [sp, #24]
    87b4:	e0812002 	add	r2, r1, r2
    87b8:	e5d22000 	ldrb	r2, [r2]
    87bc:	e5c32000 	strb	r2, [r3]
    87c0:	e59d302c 	ldr	r3, [sp, #44]	; 0x2c
    87c4:	e2833001 	add	r3, r3, #1
    87c8:	e58d302c 	str	r3, [sp, #44]	; 0x2c
    87cc:	e59d202c 	ldr	r2, [sp, #44]	; 0x2c
    87d0:	e59d3024 	ldr	r3, [sp, #36]	; 0x24
    87d4:	e1520003 	cmp	r2, r3
    87d8:	9affffec 	bls	8790 <memcpy+0xa4>
    87dc:	e28dd030 	add	sp, sp, #48	; 0x30
    87e0:	e12fff1e 	bx	lr

000087e4 <set_tick_and_enable_timer>:
    87e4:	e52de004 	push	{lr}		; (str lr, [sp, #-4]!)
    87e8:	e24dd00c 	sub	sp, sp, #12
    87ec:	e59f0030 	ldr	r0, [pc, #48]	; 8824 <set_tick_and_enable_timer+0x40>
    87f0:	ebfffe2f 	bl	80b4 <GET32>
    87f4:	e58d0004 	str	r0, [sp, #4]
    87f8:	e59d3004 	ldr	r3, [sp, #4]
    87fc:	e2833702 	add	r3, r3, #524288	; 0x80000
    8800:	e58d3004 	str	r3, [sp, #4]
    8804:	e59f001c 	ldr	r0, [pc, #28]	; 8828 <set_tick_and_enable_timer+0x44>
    8808:	e59d1004 	ldr	r1, [sp, #4]
    880c:	ebfffe22 	bl	809c <PUT32>
    8810:	e59f0014 	ldr	r0, [pc, #20]	; 882c <set_tick_and_enable_timer+0x48>
    8814:	e3a01002 	mov	r1, #2
    8818:	ebfffe1f 	bl	809c <PUT32>
    881c:	e28dd00c 	add	sp, sp, #12
    8820:	e8bd8000 	pop	{pc}
    8824:	20003004 	andcs	r3, r0, r4
    8828:	20003010 	andcs	r3, r0, r0, lsl r0
    882c:	20003000 	andcs	r3, r0, r0

00008830 <led_off>:
    8830:	e92d4008 	push	{r3, lr}
    8834:	e59f0008 	ldr	r0, [pc, #8]	; 8844 <led_off+0x14>
    8838:	e3a01801 	mov	r1, #65536	; 0x10000
    883c:	ebfffe16 	bl	809c <PUT32>
    8840:	e8bd8008 	pop	{r3, pc}
    8844:	2020001c 	eorcs	r0, r0, ip, lsl r0

00008848 <led_on>:
    8848:	e92d4008 	push	{r3, lr}
    884c:	e59f0008 	ldr	r0, [pc, #8]	; 885c <led_on+0x14>
    8850:	e3a01801 	mov	r1, #65536	; 0x10000
    8854:	ebfffe10 	bl	809c <PUT32>
    8858:	e8bd8008 	pop	{r3, pc}
    885c:	20200028 	eorcs	r0, r0, r8, lsr #32

00008860 <init_hw>:
    8860:	e52de004 	push	{lr}		; (str lr, [sp, #-4]!)
    8864:	e24dd00c 	sub	sp, sp, #12
    8868:	e59f008c 	ldr	r0, [pc, #140]	; 88fc <init_hw+0x9c>
    886c:	ebfffe10 	bl	80b4 <GET32>
    8870:	e58d0004 	str	r0, [sp, #4]
    8874:	e59d3004 	ldr	r3, [sp, #4]
    8878:	e3c33707 	bic	r3, r3, #1835008	; 0x1c0000
    887c:	e58d3004 	str	r3, [sp, #4]
    8880:	e59d3004 	ldr	r3, [sp, #4]
    8884:	e3833701 	orr	r3, r3, #262144	; 0x40000
    8888:	e58d3004 	str	r3, [sp, #4]
    888c:	e59f0068 	ldr	r0, [pc, #104]	; 88fc <init_hw+0x9c>
    8890:	e59d1004 	ldr	r1, [sp, #4]
    8894:	ebfffe00 	bl	809c <PUT32>
    8898:	e59f0060 	ldr	r0, [pc, #96]	; 8900 <init_hw+0xa0>
    889c:	e3a01801 	mov	r1, #65536	; 0x10000
    88a0:	ebfffdfd 	bl	809c <PUT32>
    88a4:	e59f0058 	ldr	r0, [pc, #88]	; 8904 <init_hw+0xa4>
    88a8:	ebfffe01 	bl	80b4 <GET32>
    88ac:	e58d0000 	str	r0, [sp]
    88b0:	e59d3000 	ldr	r3, [sp]
    88b4:	e2833702 	add	r3, r3, #524288	; 0x80000
    88b8:	e58d3000 	str	r3, [sp]
    88bc:	e59f0044 	ldr	r0, [pc, #68]	; 8908 <init_hw+0xa8>
    88c0:	e59d1000 	ldr	r1, [sp]
    88c4:	ebfffdf4 	bl	809c <PUT32>
    88c8:	e59f003c 	ldr	r0, [pc, #60]	; 890c <init_hw+0xac>
    88cc:	e3a01002 	mov	r1, #2
    88d0:	ebfffdf1 	bl	809c <PUT32>
    88d4:	e59f0034 	ldr	r0, [pc, #52]	; 8910 <init_hw+0xb0>
    88d8:	e3a01002 	mov	r1, #2
    88dc:	ebfffdee 	bl	809c <PUT32>
    88e0:	e92d0001 	push	{r0}
    88e4:	e10f0000 	mrs	r0, CPSR
    88e8:	e3800080 	orr	r0, r0, #128	; 0x80
    88ec:	e121f000 	msr	CPSR_c, r0
    88f0:	e8bd0001 	pop	{r0}
    88f4:	e28dd00c 	add	sp, sp, #12
    88f8:	e8bd8000 	pop	{pc}
    88fc:	20200004 	eorcs	r0, r0, r4
    8900:	2020001c 	eorcs	r0, r0, ip, lsl r0
    8904:	20003004 	andcs	r3, r0, r4
    8908:	20003010 	andcs	r3, r0, r0, lsl r0
    890c:	20003000 	andcs	r3, r0, r0
    8910:	2000b210 	andcs	fp, r0, r0, lsl r2

00008914 <start_sched>:
    8914:	e92d4008 	push	{r3, lr}
    8918:	e92d0001 	push	{r0}
    891c:	e10f0000 	mrs	r0, CPSR
    8920:	e3800080 	orr	r0, r0, #128	; 0x80
    8924:	e121f000 	msr	CPSR_c, r0
    8928:	e8bd0001 	pop	{r0}
    892c:	ebffffcb 	bl	8860 <init_hw>
    8930:	ebffffab 	bl	87e4 <set_tick_and_enable_timer>
    8934:	e92d0001 	push	{r0}
    8938:	e10f0000 	mrs	r0, CPSR
    893c:	e3c00080 	bic	r0, r0, #128	; 0x80
    8940:	e121f000 	msr	CPSR_c, r0
    8944:	e8bd0001 	pop	{r0}
    8948:	e8bd8008 	pop	{r3, pc}

0000894c <create_process>:
    894c:	e52de004 	push	{lr}		; (str lr, [sp, #-4]!)
    8950:	e24dd014 	sub	sp, sp, #20
    8954:	e58d0004 	str	r0, [sp, #4]
    8958:	e58d1000 	str	r1, [sp]
    895c:	e3a00020 	mov	r0, #32
    8960:	ebffff1e 	bl	85e0 <malloc_alloc>
    8964:	e58d000c 	str	r0, [sp, #12]
    8968:	e59d300c 	ldr	r3, [sp, #12]
    896c:	e3a02000 	mov	r2, #0
    8970:	e5c32000 	strb	r2, [r3]
    8974:	e59d300c 	ldr	r3, [sp, #12]
    8978:	e59d2000 	ldr	r2, [sp]
    897c:	e583201c 	str	r2, [r3, #28]
    8980:	e59d300c 	ldr	r3, [sp, #12]
    8984:	e59d2004 	ldr	r2, [sp, #4]
    8988:	e5832010 	str	r2, [r3, #16]
    898c:	e59f00b8 	ldr	r0, [pc, #184]	; 8a4c <create_process+0x100>
    8990:	ebffff12 	bl	85e0 <malloc_alloc>
    8994:	e1a02000 	mov	r2, r0
    8998:	e59d300c 	ldr	r3, [sp, #12]
    899c:	e5832014 	str	r2, [r3, #20]
    89a0:	e59d300c 	ldr	r3, [sp, #12]
    89a4:	e5933014 	ldr	r3, [r3, #20]
    89a8:	e2833cbb 	add	r3, r3, #47872	; 0xbb00
    89ac:	e28330b7 	add	r3, r3, #183	; 0xb7
    89b0:	e59d200c 	ldr	r2, [sp, #12]
    89b4:	e5823018 	str	r3, [r2, #24]
    89b8:	e59d300c 	ldr	r3, [sp, #12]
    89bc:	e3a02000 	mov	r2, #0
    89c0:	e583200c 	str	r2, [r3, #12]
    89c4:	e59f3084 	ldr	r3, [pc, #132]	; 8a50 <create_process+0x104>
    89c8:	e5933000 	ldr	r3, [r3]
    89cc:	e3530000 	cmp	r3, #0
    89d0:	1a000009 	bne	89fc <create_process+0xb0>
    89d4:	e59d300c 	ldr	r3, [sp, #12]
    89d8:	e59d200c 	ldr	r2, [sp, #12]
    89dc:	e5832004 	str	r2, [r3, #4]
    89e0:	e59d300c 	ldr	r3, [sp, #12]
    89e4:	e59d200c 	ldr	r2, [sp, #12]
    89e8:	e5832008 	str	r2, [r3, #8]
    89ec:	e59f305c 	ldr	r3, [pc, #92]	; 8a50 <create_process+0x104>
    89f0:	e59d200c 	ldr	r2, [sp, #12]
    89f4:	e5832000 	str	r2, [r3]
    89f8:	ea000011 	b	8a44 <create_process+0xf8>
    89fc:	e59f304c 	ldr	r3, [pc, #76]	; 8a50 <create_process+0x104>
    8a00:	e5933000 	ldr	r3, [r3]
    8a04:	e5932008 	ldr	r2, [r3, #8]
    8a08:	e59d300c 	ldr	r3, [sp, #12]
    8a0c:	e5832008 	str	r2, [r3, #8]
    8a10:	e59f3038 	ldr	r3, [pc, #56]	; 8a50 <create_process+0x104>
    8a14:	e5932000 	ldr	r2, [r3]
    8a18:	e59d300c 	ldr	r3, [sp, #12]
    8a1c:	e5832004 	str	r2, [r3, #4]
    8a20:	e59f3028 	ldr	r3, [pc, #40]	; 8a50 <create_process+0x104>
    8a24:	e5933000 	ldr	r3, [r3]
    8a28:	e5933008 	ldr	r3, [r3, #8]
    8a2c:	e59d200c 	ldr	r2, [sp, #12]
    8a30:	e5832004 	str	r2, [r3, #4]
    8a34:	e59f3014 	ldr	r3, [pc, #20]	; 8a50 <create_process+0x104>
    8a38:	e5933000 	ldr	r3, [r3]
    8a3c:	e59d200c 	ldr	r2, [sp, #12]
    8a40:	e5832008 	str	r2, [r3, #8]
    8a44:	e28dd014 	add	sp, sp, #20
    8a48:	e8bd8000 	pop	{pc}
    8a4c:	0000bbbb 			; <UNDEFINED> instruction: 0x0000bbbb
    8a50:	00008ffc 	strdeq	r8, [r0], -ip

00008a54 <ctx_switch>:
    8a54:	e24ee004 	sub	lr, lr, #4
    8a58:	f96d0513 	srsdb	sp!, #19
    8a5c:	f1020013 	cps	#19
    8a60:	e92d5fff 	push	{r0, r1, r2, r3, r4, r5, r6, r7, r8, r9, sl, fp, ip, lr}
    8a64:	e92d0001 	push	{r0}
    8a68:	e10f0000 	mrs	r0, CPSR
    8a6c:	e3800080 	orr	r0, r0, #128	; 0x80
    8a70:	e121f000 	msr	CPSR_c, r0
    8a74:	e8bd0001 	pop	{r0}
    8a78:	e59f31c8 	ldr	r3, [pc, #456]	; 8c48 <ctx_switch+0x1f4>
    8a7c:	e5933000 	ldr	r3, [r3]
    8a80:	e1a0200d 	mov	r2, sp
    8a84:	e5832018 	str	r2, [r3, #24]
    8a88:	e59f31b8 	ldr	r3, [pc, #440]	; 8c48 <ctx_switch+0x1f4>
    8a8c:	e5933000 	ldr	r3, [r3]
    8a90:	e5932004 	ldr	r2, [r3, #4]
    8a94:	e59f31ac 	ldr	r3, [pc, #428]	; 8c48 <ctx_switch+0x1f4>
    8a98:	e5832000 	str	r2, [r3]
    8a9c:	e59f31a4 	ldr	r3, [pc, #420]	; 8c48 <ctx_switch+0x1f4>
    8aa0:	e5933000 	ldr	r3, [r3]
    8aa4:	e5933018 	ldr	r3, [r3, #24]
    8aa8:	e1a0d003 	mov	sp, r3
    8aac:	ea00001f 	b	8b30 <ctx_switch+0xdc>
    8ab0:	e59f3190 	ldr	r3, [pc, #400]	; 8c48 <ctx_switch+0x1f4>
    8ab4:	e5933000 	ldr	r3, [r3]
    8ab8:	e5d33000 	ldrb	r3, [r3]
    8abc:	e3530002 	cmp	r3, #2
    8ac0:	1a000011 	bne	8b0c <ctx_switch+0xb8>
    8ac4:	e59f317c 	ldr	r3, [pc, #380]	; 8c48 <ctx_switch+0x1f4>
    8ac8:	e5934000 	ldr	r4, [r3]
    8acc:	e5943008 	ldr	r3, [r4, #8]
    8ad0:	e5942004 	ldr	r2, [r4, #4]
    8ad4:	e5832004 	str	r2, [r3, #4]
    8ad8:	e5943004 	ldr	r3, [r4, #4]
    8adc:	e5942008 	ldr	r2, [r4, #8]
    8ae0:	e5832008 	str	r2, [r3, #8]
    8ae4:	e59f315c 	ldr	r3, [pc, #348]	; 8c48 <ctx_switch+0x1f4>
    8ae8:	e5933000 	ldr	r3, [r3]
    8aec:	e5932008 	ldr	r2, [r3, #8]
    8af0:	e59f3150 	ldr	r3, [pc, #336]	; 8c48 <ctx_switch+0x1f4>
    8af4:	e5832000 	str	r2, [r3]
    8af8:	e5943014 	ldr	r3, [r4, #20]
    8afc:	e1a00003 	mov	r0, r3
    8b00:	ebfffdeb 	bl	82b4 <malloc_free>
    8b04:	e1a00004 	mov	r0, r4
    8b08:	ebfffde9 	bl	82b4 <malloc_free>
    8b0c:	e59f3134 	ldr	r3, [pc, #308]	; 8c48 <ctx_switch+0x1f4>
    8b10:	e5933000 	ldr	r3, [r3]
    8b14:	e5932004 	ldr	r2, [r3, #4]
    8b18:	e59f3128 	ldr	r3, [pc, #296]	; 8c48 <ctx_switch+0x1f4>
    8b1c:	e5832000 	str	r2, [r3]
    8b20:	e59f3120 	ldr	r3, [pc, #288]	; 8c48 <ctx_switch+0x1f4>
    8b24:	e5933000 	ldr	r3, [r3]
    8b28:	e5933018 	ldr	r3, [r3, #24]
    8b2c:	e1a0d003 	mov	sp, r3
    8b30:	e59f3110 	ldr	r3, [pc, #272]	; 8c48 <ctx_switch+0x1f4>
    8b34:	e5933000 	ldr	r3, [r3]
    8b38:	e5d33000 	ldrb	r3, [r3]
    8b3c:	e3530002 	cmp	r3, #2
    8b40:	0affffda 	beq	8ab0 <ctx_switch+0x5c>
    8b44:	e59f30fc 	ldr	r3, [pc, #252]	; 8c48 <ctx_switch+0x1f4>
    8b48:	e5933000 	ldr	r3, [r3]
    8b4c:	e5d33000 	ldrb	r3, [r3]
    8b50:	e3530003 	cmp	r3, #3
    8b54:	0affffd5 	beq	8ab0 <ctx_switch+0x5c>
    8b58:	e59f30e8 	ldr	r3, [pc, #232]	; 8c48 <ctx_switch+0x1f4>
    8b5c:	e5934000 	ldr	r4, [r3]
    8b60:	e5d43000 	ldrb	r3, [r4]
    8b64:	e3530004 	cmp	r3, #4
    8b68:	1a000007 	bne	8b8c <ctx_switch+0x138>
    8b6c:	e594300c 	ldr	r3, [r4, #12]
    8b70:	e2433001 	sub	r3, r3, #1
    8b74:	e584300c 	str	r3, [r4, #12]
    8b78:	e594300c 	ldr	r3, [r4, #12]
    8b7c:	e3530000 	cmp	r3, #0
    8b80:	ca000001 	bgt	8b8c <ctx_switch+0x138>
    8b84:	e3a03001 	mov	r3, #1
    8b88:	e5c43000 	strb	r3, [r4]
    8b8c:	e5944004 	ldr	r4, [r4, #4]
    8b90:	e59f30b0 	ldr	r3, [pc, #176]	; 8c48 <ctx_switch+0x1f4>
    8b94:	e5933000 	ldr	r3, [r3]
    8b98:	e1540003 	cmp	r4, r3
    8b9c:	1affffef 	bne	8b60 <ctx_switch+0x10c>
    8ba0:	e59f30a0 	ldr	r3, [pc, #160]	; 8c48 <ctx_switch+0x1f4>
    8ba4:	e5933000 	ldr	r3, [r3]
    8ba8:	e5d33000 	ldrb	r3, [r3]
    8bac:	e3530000 	cmp	r3, #0
    8bb0:	1a00001c 	bne	8c28 <ctx_switch+0x1d4>
    8bb4:	e59f308c 	ldr	r3, [pc, #140]	; 8c48 <ctx_switch+0x1f4>
    8bb8:	e5933000 	ldr	r3, [r3]
    8bbc:	e3a02001 	mov	r2, #1
    8bc0:	e5c32000 	strb	r2, [r3]
    8bc4:	ebffff06 	bl	87e4 <set_tick_and_enable_timer>
    8bc8:	e92d0001 	push	{r0}
    8bcc:	e10f0000 	mrs	r0, CPSR
    8bd0:	e3c00080 	bic	r0, r0, #128	; 0x80
    8bd4:	e121f000 	msr	CPSR_c, r0
    8bd8:	e8bd0001 	pop	{r0}
    8bdc:	e59f3064 	ldr	r3, [pc, #100]	; 8c48 <ctx_switch+0x1f4>
    8be0:	e5933000 	ldr	r3, [r3]
    8be4:	e5933010 	ldr	r3, [r3, #16]
    8be8:	e59f2058 	ldr	r2, [pc, #88]	; 8c48 <ctx_switch+0x1f4>
    8bec:	e5922000 	ldr	r2, [r2]
    8bf0:	e592201c 	ldr	r2, [r2, #28]
    8bf4:	e1a00002 	mov	r0, r2
    8bf8:	e12fff33 	blx	r3
    8bfc:	e92d0001 	push	{r0}
    8c00:	e10f0000 	mrs	r0, CPSR
    8c04:	e3800080 	orr	r0, r0, #128	; 0x80
    8c08:	e121f000 	msr	CPSR_c, r0
    8c0c:	e8bd0001 	pop	{r0}
    8c10:	e59f3030 	ldr	r3, [pc, #48]	; 8c48 <ctx_switch+0x1f4>
    8c14:	e5933000 	ldr	r3, [r3]
    8c18:	e3a02002 	mov	r2, #2
    8c1c:	e5c32000 	strb	r2, [r3]
    8c20:	ebffff8b 	bl	8a54 <ctx_switch>
    8c24:	ea000001 	b	8c30 <ctx_switch+0x1dc>
    8c28:	ebfffeed 	bl	87e4 <set_tick_and_enable_timer>
    8c2c:	e8bd5fff 	pop	{r0, r1, r2, r3, r4, r5, r6, r7, r8, r9, sl, fp, ip, lr}
    8c30:	f8bd0a00 	rfeia	sp!
    8c34:	e92d0001 	push	{r0}
    8c38:	e10f0000 	mrs	r0, CPSR
    8c3c:	e3c00080 	bic	r0, r0, #128	; 0x80
    8c40:	e121f000 	msr	CPSR_c, r0
    8c44:	e8bd0001 	pop	{r0}
    8c48:	00008ffc 	strdeq	r8, [r0], -ip

00008c4c <sleep_proc>:
    8c4c:	e24dd008 	sub	sp, sp, #8
    8c50:	e58d0004 	str	r0, [sp, #4]
    8c54:	e59f3038 	ldr	r3, [pc, #56]	; 8c94 <sleep_proc+0x48>
    8c58:	e5933000 	ldr	r3, [r3]
    8c5c:	e3a02004 	mov	r2, #4
    8c60:	e5c32000 	strb	r2, [r3]
    8c64:	e59f3028 	ldr	r3, [pc, #40]	; 8c94 <sleep_proc+0x48>
    8c68:	e5933000 	ldr	r3, [r3]
    8c6c:	e59d2004 	ldr	r2, [sp, #4]
    8c70:	e583200c 	str	r2, [r3, #12]
    8c74:	e1a00000 	nop			; (mov r0, r0)
    8c78:	e59f3014 	ldr	r3, [pc, #20]	; 8c94 <sleep_proc+0x48>
    8c7c:	e5933000 	ldr	r3, [r3]
    8c80:	e5d33000 	ldrb	r3, [r3]
    8c84:	e3530004 	cmp	r3, #4
    8c88:	0afffffa 	beq	8c78 <sleep_proc+0x2c>
    8c8c:	e28dd008 	add	sp, sp, #8
    8c90:	e12fff1e 	bx	lr
    8c94:	00008ffc 	strdeq	r8, [r0], -ip

00008c98 <sem_init>:
    8c98:	e52de004 	push	{lr}		; (str lr, [sp, #-4]!)
    8c9c:	e24dd00c 	sub	sp, sp, #12
    8ca0:	e58d0004 	str	r0, [sp, #4]
    8ca4:	e58d1000 	str	r1, [sp]
    8ca8:	e3a00010 	mov	r0, #16
    8cac:	ebfffe4b 	bl	85e0 <malloc_alloc>
    8cb0:	e1a02000 	mov	r2, r0
    8cb4:	e59d3004 	ldr	r3, [sp, #4]
    8cb8:	e5832000 	str	r2, [r3]
    8cbc:	e59d3004 	ldr	r3, [sp, #4]
    8cc0:	e5933000 	ldr	r3, [r3]
    8cc4:	e59d2000 	ldr	r2, [sp]
    8cc8:	e5832000 	str	r2, [r3]
    8ccc:	e59d3004 	ldr	r3, [sp, #4]
    8cd0:	e5933000 	ldr	r3, [r3]
    8cd4:	e3a02000 	mov	r2, #0
    8cd8:	e5832004 	str	r2, [r3, #4]
    8cdc:	e59d3004 	ldr	r3, [sp, #4]
    8ce0:	e5933000 	ldr	r3, [r3]
    8ce4:	e3a02000 	mov	r2, #0
    8ce8:	e5832008 	str	r2, [r3, #8]
    8cec:	e28dd00c 	add	sp, sp, #12
    8cf0:	e8bd8000 	pop	{pc}

00008cf4 <sem_up>:
    8cf4:	e52de004 	push	{lr}		; (str lr, [sp, #-4]!)
    8cf8:	e24dd014 	sub	sp, sp, #20
    8cfc:	e58d0004 	str	r0, [sp, #4]
    8d00:	e92d0001 	push	{r0}
    8d04:	e10f0000 	mrs	r0, CPSR
    8d08:	e3800080 	orr	r0, r0, #128	; 0x80
    8d0c:	e121f000 	msr	CPSR_c, r0
    8d10:	e8bd0001 	pop	{r0}
    8d14:	e59d3004 	ldr	r3, [sp, #4]
    8d18:	e5933004 	ldr	r3, [r3, #4]
    8d1c:	e3530000 	cmp	r3, #0
    8d20:	da000011 	ble	8d6c <sem_up+0x78>
    8d24:	e59d3004 	ldr	r3, [sp, #4]
    8d28:	e5933008 	ldr	r3, [r3, #8]
    8d2c:	e58d300c 	str	r3, [sp, #12]
    8d30:	e59d300c 	ldr	r3, [sp, #12]
    8d34:	e5932004 	ldr	r2, [r3, #4]
    8d38:	e59d3004 	ldr	r3, [sp, #4]
    8d3c:	e5832008 	str	r2, [r3, #8]
    8d40:	e59d3004 	ldr	r3, [sp, #4]
    8d44:	e5933004 	ldr	r3, [r3, #4]
    8d48:	e2432001 	sub	r2, r3, #1
    8d4c:	e59d3004 	ldr	r3, [sp, #4]
    8d50:	e5832004 	str	r2, [r3, #4]
    8d54:	e59d300c 	ldr	r3, [sp, #12]
    8d58:	e5933000 	ldr	r3, [r3]
    8d5c:	e3a02001 	mov	r2, #1
    8d60:	e5c32000 	strb	r2, [r3]
    8d64:	e59d000c 	ldr	r0, [sp, #12]
    8d68:	ebfffd51 	bl	82b4 <malloc_free>
    8d6c:	e59d3004 	ldr	r3, [sp, #4]
    8d70:	e5933000 	ldr	r3, [r3]
    8d74:	e2832001 	add	r2, r3, #1
    8d78:	e59d3004 	ldr	r3, [sp, #4]
    8d7c:	e5832000 	str	r2, [r3]
    8d80:	e92d0001 	push	{r0}
    8d84:	e10f0000 	mrs	r0, CPSR
    8d88:	e3c00080 	bic	r0, r0, #128	; 0x80
    8d8c:	e121f000 	msr	CPSR_c, r0
    8d90:	e8bd0001 	pop	{r0}
    8d94:	e28dd014 	add	sp, sp, #20
    8d98:	e8bd8000 	pop	{pc}

00008d9c <sem_down>:
    8d9c:	e52de004 	push	{lr}		; (str lr, [sp, #-4]!)
    8da0:	e24dd014 	sub	sp, sp, #20
    8da4:	e58d0004 	str	r0, [sp, #4]
    8da8:	e92d0001 	push	{r0}
    8dac:	e10f0000 	mrs	r0, CPSR
    8db0:	e3800080 	orr	r0, r0, #128	; 0x80
    8db4:	e121f000 	msr	CPSR_c, r0
    8db8:	e8bd0001 	pop	{r0}
    8dbc:	e59d3004 	ldr	r3, [sp, #4]
    8dc0:	e5933000 	ldr	r3, [r3]
    8dc4:	e2432001 	sub	r2, r3, #1
    8dc8:	e59d3004 	ldr	r3, [sp, #4]
    8dcc:	e5832000 	str	r2, [r3]
    8dd0:	e59d3004 	ldr	r3, [sp, #4]
    8dd4:	e5933000 	ldr	r3, [r3]
    8dd8:	e3530000 	cmp	r3, #0
    8ddc:	aa000030 	bge	8ea4 <sem_down+0x108>
    8de0:	e3a00008 	mov	r0, #8
    8de4:	ebfffdfd 	bl	85e0 <malloc_alloc>
    8de8:	e58d000c 	str	r0, [sp, #12]
    8dec:	e59f30cc 	ldr	r3, [pc, #204]	; 8ec0 <sem_down+0x124>
    8df0:	e5932000 	ldr	r2, [r3]
    8df4:	e59d300c 	ldr	r3, [sp, #12]
    8df8:	e5832000 	str	r2, [r3]
    8dfc:	e59d300c 	ldr	r3, [sp, #12]
    8e00:	e3a02000 	mov	r2, #0
    8e04:	e5832004 	str	r2, [r3, #4]
    8e08:	e59d3004 	ldr	r3, [sp, #4]
    8e0c:	e5933004 	ldr	r3, [r3, #4]
    8e10:	e3530000 	cmp	r3, #0
    8e14:	1a000006 	bne	8e34 <sem_down+0x98>
    8e18:	e59d3004 	ldr	r3, [sp, #4]
    8e1c:	e59d200c 	ldr	r2, [sp, #12]
    8e20:	e583200c 	str	r2, [r3, #12]
    8e24:	e59d3004 	ldr	r3, [sp, #4]
    8e28:	e59d200c 	ldr	r2, [sp, #12]
    8e2c:	e5832008 	str	r2, [r3, #8]
    8e30:	ea000006 	b	8e50 <sem_down+0xb4>
    8e34:	e59d3004 	ldr	r3, [sp, #4]
    8e38:	e593300c 	ldr	r3, [r3, #12]
    8e3c:	e59d200c 	ldr	r2, [sp, #12]
    8e40:	e5832004 	str	r2, [r3, #4]
    8e44:	e59d3004 	ldr	r3, [sp, #4]
    8e48:	e59d200c 	ldr	r2, [sp, #12]
    8e4c:	e583200c 	str	r2, [r3, #12]
    8e50:	e59d3004 	ldr	r3, [sp, #4]
    8e54:	e5933004 	ldr	r3, [r3, #4]
    8e58:	e2832001 	add	r2, r3, #1
    8e5c:	e59d3004 	ldr	r3, [sp, #4]
    8e60:	e5832004 	str	r2, [r3, #4]
    8e64:	e59f3054 	ldr	r3, [pc, #84]	; 8ec0 <sem_down+0x124>
    8e68:	e5933000 	ldr	r3, [r3]
    8e6c:	e3a02003 	mov	r2, #3
    8e70:	e5c32000 	strb	r2, [r3]
    8e74:	e92d0001 	push	{r0}
    8e78:	e10f0000 	mrs	r0, CPSR
    8e7c:	e3c00080 	bic	r0, r0, #128	; 0x80
    8e80:	e121f000 	msr	CPSR_c, r0
    8e84:	e8bd0001 	pop	{r0}
    8e88:	e1a00000 	nop			; (mov r0, r0)
    8e8c:	e59f302c 	ldr	r3, [pc, #44]	; 8ec0 <sem_down+0x124>
    8e90:	e5933000 	ldr	r3, [r3]
    8e94:	e5d33000 	ldrb	r3, [r3]
    8e98:	e3530003 	cmp	r3, #3
    8e9c:	0afffffa 	beq	8e8c <sem_down+0xf0>
    8ea0:	ea000004 	b	8eb8 <sem_down+0x11c>
    8ea4:	e92d0001 	push	{r0}
    8ea8:	e10f0000 	mrs	r0, CPSR
    8eac:	e3c00080 	bic	r0, r0, #128	; 0x80
    8eb0:	e121f000 	msr	CPSR_c, r0
    8eb4:	e8bd0001 	pop	{r0}
    8eb8:	e28dd014 	add	sp, sp, #20
    8ebc:	e8bd8000 	pop	{pc}
    8ec0:	00008ffc 	strdeq	r8, [r0], -ip

00008ec4 <mtx_init>:
    8ec4:	e52de004 	push	{lr}		; (str lr, [sp, #-4]!)
    8ec8:	e24dd00c 	sub	sp, sp, #12
    8ecc:	e58d0004 	str	r0, [sp, #4]
    8ed0:	e3a00008 	mov	r0, #8
    8ed4:	ebfffdc1 	bl	85e0 <malloc_alloc>
    8ed8:	e1a02000 	mov	r2, r0
    8edc:	e59d3004 	ldr	r3, [sp, #4]
    8ee0:	e5832000 	str	r2, [r3]
    8ee4:	e59d3004 	ldr	r3, [sp, #4]
    8ee8:	e5933000 	ldr	r3, [r3]
    8eec:	e3a02000 	mov	r2, #0
    8ef0:	e5832004 	str	r2, [r3, #4]
    8ef4:	e59d3004 	ldr	r3, [sp, #4]
    8ef8:	e5933000 	ldr	r3, [r3]
    8efc:	e1a00003 	mov	r0, r3
    8f00:	e3a01001 	mov	r1, #1
    8f04:	ebffff63 	bl	8c98 <sem_init>
    8f08:	e28dd00c 	add	sp, sp, #12
    8f0c:	e8bd8000 	pop	{pc}

00008f10 <mtx_lock>:
    8f10:	e52de004 	push	{lr}		; (str lr, [sp, #-4]!)
    8f14:	e24dd00c 	sub	sp, sp, #12
    8f18:	e58d0004 	str	r0, [sp, #4]
    8f1c:	e92d0001 	push	{r0}
    8f20:	e10f0000 	mrs	r0, CPSR
    8f24:	e3800080 	orr	r0, r0, #128	; 0x80
    8f28:	e121f000 	msr	CPSR_c, r0
    8f2c:	e8bd0001 	pop	{r0}
    8f30:	e59f3034 	ldr	r3, [pc, #52]	; 8f6c <mtx_lock+0x5c>
    8f34:	e5932000 	ldr	r2, [r3]
    8f38:	e59d3004 	ldr	r3, [sp, #4]
    8f3c:	e5832004 	str	r2, [r3, #4]
    8f40:	e59d3004 	ldr	r3, [sp, #4]
    8f44:	e5933000 	ldr	r3, [r3]
    8f48:	e1a00003 	mov	r0, r3
    8f4c:	ebffff92 	bl	8d9c <sem_down>
    8f50:	e92d0001 	push	{r0}
    8f54:	e10f0000 	mrs	r0, CPSR
    8f58:	e3c00080 	bic	r0, r0, #128	; 0x80
    8f5c:	e121f000 	msr	CPSR_c, r0
    8f60:	e8bd0001 	pop	{r0}
    8f64:	e28dd00c 	add	sp, sp, #12
    8f68:	e8bd8000 	pop	{pc}
    8f6c:	00008ffc 	strdeq	r8, [r0], -ip

00008f70 <mtx_unlock>:
    8f70:	e52de004 	push	{lr}		; (str lr, [sp, #-4]!)
    8f74:	e24dd00c 	sub	sp, sp, #12
    8f78:	e58d0004 	str	r0, [sp, #4]
    8f7c:	e92d0001 	push	{r0}
    8f80:	e10f0000 	mrs	r0, CPSR
    8f84:	e3800080 	orr	r0, r0, #128	; 0x80
    8f88:	e121f000 	msr	CPSR_c, r0
    8f8c:	e8bd0001 	pop	{r0}
    8f90:	e59d3004 	ldr	r3, [sp, #4]
    8f94:	e5932004 	ldr	r2, [r3, #4]
    8f98:	e59f3034 	ldr	r3, [pc, #52]	; 8fd4 <mtx_unlock+0x64>
    8f9c:	e5933000 	ldr	r3, [r3]
    8fa0:	e1520003 	cmp	r2, r3
    8fa4:	1a000003 	bne	8fb8 <mtx_unlock+0x48>
    8fa8:	e59d3004 	ldr	r3, [sp, #4]
    8fac:	e5933000 	ldr	r3, [r3]
    8fb0:	e1a00003 	mov	r0, r3
    8fb4:	ebffff4e 	bl	8cf4 <sem_up>
    8fb8:	e92d0001 	push	{r0}
    8fbc:	e10f0000 	mrs	r0, CPSR
    8fc0:	e3c00080 	bic	r0, r0, #128	; 0x80
    8fc4:	e121f000 	msr	CPSR_c, r0
    8fc8:	e8bd0001 	pop	{r0}
    8fcc:	e28dd00c 	add	sp, sp, #12
    8fd0:	e8bd8000 	pop	{pc}
    8fd4:	00008ffc 	strdeq	r8, [r0], -ip

Disassembly of section .bss:

00008fd8 <size>:
    8fd8:	00000000 	andeq	r0, r0, r0

00008fdc <sorted>:
	...

00008ffc <current_process>:
    8ffc:	00000000 	andeq	r0, r0, r0

00009000 <insert_sem>:
    9000:	00000000 	andeq	r0, r0, r0

00009004 <malloc_free_list>:
    9004:	00000000 	andeq	r0, r0, r0

00009008 <malloc_head>:
    9008:	00000000 	andeq	r0, r0, r0

Disassembly of section .ARM.attributes:

00000000 <.ARM.attributes>:
   0:	00003141 	andeq	r3, r0, r1, asr #2
   4:	61656100 	cmnvs	r5, r0, lsl #2
   8:	01006962 	tsteq	r0, r2, ror #18
   c:	00000027 	andeq	r0, r0, r7, lsr #32
  10:	005a3605 	subseq	r3, sl, r5, lsl #12
  14:	01080706 	tsteq	r8, r6, lsl #14
  18:	020a0109 	andeq	r0, sl, #1073741826	; 0x40000002
  1c:	01140412 	tsteq	r4, r2, lsl r4
  20:	03170115 	tsteq	r7, #1073741829	; 0x40000005
  24:	011a0118 	tsteq	sl, r8, lsl r1
  28:	011c031b 	tsteq	ip, fp, lsl r3
  2c:	012c0122 	teqeq	ip, r2, lsr #2
  30:	Address 0x0000000000000030 is out of bounds.


Disassembly of section .comment:

00000000 <.comment>:
   0:	3a434347 	bcc	10d0d24 <__bss_end+0x10c7d18>
   4:	4e472820 	cdpmi	8, 4, cr2, cr7, cr0, {1}
   8:	34202955 	strtcc	r2, [r0], #-2389	; 0x955
   c:	312e372e 	teqcc	lr, lr, lsr #14
	...

Disassembly of section .debug_line:

00000000 <.debug_line>:
   0:	00000061 	andeq	r0, r0, r1, rrx
   4:	00200002 	eoreq	r0, r0, r2
   8:	01020000 	mrseq	r0, (UNDEF: 2)
   c:	000d0efb 	strdeq	r0, [sp], -fp
  10:	01010101 	tsteq	r1, r1, lsl #2
  14:	01000000 	mrseq	r0, (UNDEF: 0)
  18:	00010000 	andeq	r0, r1, r0
  1c:	74636576 	strbtvc	r6, [r3], #-1398	; 0x576
  20:	2e73726f 	cdpcs	2, 7, cr7, cr3, cr15, {3}
  24:	00000073 	andeq	r0, r0, r3, ror r0
  28:	05000000 	streq	r0, [r0, #-0]
  2c:	00800002 	addeq	r0, r0, r2
  30:	2f2f1900 	svccs	0x002f1900
  34:	2f2f2f2f 	svccs	0x002f2f2f
  38:	080b032f 	stmdaeq	fp, {r0, r1, r2, r3, r5, r8, r9}
  3c:	2f2f2f20 	svccs	0x002f2f20
  40:	2f322f2f 	svccs	0x00322f2f
  44:	2f2f322f 	svccs	0x002f322f
  48:	302f2f31 	eorcc	r2, pc, r1, lsr pc	; <UNPREDICTABLE>
  4c:	2f2f2f2f 	svccs	0x002f2f2f
  50:	322f2f2f 	eorcc	r2, pc, #188	; 0xbc
  54:	322f322f 	eorcc	r3, pc, #-268435454	; 0xf0000002
  58:	322f322f 	eorcc	r3, pc, #-268435454	; 0xf0000002
  5c:	3032322f 	eorscc	r3, r2, pc, lsr #4
  60:	01000202 	tsteq	r0, r2, lsl #4
  64:	0000c801 	andeq	ip, r0, r1, lsl #16
  68:	8b000200 	blhi	870 <_start-0x7790>
  6c:	02000000 	andeq	r0, r0, #0
  70:	0d0efb01 	vstreq	d15, [lr, #-4]
  74:	01010100 	mrseq	r0, (UNDEF: 17)
  78:	00000001 	andeq	r0, r0, r1
  7c:	01000001 	tsteq	r0, r1
  80:	74706f2f 	ldrbtvc	r6, [r0], #-3887	; 0xf2f
  84:	6669342f 	strbtvs	r3, [r9], -pc, lsr #8
  88:	2f534c2d 	svccs	0x00534c2d
  8c:	2d6d7261 	sfmcs	f7, 2, [sp, #-388]!	; 0xfffffe7c
  90:	656e6f6e 	strbvs	r6, [lr, #-3950]!	; 0xf6e
  94:	6261652d 	rsbvs	r6, r1, #188743680	; 0xb400000
  98:	63672d69 	cmnvs	r7, #6720	; 0x1a40
  9c:	696c2f63 	stmdbvs	ip!, {r0, r1, r5, r6, r8, r9, sl, fp, sp}^
  a0:	63672f62 	cmnvs	r7, #392	; 0x188
  a4:	72612f63 	rsbvc	r2, r1, #396	; 0x18c
  a8:	6f6e2d6d 	svcvs	0x006e2d6d
  ac:	652d656e 	strvs	r6, [sp, #-1390]!	; 0x56e
  b0:	2f696261 	svccs	0x00696261
  b4:	2e372e34 	mrccs	14, 1, r2, cr7, cr4, {1}
  b8:	6e692f31 	mcrvs	15, 3, r2, cr9, cr1, {1}
  bc:	64756c63 	ldrbtvs	r6, [r5], #-3171	; 0xc63
  c0:	2e2e0065 	cdpcs	0, 2, cr0, cr14, cr5, {3}
  c4:	00736f2f 	rsbseq	r6, r3, pc, lsr #30
  c8:	72656b00 	rsbvc	r6, r5, #0
  cc:	2e6c656e 	cdpcs	5, 6, cr6, cr12, cr14, {3}
  d0:	00000063 	andeq	r0, r0, r3, rrx
  d4:	64747300 	ldrbtvs	r7, [r4], #-768	; 0x300
  d8:	2d746e69 	ldclcs	14, cr6, [r4, #-420]!	; 0xfffffe5c
  dc:	2e636367 	cdpcs	3, 6, cr6, cr3, cr7, {3}
  e0:	00010068 	andeq	r0, r1, r8, rrx
  e4:	68637300 	stmdavs	r3!, {r8, r9, ip, sp, lr}^
  e8:	682e6465 	stmdavs	lr!, {r0, r2, r5, r6, sl, sp, lr}
  ec:	00000200 	andeq	r0, r0, r0, lsl #4
  f0:	2e6d6573 	mcrcs	5, 3, r6, cr13, cr3, {3}
  f4:	00020068 	andeq	r0, r2, r8, rrx
  f8:	05000000 	streq	r0, [r0, #-0]
  fc:	0080d002 	addeq	sp, r0, r2
 100:	010b0300 	mrseq	r0, (UNDEF: 59)
 104:	83bc4b67 			; <UNDEFINED> instruction: 0x83bc4b67
 108:	a1839f9f 	strexge	r9, pc, [r3]	; <UNPREDICTABLE>
 10c:	4b4b4e4b 	blmi	12d3a40 <__bss_end+0x12caa34>
 110:	4b4b4b4b 	blmi	12d2e44 <__bss_end+0x12c9e38>
 114:	02004d4b 	andeq	r4, r0, #4800	; 0x12c0
 118:	00670204 	rsbeq	r0, r7, r4, lsl #4
 11c:	08020402 	stmdaeq	r2, {r1, sl}
 120:	0402003b 	streq	r0, [r2], #-59	; 0x3b
 124:	06660601 	strbteq	r0, [r6], -r1, lsl #12
 128:	2f30686a 	svccs	0x0030686a
 12c:	01000a02 	tsteq	r0, r2, lsl #20
 130:	0000dd01 	andeq	sp, r0, r1, lsl #26
 134:	2a000200 	bcs	93c <_start-0x76c4>
 138:	02000000 	andeq	r0, r0, #0
 13c:	0d0efb01 	vstreq	d15, [lr, #-4]
 140:	01010100 	mrseq	r0, (UNDEF: 17)
 144:	00000001 	andeq	r0, r0, r1
 148:	01000001 	tsteq	r0, r1
 14c:	6c616d00 	stclvs	13, cr6, [r1], #-0
 150:	2e636f6c 	cdpcs	15, 6, cr6, cr3, cr12, {3}
 154:	00000063 	andeq	r0, r0, r3, rrx
 158:	70797400 	rsbsvc	r7, r9, r0, lsl #8
 15c:	682e7365 	stmdavs	lr!, {r0, r2, r5, r6, r8, r9, ip, sp, lr}
 160:	00000000 	andeq	r0, r0, r0
 164:	02050000 	andeq	r0, r5, #0
 168:	0000821c 	andeq	r8, r0, ip, lsl r2
 16c:	4b011003 	blmi	44180 <__bss_end+0x3b174>
 170:	4b4b6a4b 	blmi	12daaa4 <__bss_end+0x12d1a98>
 174:	83f48367 	mvnshi	r8, #-1677721599	; 0x9c000001
 178:	67678483 	strbvs	r8, [r7, -r3, lsl #9]!
 17c:	30bb67bb 	ldrhtcc	r6, [fp], fp
 180:	674eb8bb 			; <UNDEFINED> instruction: 0x674eb8bb
 184:	01040200 	mrseq	r0, R12_usr
 188:	034a7a03 	movteq	r7, #43523	; 0xaa03
 18c:	68318209 	ldmdavs	r1!, {r0, r3, r9, pc}
 190:	3d08bb68 	vstrcc	d11, [r8, #-416]	; 0xfffffe60
 194:	bb6768bb 	bllt	19da488 <__bss_end+0x19d147c>
 198:	678484b9 			; <UNDEFINED> instruction: 0x678484b9
 19c:	8484b9bb 	strhi	fp, [r4], #2491	; 0x9bb
 1a0:	83d7a267 	bicshi	sl, r7, #1879048198	; 0x70000006
 1a4:	bb2f6867 	bllt	bda348 <__bss_end+0xbd133c>
 1a8:	4c676967 	stclmi	9, cr6, [r7], #-412	; 0xfffffe64
 1ac:	04020083 	streq	r0, [r2], #-131	; 0x83
 1b0:	66760301 	ldrbtvs	r0, [r6], -r1, lsl #6
 1b4:	039e7803 	orrseq	r7, lr, #196608	; 0x30000
 1b8:	4b682e14 	blmi	1a0ba10 <__bss_end+0x1a02a04>
 1bc:	4b67d767 	blmi	19f5f60 <__bss_end+0x19ecf54>
 1c0:	84836884 	strhi	r6, [r3], #2180	; 0x884
 1c4:	2f4b834b 	svccs	0x004b834b
 1c8:	01040200 	mrseq	r0, R12_usr
 1cc:	04020081 	streq	r0, [r2], #-129	; 0x81
 1d0:	06820602 	streq	r0, [r2], r2, lsl #12
 1d4:	4b832308 	blmi	fe0c8dfc <__bss_end+0xfe0bfdf0>
 1d8:	2f683f08 	svccs	0x00683f08
 1dc:	68671384 	stmdavs	r7!, {r2, r7, r8, r9, ip}^
 1e0:	4b676783 	blmi	19d9ff4 <__bss_end+0x19d0fe8>
 1e4:	004c4b4b 	subeq	r4, ip, fp, asr #22
 1e8:	67020402 	strvs	r0, [r2, -r2, lsl #8]
 1ec:	02040200 	andeq	r0, r4, #0
 1f0:	02003b08 	andeq	r3, r0, #8192	; 0x2000
 1f4:	66060104 	strvs	r0, [r6], -r4, lsl #2
 1f8:	02008506 	andeq	r8, r0, #25165824	; 0x1800000
 1fc:	00670204 	rsbeq	r0, r7, r4, lsl #4
 200:	08020402 	stmdaeq	r2, {r1, sl}
 204:	04020073 	streq	r0, [r2], #-115	; 0x73
 208:	06660601 	strbteq	r0, [r6], -r1, lsl #12
 20c:	00040285 	andeq	r0, r4, r5, lsl #5
 210:	004a0101 	subeq	r0, sl, r1, lsl #2
 214:	00020000 	andeq	r0, r2, r0
 218:	0000001b 	andeq	r0, r0, fp, lsl r0
 21c:	0efb0102 	cdpeq	1, 15, cr0, cr11, cr2, {0}
 220:	0101000d 	tsteq	r1, sp
 224:	00000101 	andeq	r0, r0, r1, lsl #2
 228:	00000100 	andeq	r0, r0, r0, lsl #2
 22c:	77680001 	strbvc	r0, [r8, -r1]!
 230:	0000632e 	andeq	r6, r0, lr, lsr #6
 234:	00000000 	andeq	r0, r0, r0
 238:	87e40205 	strbhi	r0, [r4, r5, lsl #4]!
 23c:	1b030000 	blne	c0244 <__bss_end+0xb7238>
 240:	67674b01 	strbvs	r4, [r7, -r1, lsl #22]!
 244:	09036768 	stmdbeq	r3, {r3, r5, r6, r8, r9, sl, sp, lr}
 248:	4e672f9e 	mcrmi	15, 3, r2, cr7, cr14, {4}
 24c:	4f51672f 	svcmi	0x0051672f
 250:	69676767 	stmdbvs	r7!, {r0, r1, r2, r5, r6, r8, r9, sl, sp, lr}^
 254:	6a676769 	bvs	19da000 <__bss_end+0x19d0ff4>
 258:	029f6869 	addseq	r6, pc, #6881280	; 0x690000
 25c:	01010010 	tsteq	r1, r0, lsl r0
 260:	000000ed 	andeq	r0, r0, sp, ror #1
 264:	00810002 	addeq	r0, r1, r2
 268:	01020000 	mrseq	r0, (UNDEF: 2)
 26c:	000d0efb 	strdeq	r0, [sp], -fp
 270:	01010101 	tsteq	r1, r1, lsl #2
 274:	01000000 	mrseq	r0, (UNDEF: 0)
 278:	2e010000 	cdpcs	0, 0, cr0, cr1, cr0, {0}
 27c:	736f2f2e 	cmnvc	pc, #184	; 0xb8
 280:	706f2f00 	rsbvc	r2, pc, r0, lsl #30
 284:	69342f74 	ldmdbvs	r4!, {r2, r4, r5, r6, r8, r9, sl, fp, sp}
 288:	534c2d66 	movtpl	r2, #52582	; 0xcd66
 28c:	6d72612f 	ldfvse	f6, [r2, #-188]!	; 0xffffff44
 290:	6e6f6e2d 	cdpvs	14, 6, cr6, cr15, cr13, {1}
 294:	61652d65 	cmnvs	r5, r5, ror #26
 298:	672d6962 	strvs	r6, [sp, -r2, ror #18]!
 29c:	6c2f6363 	stcvs	3, cr6, [pc], #-396	; 118 <_start-0x7ee8>
 2a0:	672f6269 	strvs	r6, [pc, -r9, ror #4]!
 2a4:	612f6363 	teqvs	pc, r3, ror #6
 2a8:	6e2d6d72 	mcrvs	13, 1, r6, cr13, cr2, {3}
 2ac:	2d656e6f 	stclcs	14, cr6, [r5, #-444]!	; 0xfffffe44
 2b0:	69626165 	stmdbvs	r2!, {r0, r2, r5, r6, r8, sp, lr}^
 2b4:	372e342f 	strcc	r3, [lr, -pc, lsr #8]!
 2b8:	692f312e 	stmdbvs	pc!, {r1, r2, r3, r5, r8, ip, sp}	; <UNPREDICTABLE>
 2bc:	756c636e 	strbvc	r6, [ip, #-878]!	; 0x36e
 2c0:	00006564 	andeq	r6, r0, r4, ror #10
 2c4:	65686373 	strbvs	r6, [r8, #-883]!	; 0x373
 2c8:	00632e64 	rsbeq	r2, r3, r4, ror #28
 2cc:	73000001 	movwvc	r0, #1
 2d0:	6e696474 	mcrvs	4, 3, r6, cr9, cr4, {3}
 2d4:	63672d74 	cmnvs	r7, #7424	; 0x1d00
 2d8:	00682e63 	rsbeq	r2, r8, r3, ror #28
 2dc:	73000002 	movwvc	r0, #2
 2e0:	64656863 	strbtvs	r6, [r5], #-2147	; 0x863
 2e4:	0100682e 	tsteq	r0, lr, lsr #16
 2e8:	00000000 	andeq	r0, r0, r0
 2ec:	89140205 	ldmdbhi	r4, {r0, r2, r9}
 2f0:	2f160000 	svccs	0x00160000
 2f4:	9f2f2f9f 	svcls	0x002f2f9f
 2f8:	67698430 			; <UNDEFINED> instruction: 0x67698430
 2fc:	bb9f6867 	bllt	fe7da4a0 <__bss_end+0xfe7d1494>
 300:	68678368 	stmdavs	r7!, {r3, r5, r6, r8, r9, pc}^
 304:	9f859f86 	svcls	0x00859f86
 308:	2f138485 	svccs	0x00138485
 30c:	a0313130 	eorsge	r3, r1, r0, lsr r1
 310:	2f849f85 	svccs	0x00849f85
 314:	68674c9f 	stmdavs	r7!, {r0, r1, r2, r3, r4, r7, sl, fp, lr}^
 318:	9f4d67a0 	svcls	0x004d67a0
 31c:	01040200 	mrseq	r0, R12_usr
 320:	00827203 	addeq	r7, r2, r3, lsl #4
 324:	06020402 	streq	r0, [r2], -r2, lsl #8
 328:	1203069e 	andne	r0, r3, #165675008	; 0x9e00000
 32c:	67674c9e 			; <UNDEFINED> instruction: 0x67674c9e
 330:	85304e67 	ldrhi	r4, [r0, #-3687]!	; 0xe67
 334:	9f2f839f 	svcls	0x002f839f
 338:	4d839ff3 	stcmi	15, cr9, [r3, #972]	; 0x3cc
 33c:	bb2f3330 	bllt	bcd004 <__bss_end+0xbc3ff8>
 340:	84834c15 	strhi	r4, [r3], #3093	; 0xc15
 344:	01040200 	mrseq	r0, R12_usr
 348:	a0062e06 	andge	r2, r6, r6, lsl #28
 34c:	01000602 	tsteq	r0, r2, lsl #12
 350:	0000d601 	andeq	sp, r0, r1, lsl #12
 354:	88000200 	stmdahi	r0, {r9}
 358:	02000000 	andeq	r0, r0, #0
 35c:	0d0efb01 	vstreq	d15, [lr, #-4]
 360:	01010100 	mrseq	r0, (UNDEF: 17)
 364:	00000001 	andeq	r0, r0, r1
 368:	01000001 	tsteq	r0, r1
 36c:	6f2f2e2e 	svcvs	0x002f2e2e
 370:	6f2f0073 	svcvs	0x002f0073
 374:	342f7470 	strtcc	r7, [pc], #-1136	; 37c <_start-0x7c84>
 378:	4c2d6669 	stcmi	6, cr6, [sp], #-420	; 0xfffffe5c
 37c:	72612f53 	rsbvc	r2, r1, #332	; 0x14c
 380:	6f6e2d6d 	svcvs	0x006e2d6d
 384:	652d656e 	strvs	r6, [sp, #-1390]!	; 0x56e
 388:	2d696261 	sfmcs	f6, 2, [r9, #-388]!	; 0xfffffe7c
 38c:	2f636367 	svccs	0x00636367
 390:	2f62696c 	svccs	0x0062696c
 394:	2f636367 	svccs	0x00636367
 398:	2d6d7261 	sfmcs	f7, 2, [sp, #-388]!	; 0xfffffe7c
 39c:	656e6f6e 	strbvs	r6, [lr, #-3950]!	; 0xf6e
 3a0:	6261652d 	rsbvs	r6, r1, #188743680	; 0xb400000
 3a4:	2e342f69 	cdpcs	15, 3, cr2, cr4, cr9, {3}
 3a8:	2f312e37 	svccs	0x00312e37
 3ac:	6c636e69 	stclvs	14, cr6, [r3], #-420	; 0xfffffe5c
 3b0:	00656475 	rsbeq	r6, r5, r5, ror r4
 3b4:	6d657300 	stclvs	3, cr7, [r5, #-0]
 3b8:	0100632e 	tsteq	r0, lr, lsr #6
 3bc:	74730000 	ldrbtvc	r0, [r3], #-0
 3c0:	746e6964 	strbtvc	r6, [lr], #-2404	; 0x964
 3c4:	6363672d 	cmnvs	r3, #11796480	; 0xb40000
 3c8:	0200682e 	andeq	r6, r0, #3014656	; 0x2e0000
 3cc:	63730000 	cmnvs	r3, #0
 3d0:	2e646568 	cdpcs	5, 6, cr6, cr4, cr8, {3}
 3d4:	00010068 	andeq	r0, r1, r8, rrx
 3d8:	6d657300 	stclvs	3, cr7, [r5, #-0]
 3dc:	0100682e 	tsteq	r0, lr, lsr #16
 3e0:	00000000 	andeq	r0, r0, r0
 3e4:	8c980205 	lfmhi	f0, 4, [r8], {5}
 3e8:	83170000 	tsthi	r7, #0
 3ec:	8383839f 	orrhi	r8, r3, #2080374786	; 0x7c000002
 3f0:	849f684c 	ldrhi	r6, [pc], #2124	; 3f8 <_start-0x7c08>
 3f4:	85a18368 	strhi	r8, [r1, #872]!	; 0x368
 3f8:	4d9f9f4c 	ldcmi	15, cr9, [pc, #304]	; 530 <_start-0x7ad0>
 3fc:	84a09f67 	strthi	r9, [r0], #3943	; 0xf67
 400:	83698367 	cmnhi	r9, #-1677721599	; 0x9c000001
 404:	69838667 	stmibvs	r3, {r0, r1, r2, r5, r6, r9, sl, pc}
 408:	009f83a0 	addseq	r8, pc, r0, lsr #7
 40c:	06010402 	streq	r0, [r1], -r2, lsl #8
 410:	33069e2e 	movwcc	r9, #28206	; 0x6e2e
 414:	9f6768a1 	svcls	0x006768a1
 418:	674ba083 	strbvs	sl, [fp, -r3, lsl #1]
 41c:	9f83839f 	svcls	0x0083839f
 420:	bb9f6767 	bllt	fe7da1c4 <__bss_end+0xfe7d11b8>
 424:	06029f84 	streq	r9, [r2], -r4, lsl #31
 428:	Address 0x0000000000000428 is out of bounds.


Disassembly of section .debug_info:

00000000 <.debug_info>:
   0:	00000063 	andeq	r0, r0, r3, rrx
   4:	00000002 	andeq	r0, r0, r2
   8:	01040000 	mrseq	r0, (UNDEF: 4)
   c:	00000000 	andeq	r0, r0, r0
  10:	00008000 	andeq	r8, r0, r0
  14:	000080d0 	ldrdeq	r8, [r0], -r0
  18:	74636576 	strbtvc	r6, [r3], #-1398	; 0x576
  1c:	2e73726f 	cdpcs	2, 7, cr7, cr3, cr15, {3}
  20:	682f0073 	stmdavs	pc!, {r0, r1, r4, r5, r6}	; <UNPREDICTABLE>
  24:	2f656d6f 	svccs	0x00656d6f
  28:	63616b61 	cmnvs	r1, #99328	; 0x18400
  2c:	63616b68 	cmnvs	r1, #106496	; 0x1a000
  30:	6f772f68 	svcvs	0x00772f68
  34:	70736b72 	rsbsvc	r6, r3, r2, ror fp
  38:	2f656361 	svccs	0x00656361
  3c:	636f7270 	cmnvs	pc, #7
  40:	2d737365 	ldclcs	3, cr7, [r3, #-404]!	; 0xfffffe6c
  44:	65686373 	strbvs	r6, [r8, #-883]!	; 0x373
  48:	656c7564 	strbvs	r7, [ip, #-1380]!	; 0x564
  4c:	6c732f72 	ldclvs	15, cr2, [r3], #-456	; 0xfffffe38
  50:	2d706565 	cfldr64cs	mvdx6, [r0, #-404]!	; 0xfffffe6c
  54:	74726f73 	ldrbtvc	r6, [r2], #-3955	; 0xf73
  58:	554e4700 	strbpl	r4, [lr, #-1792]	; 0x700
  5c:	20534120 	subscs	r4, r3, r0, lsr #2
  60:	32322e32 	eorscc	r2, r2, #800	; 0x320
  64:	a2800100 	addge	r0, r0, #0
  68:	02000002 	andeq	r0, r0, #2
  6c:	00001400 	andeq	r1, r0, r0, lsl #8
  70:	32010400 	andcc	r0, r1, #0
  74:	01000001 	tsteq	r0, r1
  78:	00000006 	andeq	r0, r0, r6
  7c:	00000061 	andeq	r0, r0, r1, rrx
  80:	000080d0 	ldrdeq	r8, [r0], -r0
  84:	0000821c 	andeq	r8, r0, ip, lsl r2
  88:	00000065 	andeq	r0, r0, r5, rrx
  8c:	9a060102 	bls	18049c <__bss_end+0x177490>
  90:	02000000 	andeq	r0, r0, #0
  94:	01530502 	cmpeq	r3, r2, lsl #10
  98:	04020000 	streq	r0, [r2], #-0
  9c:	00012305 	andeq	r2, r1, r5, lsl #6
  a0:	05080200 	streq	r0, [r8, #-512]	; 0x200
  a4:	0000011e 	andeq	r0, r0, lr, lsl r1
  a8:	98080102 	stmdals	r8, {r1, r8}
  ac:	02000000 	andeq	r0, r0, #0
  b0:	00a60702 	adceq	r0, r6, r2, lsl #14
  b4:	62030000 	andvs	r0, r3, #0
  b8:	02000001 	andeq	r0, r0, #1
  bc:	00005a34 	andeq	r5, r0, r4, lsr sl
  c0:	07040200 	streq	r0, [r4, -r0, lsl #4]
  c4:	000000f1 	strdeq	r0, [r0], -r1
  c8:	ec070802 	stc	8, cr0, [r7], {2}
  cc:	04000000 	streq	r0, [r0], #-0
  d0:	6e690504 	cdpvs	5, 6, cr0, cr9, cr4, {0}
  d4:	04020074 	streq	r0, [r2], #-116	; 0x74
  d8:	0000f607 	andeq	pc, r0, r7, lsl #12
  dc:	01030300 	mrseq	r0, SP_svc
  e0:	06030000 	streq	r0, [r3], -r0
  e4:	00000081 	andeq	r0, r0, r1, lsl #1
  e8:	00870405 	addeq	r0, r7, r5, lsl #8
  ec:	01060000 	mrseq	r0, (UNDEF: 6)
  f0:	00000093 	muleq	r0, r3, r0
  f4:	00009307 	andeq	r9, r0, r7, lsl #6
  f8:	04080000 	streq	r0, [r8], #-0
  fc:	07030109 	streq	r0, [r3, -r9, lsl #2]
 100:	000000bc 	strheq	r0, [r0], -ip
 104:	57454e0a 	strbpl	r4, [r5, -sl, lsl #28]
 108:	6b0b0000 	blvs	2c0110 <__bss_end+0x2b7104>
 10c:	01000001 	tsteq	r0, r1
 110:	0001730b 	andeq	r7, r1, fp, lsl #6
 114:	230b0200 	movwcs	r0, #45568	; 0xb200
 118:	03000000 	movweq	r0, #0
 11c:	0000520b 	andeq	r5, r0, fp, lsl #4
 120:	03000400 	movweq	r0, #1024	; 0x400
 124:	00000048 	andeq	r0, r0, r8, asr #32
 128:	00950703 	addseq	r0, r5, r3, lsl #14
 12c:	5b0c0000 	blpl	300134 <__bss_end+0x2f7128>
 130:	20000000 	andcs	r0, r0, r0
 134:	01430903 	cmpeq	r3, r3, lsl #18
 138:	1d0d0000 	stcne	0, cr0, [sp, #-0]
 13c:	03000000 	movweq	r0, #0
 140:	0000bc0a 	andeq	fp, r0, sl, lsl #24
 144:	00230200 	eoreq	r0, r3, r0, lsl #4
 148:	00000f0d 	andeq	r0, r0, sp, lsl #30
 14c:	430b0300 	movwmi	r0, #45824	; 0xb300
 150:	02000001 	andeq	r0, r0, #1
 154:	830d0423 	movwhi	r0, #54307	; 0xd423
 158:	03000001 	movweq	r0, #1
 15c:	0001430c 	andeq	r4, r1, ip, lsl #6
 160:	08230200 	stmdaeq	r3!, {r9}
 164:	0000000d 	andeq	r0, r0, sp
 168:	680e0300 	stmdavs	lr, {r8, r9}
 16c:	02000000 	andeq	r0, r0, #0
 170:	3c0d0c23 	stccc	12, cr0, [sp], {35}	; 0x23
 174:	03000000 	movweq	r0, #0
 178:	00007610 	andeq	r7, r0, r0, lsl r6
 17c:	10230200 	eorne	r0, r3, r0, lsl #4
 180:	00010a0d 	andeq	r0, r1, sp, lsl #20
 184:	49120300 	ldmdbmi	r2, {r8, r9}
 188:	02000001 	andeq	r0, r0, #1
 18c:	730e1423 	movwvc	r1, #58403	; 0xe423
 190:	13030070 	movwne	r0, #12400	; 0x3070
 194:	00000156 	andeq	r0, r0, r6, asr r1
 198:	0d182302 	ldceq	3, cr2, [r8, #-8]
 19c:	0000015d 	andeq	r0, r0, sp, asr r1
 1a0:	00931403 	addseq	r1, r3, r3, lsl #8
 1a4:	23020000 	movwcs	r0, #8192	; 0x2000
 1a8:	0405001c 	streq	r0, [r5], #-28
 1ac:	000000c7 	andeq	r0, r0, r7, asr #1
 1b0:	014f0405 	cmpeq	pc, r5, lsl #8
 1b4:	01020000 	mrseq	r0, (UNDEF: 2)
 1b8:	0000a108 	andeq	sl, r0, r8, lsl #2
 1bc:	4f040500 	svcmi	0x00040500
 1c0:	0c000000 	stceq	0, cr0, [r0], {-0}
 1c4:	000000b9 	strheq	r0, [r0], -r9
 1c8:	85050408 	strhi	r0, [r5, #-1032]	; 0x408
 1cc:	0d000001 	stceq	0, cr0, [r0, #-4]
 1d0:	00000383 	andeq	r0, r0, r3, lsl #7
 1d4:	01430604 	cmpeq	r3, r4, lsl #12
 1d8:	23020000 	movwcs	r0, #8192	; 0x2000
 1dc:	000f0d00 	andeq	r0, pc, r0, lsl #26
 1e0:	07040000 	streq	r0, [r4, -r0]
 1e4:	00000185 	andeq	r0, r0, r5, lsl #3
 1e8:	00042302 	andeq	r2, r4, r2, lsl #6
 1ec:	015c0405 	cmpeq	ip, r5, lsl #8
 1f0:	d60c0000 	strle	r0, [ip], -r0
 1f4:	10000000 	andne	r0, r0, r0
 1f8:	01d00a04 	bicseq	r0, r0, r4, lsl #20
 1fc:	760e0000 	strvc	r0, [lr], -r0
 200:	04006c61 	streq	r6, [r0], #-3169	; 0xc61
 204:	0000680b 	andeq	r6, r0, fp, lsl #16
 208:	00230200 	eoreq	r0, r3, r0, lsl #4
 20c:	00014b0d 	andeq	r4, r1, sp, lsl #22
 210:	680c0400 	stmdavs	ip, {sl}
 214:	02000000 	andeq	r0, r0, #0
 218:	2c0d0423 	cfstrscs	mvf0, [sp], {35}	; 0x23
 21c:	04000001 	streq	r0, [r0], #-1
 220:	0001850d 	andeq	r8, r1, sp, lsl #10
 224:	08230200 	stmdaeq	r3!, {r9}
 228:	00013e0d 	andeq	r3, r1, sp, lsl #28
 22c:	850e0400 	strhi	r0, [lr, #-1024]	; 0x400
 230:	02000001 	andeq	r0, r0, #1
 234:	05000c23 	streq	r0, [r0, #-3107]	; 0xc23
 238:	00018b04 	andeq	r8, r1, r4, lsl #22
 23c:	93010f00 	movwls	r0, #7936	; 0x1f00
 240:	01000000 	mrseq	r0, (UNDEF: 0)
 244:	80d0010c 	sbcshi	r0, r0, ip, lsl #2
 248:	81580000 	cmphi	r8, r0
 24c:	00000000 	andeq	r0, r0, r0
 250:	0d010000 	stceq	0, cr0, [r1, #-0]
 254:	10000002 	andne	r0, r0, r2
 258:	0000015d 	andeq	r0, r0, sp, asr r1
 25c:	00930c01 	addseq	r0, r3, r1, lsl #24
 260:	91020000 	mrsls	r0, (UNDEF: 2)
 264:	002b116c 	eoreq	r1, fp, ip, ror #2
 268:	0d010000 	stceq	0, cr0, [r1, #-0]
 26c:	00000068 	andeq	r0, r0, r8, rrx
 270:	00749102 	rsbseq	r9, r4, r2, lsl #2
 274:	00c90112 	sbceq	r0, r9, r2, lsl r1
 278:	17010000 	strne	r0, [r1, -r0]
 27c:	00006801 	andeq	r6, r0, r1, lsl #16
 280:	00815800 	addeq	r5, r1, r0, lsl #16
 284:	00821c00 	addeq	r1, r2, r0, lsl #24
 288:	00002c00 	andeq	r2, r0, r0, lsl #24
 28c:	02460100 	subeq	r0, r6, #0
 290:	14110000 	ldrne	r0, [r1], #-0
 294:	01000000 	mrseq	r0, (UNDEF: 0)
 298:	0002461b 	andeq	r4, r2, fp, lsl r6
 29c:	54910200 	ldrpl	r0, [r1], #512	; 0x200
 2a0:	01006913 	tsteq	r0, r3, lsl r9
 2a4:	00006825 	andeq	r6, r0, r5, lsr #16
 2a8:	74910200 	ldrvc	r0, [r1], #512	; 0x200
 2ac:	00681400 	rsbeq	r1, r8, r0, lsl #8
 2b0:	02560000 	subseq	r0, r6, #0
 2b4:	56150000 	ldrpl	r0, [r5], -r0
 2b8:	07000002 	streq	r0, [r0, -r2]
 2bc:	07040200 	streq	r0, [r4, -r0, lsl #4]
 2c0:	00000115 	andeq	r0, r0, r5, lsl r1
 2c4:	0000dc16 	andeq	sp, r0, r6, lsl ip
 2c8:	43180300 	tstmi	r8, #0
 2cc:	01000001 	tsteq	r0, r1
 2d0:	8ffc0305 	svchi	0x00fc0305
 2d4:	16160000 	ldrne	r0, [r6], -r0
 2d8:	01000000 	mrseq	r0, (UNDEF: 0)
 2dc:	00024607 	andeq	r4, r2, r7, lsl #12
 2e0:	03050100 	movweq	r0, #20736	; 0x5100
 2e4:	00008fdc 	ldrdeq	r8, [r0], -ip
 2e8:	00017e16 	andeq	r7, r1, r6, lsl lr
 2ec:	68080100 	stmdavs	r8, {r8}
 2f0:	01000000 	mrseq	r0, (UNDEF: 0)
 2f4:	8fd80305 	svchi	0x00d80305
 2f8:	31160000 	tstcc	r6, r0
 2fc:	01000000 	mrseq	r0, (UNDEF: 0)
 300:	0001d00a 	andeq	sp, r1, sl
 304:	03050100 	movweq	r0, #20736	; 0x5100
 308:	00009000 	andeq	r9, r0, r0
 30c:	00042d00 	andeq	r2, r4, r0, lsl #26
 310:	3d000200 	sfmcc	f0, 4, [r0, #-0]
 314:	04000001 	streq	r0, [r0], #-1
 318:	00013201 	andeq	r3, r1, r1, lsl #4
 31c:	02f30100 	rscseq	r0, r3, #0
 320:	01a90000 			; <UNDEFINED> instruction: 0x01a90000
 324:	821c0000 	andshi	r0, ip, #0
 328:	87e40000 	strbhi	r0, [r4, r0]!
 32c:	01310000 	teqeq	r1, r0
 330:	02020000 	andeq	r0, r2, #0
 334:	0000a607 	andeq	sl, r0, r7, lsl #12
 338:	02980300 	addseq	r0, r8, #0
 33c:	05020000 	streq	r0, [r2, #-0]
 340:	00000037 	andeq	r0, r0, r7, lsr r0
 344:	f6070402 			; <UNDEFINED> instruction: 0xf6070402
 348:	03000000 	movweq	r0, #0
 34c:	000002c2 	andeq	r0, r0, r2, asr #5
 350:	00490602 	subeq	r0, r9, r2, lsl #12
 354:	01020000 	mrseq	r0, (UNDEF: 2)
 358:	00009808 	andeq	r9, r0, r8, lsl #16
 35c:	02df0400 	sbcseq	r0, pc, #0
 360:	01040000 	mrseq	r0, (UNDEF: 4)
 364:	00007903 	andeq	r7, r0, r3, lsl #18
 368:	017e0500 	cmneq	lr, r0, lsl #10
 36c:	04010000 	streq	r0, [r1], #-0
 370:	0000002c 	andeq	r0, r0, ip, lsr #32
 374:	05002302 	streq	r2, [r0, #-770]	; 0x302
 378:	00000226 	andeq	r0, r0, r6, lsr #4
 37c:	00790501 	rsbseq	r0, r9, r1, lsl #10
 380:	23020000 	movwcs	r0, #8192	; 0x2000
 384:	8f060004 	svchi	0x00060004
 388:	88000000 	stmdahi	r0, {}	; <UNPREDICTABLE>
 38c:	07000000 	streq	r0, [r0, -r0]
 390:	00000088 	andeq	r0, r0, r8, lsl #1
 394:	07040200 	streq	r0, [r4, -r0, lsl #4]
 398:	00000115 	andeq	r0, r0, r5, lsl r1
 39c:	a1080102 	tstge	r8, r2, lsl #2
 3a0:	04000000 	streq	r0, [r0], #-0
 3a4:	000001ee 	andeq	r0, r0, lr, ror #3
 3a8:	cd080108 	stfgts	f0, [r8, #-32]	; 0xffffffe0
 3ac:	05000000 	streq	r0, [r0, #-0]
 3b0:	0000017e 	andeq	r0, r0, lr, ror r1
 3b4:	002c0901 	eoreq	r0, ip, r1, lsl #18
 3b8:	23020000 	movwcs	r0, #8192	; 0x2000
 3bc:	02c80500 	sbceq	r0, r8, #0
 3c0:	0a010000 	beq	403c8 <__bss_end+0x373bc>
 3c4:	0000002c 	andeq	r0, r0, ip, lsr #32
 3c8:	05042302 	streq	r2, [r4, #-770]	; 0x302
 3cc:	000002d7 	ldrdeq	r0, [r0], -r7
 3d0:	00cd0b01 	sbceq	r0, sp, r1, lsl #22
 3d4:	23020000 	movwcs	r0, #8192	; 0x2000
 3d8:	dc060008 	stcle	0, cr0, [r6], {8}
 3dc:	dc000000 	stcle	0, cr0, [r0], {-0}
 3e0:	07000000 	streq	r0, [r0, -r0]
 3e4:	00000088 	andeq	r0, r0, r8, lsl #1
 3e8:	50040800 	andpl	r0, r4, r0, lsl #16
 3ec:	09000000 	stmdbeq	r0, {}	; <UNPREDICTABLE>
 3f0:	00021501 	andeq	r1, r2, r1, lsl #10
 3f4:	01110100 	tsteq	r1, r0, lsl #2
 3f8:	000000dc 	ldrdeq	r0, [r0], -ip
 3fc:	0000821c 	andeq	r8, r0, ip, lsl r2
 400:	00008238 	andeq	r8, r0, r8, lsr r2
 404:	00000058 	andeq	r0, r0, r8, asr r0
 408:	00010f01 	andeq	r0, r1, r1, lsl #30
 40c:	74700a00 	ldrbtvc	r0, [r0], #-2560	; 0xa00
 410:	11010072 	tstne	r1, r2, ror r0
 414:	0000010f 	andeq	r0, r0, pc, lsl #2
 418:	007c9102 	rsbseq	r9, ip, r2, lsl #2
 41c:	008f0408 	addeq	r0, pc, r8, lsl #8
 420:	010b0000 	mrseq	r0, (UNDEF: 11)
 424:	000002aa 	andeq	r0, r0, sl, lsr #5
 428:	38011701 	stmdacc	r1, {r0, r8, r9, sl, ip}
 42c:	b4000082 	strlt	r0, [r0], #-130	; 0x82
 430:	78000082 	stmdavc	r0, {r1, r7}
 434:	01000000 	mrseq	r0, (UNDEF: 0)
 438:	0000014c 	andeq	r0, r0, ip, asr #2
 43c:	7274700a 	rsbsvc	r7, r4, #10
 440:	4c170100 	ldfmis	f0, [r7], {-0}
 444:	02000001 	andeq	r0, r0, #1
 448:	7e0c7491 	mcrvc	4, 0, r7, cr12, cr1, {4}
 44c:	01000001 	tsteq	r0, r1
 450:	00002c18 	andeq	r2, r0, r8, lsl ip
 454:	7c910200 	lfmvc	f0, 4, [r1], {0}
 458:	0e040d00 	cdpeq	13, 0, cr0, cr4, cr0, {0}
 45c:	0001fc01 	andeq	pc, r1, r1, lsl #24
 460:	01210100 	teqeq	r1, r0, lsl #2
 464:	000082b4 			; <UNDEFINED> instruction: 0x000082b4
 468:	00008378 	andeq	r8, r0, r8, ror r3
 46c:	00000098 	muleq	r0, r8, r0
 470:	0001a101 	andeq	sl, r1, r1, lsl #2
 474:	74700a00 	ldrbtvc	r0, [r0], #-2560	; 0xa00
 478:	21010072 	tstcs	r1, r2, ror r0
 47c:	0000014c 	andeq	r0, r0, ip, asr #2
 480:	0c649102 	stfeqp	f1, [r4], #-8
 484:	00000220 	andeq	r0, r0, r0, lsr #4
 488:	00dc2201 	sbcseq	r2, ip, r1, lsl #4
 48c:	91020000 	mrsls	r0, (UNDEF: 2)
 490:	018d0c70 	orreq	r0, sp, r0, ror ip
 494:	23010000 	movwcs	r0, #4096	; 0x1000
 498:	0000002c 	andeq	r0, r0, ip, lsr #32
 49c:	0c749102 	ldfeqp	f1, [r4], #-8
 4a0:	0000023b 	andeq	r0, r0, fp, lsr r2
 4a4:	002c2401 	eoreq	r2, ip, r1, lsl #8
 4a8:	91020000 	mrsls	r0, (UNDEF: 2)
 4ac:	010b006c 	tsteq	fp, ip, rrx
 4b0:	00000282 	andeq	r0, r0, r2, lsl #5
 4b4:	78013401 	stmdavc	r1, {r0, sl, ip, sp}
 4b8:	e8000083 	stmda	r0, {r0, r1, r7}
 4bc:	c4000083 	strgt	r0, [r0], #-131	; 0x83
 4c0:	01000000 	mrseq	r0, (UNDEF: 0)
 4c4:	000001e2 	andeq	r0, r0, r2, ror #3
 4c8:	0100780a 	tsteq	r0, sl, lsl #16
 4cc:	00002c34 	andeq	r2, r0, r4, lsr ip
 4d0:	74910200 	ldrvc	r0, [r1], #512	; 0x200
 4d4:	0100790a 	tsteq	r0, sl, lsl #18
 4d8:	00002c34 	andeq	r2, r0, r4, lsr ip
 4dc:	70910200 	addsvc	r0, r1, r0, lsl #4
 4e0:	706d740f 	rsbvc	r7, sp, pc, lsl #8
 4e4:	dc350100 	ldfles	f0, [r5], #-0
 4e8:	02000000 	andeq	r0, r0, #0
 4ec:	09007c91 	stmdbeq	r0, {r0, r4, r7, sl, fp, ip, sp, lr}
 4f0:	00029f01 	andeq	r9, r2, r1, lsl #30
 4f4:	013b0100 	teqeq	fp, r0, lsl #2
 4f8:	0000002c 	andeq	r0, r0, ip, lsr #32
 4fc:	000083e8 	andeq	r8, r0, r8, ror #7
 500:	00008444 	andeq	r8, r0, r4, asr #8
 504:	000000e4 	andeq	r0, r0, r4, ror #1
 508:	00021d01 	andeq	r1, r2, r1, lsl #26
 50c:	01e91000 	mvneq	r1, r0
 510:	3b010000 	blcc	40518 <__bss_end+0x3750c>
 514:	0000002c 	andeq	r0, r0, ip, lsr #32
 518:	107c9102 	rsbsne	r9, ip, r2, lsl #2
 51c:	00000235 	andeq	r0, r0, r5, lsr r2
 520:	002c3b01 	eoreq	r3, ip, r1, lsl #22
 524:	91020000 	mrsls	r0, (UNDEF: 2)
 528:	01090078 	tsteq	r9, r8, ror r0
 52c:	000002cd 	andeq	r0, r0, sp, asr #5
 530:	2c014001 	stccs	0, cr4, [r1], {1}
 534:	44000000 	strmi	r0, [r0], #-0
 538:	a0000084 	andge	r0, r0, r4, lsl #1
 53c:	04000084 	streq	r0, [r0], #-132	; 0x84
 540:	01000001 	tsteq	r0, r1
 544:	00000258 	andeq	r0, r0, r8, asr r2
 548:	0001e910 	andeq	lr, r1, r0, lsl r9
 54c:	2c400100 	stfcse	f0, [r0], {-0}
 550:	02000000 	andeq	r0, r0, #0
 554:	35107c91 	ldrcc	r7, [r0, #-3217]	; 0xc91
 558:	01000002 	tsteq	r0, r2
 55c:	00002c40 	andeq	r2, r0, r0, asr #24
 560:	78910200 	ldmvc	r1, {r9}
 564:	53010e00 	movwpl	r0, #7680	; 0x1e00
 568:	01000002 	tsteq	r0, r2
 56c:	84a00145 	strthi	r0, [r0], #325	; 0x145
 570:	858c0000 	strhi	r0, [ip]
 574:	01240000 	teqeq	r4, r0
 578:	ab010000 	blge	40580 <__bss_end+0x37574>
 57c:	10000002 	andne	r0, r0, r2
 580:	0000018d 	andeq	r0, r0, sp, lsl #3
 584:	002c4501 	eoreq	r4, ip, r1, lsl #10
 588:	91020000 	mrsls	r0, (UNDEF: 2)
 58c:	02c80c64 	sbceq	r0, r8, #25600	; 0x6400
 590:	4a010000 	bmi	40598 <__bss_end+0x3758c>
 594:	0000002c 	andeq	r0, r0, ip, lsr #32
 598:	0c6c9102 	stfeqp	f1, [ip], #-8
 59c:	000001e9 	andeq	r0, r0, r9, ror #3
 5a0:	002c4b01 	eoreq	r4, ip, r1, lsl #22
 5a4:	91020000 	mrsls	r0, (UNDEF: 2)
 5a8:	02350c74 	eorseq	r0, r5, #29696	; 0x7400
 5ac:	4c010000 	stcmi	0, cr0, [r1], {-0}
 5b0:	0000002c 	andeq	r0, r0, ip, lsr #32
 5b4:	00709102 	rsbseq	r9, r0, r2, lsl #2
 5b8:	01920109 	orrseq	r0, r2, r9, lsl #2
 5bc:	5d010000 	stcpl	0, cr0, [r1, #-0]
 5c0:	00010f01 	andeq	r0, r1, r1, lsl #30
 5c4:	00858c00 	addeq	r8, r5, r0, lsl #24
 5c8:	0085e000 	addeq	lr, r5, r0
 5cc:	00015000 	andeq	r5, r1, r0
 5d0:	02e60100 	rsceq	r0, r6, #0
 5d4:	7e100000 	cdpvc	0, 1, cr0, cr0, cr0, {0}
 5d8:	01000001 	tsteq	r0, r1
 5dc:	00002c5d 	andeq	r2, r0, sp, asr ip
 5e0:	74910200 	ldrvc	r0, [r1], #512	; 0x200
 5e4:	0002200c 	andeq	r2, r2, ip
 5e8:	dc5e0100 	ldflee	f0, [lr], {-0}
 5ec:	02000000 	andeq	r0, r0, #0
 5f0:	11007c91 			; <UNDEFINED> instruction: 0x11007c91
 5f4:	00020801 	andeq	r0, r2, r1, lsl #16
 5f8:	01640100 	cmneq	r4, r0, lsl #2
 5fc:	0000010f 	andeq	r0, r0, pc, lsl #2
 600:	000085e0 	andeq	r8, r0, r0, ror #11
 604:	000086d4 	ldrdeq	r8, [r0], -r4
 608:	00000170 	andeq	r0, r0, r0, ror r1
 60c:	00033d01 	andeq	r3, r3, r1, lsl #26
 610:	017e1000 	cmneq	lr, r0
 614:	64010000 	strvs	r0, [r1], #-0
 618:	0000002c 	andeq	r0, r0, ip, lsr #32
 61c:	0c649102 	stfeqp	f1, [r4], #-8
 620:	0000018d 	andeq	r0, r0, sp, lsl #3
 624:	002c6901 	eoreq	r6, ip, r1, lsl #18
 628:	91020000 	mrsls	r0, (UNDEF: 2)
 62c:	02c80c74 	sbceq	r0, r8, #29696	; 0x7400
 630:	6a010000 	bvs	40638 <__bss_end+0x3762c>
 634:	0000002c 	andeq	r0, r0, ip, lsr #32
 638:	0f6c9102 	svceq	0x006c9102
 63c:	00727470 	rsbseq	r7, r2, r0, ror r4
 640:	010f6b01 	tsteq	pc, r1, lsl #22
 644:	91020000 	mrsls	r0, (UNDEF: 2)
 648:	01120070 	tsteq	r2, r0, ror r0
 64c:	0000026b 	andeq	r0, r0, fp, ror #4
 650:	002c7901 	eoreq	r7, ip, r1, lsl #18
 654:	86d40000 	ldrbhi	r0, [r4], r0
 658:	86ec0000 	strbthi	r0, [ip], r0
 65c:	7d020000 	stcvc	0, cr0, [r2, #-0]
 660:	010b0100 	mrseq	r0, (UNDEF: 27)
 664:	000002bb 			; <UNDEFINED> instruction: 0x000002bb
 668:	ec017d01 	stc	13, cr7, [r1], {1}
 66c:	e4000086 	str	r0, [r0], #-134	; 0x86
 670:	9c000087 	stcls	0, cr0, [r0], {135}	; 0x87
 674:	01000001 	tsteq	r0, r1
 678:	000003fa 	strdeq	r0, [r0], -sl
 67c:	6372730a 	cmnvs	r2, #671088640	; 0x28000000
 680:	4c7d0100 	ldfmie	f0, [sp], #-0
 684:	02000001 	andeq	r0, r0, #1
 688:	640a5c91 	strvs	r5, [sl], #-3217	; 0xc91
 68c:	01007473 	tsteq	r0, r3, ror r4
 690:	00014c7d 	andeq	r4, r1, sp, ror ip
 694:	58910200 	ldmpl	r1, {r9}
 698:	6e656c0a 	cdpvs	12, 6, cr6, cr5, cr10, {0}
 69c:	2c7d0100 	ldfcse	f0, [sp], #-0
 6a0:	02000000 	andeq	r0, r0, #0
 6a4:	300c5491 	mulcc	ip, r1, r4
 6a8:	01000002 	tsteq	r0, r2
 6ac:	00002c7e 	andeq	r2, r0, lr, ror ip
 6b0:	78910200 	ldmvc	r1, {r9}
 6b4:	0002ee0c 	andeq	lr, r2, ip, lsl #28
 6b8:	2c7f0100 	ldfcse	f0, [pc], #-0	; 6c0 <_start-0x7940>
 6bc:	02000000 	andeq	r0, r0, #0
 6c0:	2b0c7491 	blcs	31d90c <__bss_end+0x314900>
 6c4:	01000002 	tsteq	r0, r2
 6c8:	0003fa80 	andeq	pc, r3, r0, lsl #21
 6cc:	70910200 	addsvc	r0, r1, r0, lsl #4
 6d0:	0001880c 	andeq	r8, r1, ip, lsl #16
 6d4:	fa810100 	blx	fe040adc <__bss_end+0xfe037ad0>
 6d8:	02000003 	andeq	r0, r0, #3
 6dc:	420c6c91 	andmi	r6, ip, #37120	; 0x9100
 6e0:	01000002 	tsteq	r0, r2
 6e4:	00040082 	andeq	r0, r4, r2, lsl #1
 6e8:	68910200 	ldmvs	r1, {r9}
 6ec:	0002b60c 	andeq	fp, r2, ip, lsl #12
 6f0:	00830100 	addeq	r0, r3, r0, lsl #2
 6f4:	02000004 	andeq	r0, r0, #4
 6f8:	690f6491 	stmdbvs	pc, {r0, r4, r7, sl, sp, lr}	; <UNPREDICTABLE>
 6fc:	2c840100 	stfcss	f0, [r4], {0}
 700:	02000000 	andeq	r0, r0, #0
 704:	08007c91 	stmdaeq	r0, {r0, r4, r7, sl, fp, ip, sp, lr}
 708:	00002c04 	andeq	r2, r0, r4, lsl #24
 70c:	3e040800 	cdpcc	8, 0, cr0, cr4, cr0, {0}
 710:	13000000 	movwne	r0, #0
 714:	000001d8 	ldrdeq	r0, [r0], -r8
 718:	04180e01 	ldreq	r0, [r8], #-3585	; 0xe01
 71c:	05010000 	streq	r0, [r1, #-0]
 720:	00900403 	addseq	r0, r0, r3, lsl #8
 724:	96040800 	strls	r0, [r4], -r0, lsl #16
 728:	13000000 	movwne	r0, #0
 72c:	00000247 	andeq	r0, r0, r7, asr #4
 730:	010f0f01 	tsteq	pc, r1, lsl #30
 734:	05010000 	streq	r0, [r1, #-0]
 738:	00900803 	addseq	r0, r0, r3, lsl #16
 73c:	00b80000 	adcseq	r0, r8, r0
 740:	00020000 	andeq	r0, r2, r0
 744:	00000278 	andeq	r0, r0, r8, ror r2
 748:	01320104 	teqeq	r2, r4, lsl #2
 74c:	04010000 	streq	r0, [r1], #-0
 750:	a9000003 	stmdbge	r0, {r0, r1}
 754:	e4000001 	str	r0, [r0], #-1
 758:	14000087 	strne	r0, [r0], #-135	; 0x87
 75c:	12000089 	andne	r0, r0, #137	; 0x89
 760:	02000002 	andeq	r0, r0, #2
 764:	00a60702 	adceq	r0, r6, r2, lsl #14
 768:	04020000 	streq	r0, [r2], #-0
 76c:	0000f607 	andeq	pc, r0, r7, lsl #12
 770:	08010200 	stmdaeq	r1, {r9}
 774:	00000098 	muleq	r0, r8, r0
 778:	03100103 	tsteq	r0, #-1073741824	; 0xc0000000
 77c:	1b010000 	blne	40784 <__bss_end+0x37778>
 780:	000087e4 	andeq	r8, r0, r4, ror #15
 784:	00008830 	andeq	r8, r0, r0, lsr r8
 788:	000001bc 			; <UNDEFINED> instruction: 0x000001bc
 78c:	00006101 	andeq	r6, r0, r1, lsl #2
 790:	78720400 	ldmdavc	r2!, {sl}^
 794:	2c1d0100 	ldfcss	f0, [sp], {-0}
 798:	02000000 	andeq	r0, r0, #0
 79c:	05007491 	streq	r7, [r0, #-1169]	; 0x491
 7a0:	00032a01 	andeq	r2, r3, r1, lsl #20
 7a4:	302a0100 	eorcc	r0, sl, r0, lsl #2
 7a8:	48000088 	stmdami	r0, {r3, r7}
 7ac:	e8000088 	stmda	r0, {r3, r7}
 7b0:	01000001 	tsteq	r0, r1
 7b4:	03090105 	movweq	r0, #37125	; 0x9105
 7b8:	30010000 	andcc	r0, r1, r0
 7bc:	00008848 	andeq	r8, r0, r8, asr #16
 7c0:	00008860 	andeq	r8, r0, r0, ror #16
 7c4:	00000208 	andeq	r0, r0, r8, lsl #4
 7c8:	fc010601 	stc2	6, cr0, [r1], {1}
 7cc:	01000002 	tsteq	r0, r2
 7d0:	00886039 	addeq	r6, r8, r9, lsr r0
 7d4:	00891400 	addeq	r1, r9, r0, lsl #8
 7d8:	00022800 	andeq	r2, r2, r0, lsl #16
 7dc:	72040100 	andvc	r0, r4, #0
 7e0:	3b010061 	blcc	4096c <__bss_end+0x37960>
 7e4:	0000002c 	andeq	r0, r0, ip, lsr #32
 7e8:	04749102 	ldrbteq	r9, [r4], #-258	; 0x102
 7ec:	01007872 	tsteq	r0, r2, ror r8
 7f0:	00002c3c 	andeq	r2, r0, ip, lsr ip
 7f4:	70910200 	addsvc	r0, r1, r0, lsl #4
 7f8:	02290000 	eoreq	r0, r9, #0
 7fc:	00020000 	andeq	r0, r2, r0
 800:	000002ea 	andeq	r0, r0, sl, ror #5
 804:	01320104 	teqeq	r2, r4, lsl #2
 808:	6e010000 	cdpvs	0, 0, cr0, cr1, cr0, {0}
 80c:	61000003 	tstvs	r0, r3
 810:	14000000 	strne	r0, [r0], #-0
 814:	98000089 	stmdals	r0, {r0, r3, r7}
 818:	6000008c 	andvs	r0, r0, ip, lsl #1
 81c:	02000002 	andeq	r0, r0, #2
 820:	009a0601 	addseq	r0, sl, r1, lsl #12
 824:	02020000 	andeq	r0, r2, #0
 828:	00015305 	andeq	r5, r1, r5, lsl #6
 82c:	05040200 	streq	r0, [r4, #-512]	; 0x200
 830:	00000123 	andeq	r0, r0, r3, lsr #2
 834:	1e050802 	cdpne	8, 0, cr0, cr5, cr2, {0}
 838:	02000001 	andeq	r0, r0, #1
 83c:	00980801 	addseq	r0, r8, r1, lsl #16
 840:	02020000 	andeq	r0, r2, #0
 844:	0000a607 	andeq	sl, r0, r7, lsl #12
 848:	01620300 	cmneq	r2, r0, lsl #6
 84c:	34020000 	strcc	r0, [r2], #-0
 850:	0000005a 	andeq	r0, r0, sl, asr r0
 854:	f1070402 			; <UNDEFINED> instruction: 0xf1070402
 858:	02000000 	andeq	r0, r0, #0
 85c:	00ec0708 	rsceq	r0, ip, r8, lsl #14
 860:	04040000 	streq	r0, [r4], #-0
 864:	746e6905 	strbtvc	r6, [lr], #-2309	; 0x905
 868:	07040200 	streq	r0, [r4, -r0, lsl #4]
 86c:	000000f6 	strdeq	r0, [r0], -r6
 870:	00010303 	andeq	r0, r1, r3, lsl #6
 874:	81060300 	mrshi	r0, LR_und
 878:	05000000 	streq	r0, [r0, #-0]
 87c:	00008704 	andeq	r8, r0, r4, lsl #14
 880:	93010600 	movwls	r0, #5632	; 0x1600
 884:	07000000 	streq	r0, [r0, -r0]
 888:	00000093 	muleq	r0, r3, r0
 88c:	09040800 	stmdbeq	r4, {fp}
 890:	bc070301 	stclt	3, cr0, [r7], {1}
 894:	0a000000 	beq	89c <_start-0x7764>
 898:	0057454e 	subseq	r4, r7, lr, asr #10
 89c:	016b0b00 	cmneq	fp, r0, lsl #22
 8a0:	0b010000 	bleq	408a8 <__bss_end+0x3789c>
 8a4:	00000173 	andeq	r0, r0, r3, ror r1
 8a8:	00230b02 	eoreq	r0, r3, r2, lsl #22
 8ac:	0b030000 	bleq	c08b4 <__bss_end+0xb78a8>
 8b0:	00000052 	andeq	r0, r0, r2, asr r0
 8b4:	48030004 	stmdami	r3, {r2}
 8b8:	03000000 	movweq	r0, #0
 8bc:	00009507 	andeq	r9, r0, r7, lsl #10
 8c0:	005b0c00 	subseq	r0, fp, r0, lsl #24
 8c4:	03200000 	teqeq	r0, #0
 8c8:	00014309 	andeq	r4, r1, r9, lsl #6
 8cc:	001d0d00 	andseq	r0, sp, r0, lsl #26
 8d0:	0a030000 	beq	c08d8 <__bss_end+0xb78cc>
 8d4:	000000bc 	strheq	r0, [r0], -ip
 8d8:	0d002302 	stceq	3, cr2, [r0, #-8]
 8dc:	0000000f 	andeq	r0, r0, pc
 8e0:	01430b03 	cmpeq	r3, r3, lsl #22
 8e4:	23020000 	movwcs	r0, #8192	; 0x2000
 8e8:	01830d04 	orreq	r0, r3, r4, lsl #26
 8ec:	0c030000 	stceq	0, cr0, [r3], {-0}
 8f0:	00000143 	andeq	r0, r0, r3, asr #2
 8f4:	0d082302 	stceq	3, cr2, [r8, #-8]
 8f8:	00000000 	andeq	r0, r0, r0
 8fc:	00680e03 	rsbeq	r0, r8, r3, lsl #28
 900:	23020000 	movwcs	r0, #8192	; 0x2000
 904:	003c0d0c 	eorseq	r0, ip, ip, lsl #26
 908:	10030000 	andne	r0, r3, r0
 90c:	00000076 	andeq	r0, r0, r6, ror r0
 910:	0d102302 	ldceq	3, cr2, [r0, #-8]
 914:	0000010a 	andeq	r0, r0, sl, lsl #2
 918:	01491203 	cmpeq	r9, r3, lsl #4
 91c:	23020000 	movwcs	r0, #8192	; 0x2000
 920:	70730e14 	rsbsvc	r0, r3, r4, lsl lr
 924:	56130300 	ldrpl	r0, [r3], -r0, lsl #6
 928:	02000001 	andeq	r0, r0, #1
 92c:	5d0d1823 	stcpl	8, cr1, [sp, #-140]	; 0xffffff74
 930:	03000001 	movweq	r0, #1
 934:	00009314 	andeq	r9, r0, r4, lsl r3
 938:	1c230200 	sfmne	f0, 4, [r3], #-0
 93c:	c7040500 	strgt	r0, [r4, -r0, lsl #10]
 940:	05000000 	streq	r0, [r0, #-0]
 944:	00014f04 	andeq	r4, r1, r4, lsl #30
 948:	08010200 	stmdaeq	r1, {r9}
 94c:	000000a1 	andeq	r0, r0, r1, lsr #1
 950:	004f0405 	subeq	r0, pc, r5, lsl #8
 954:	010f0000 	mrseq	r0, CPSR
 958:	00000342 	andeq	r0, r0, r2, asr #6
 95c:	89140501 	ldmdbhi	r4, {r0, r8, sl}
 960:	894c0000 	stmdbhi	ip, {}^	; <UNPREDICTABLE>
 964:	02540000 	subseq	r0, r4, #0
 968:	10010000 	andne	r0, r1, r0
 96c:	00037c01 	andeq	r7, r3, r1, lsl #24
 970:	010c0100 	mrseq	r0, (UNDEF: 28)
 974:	0000894c 	andeq	r8, r0, ip, asr #18
 978:	00008a54 	andeq	r8, r0, r4, asr sl
 97c:	00000274 	andeq	r0, r0, r4, ror r2
 980:	0001b401 	andeq	fp, r1, r1, lsl #8
 984:	00661100 	rsbeq	r1, r6, r0, lsl #2
 988:	00760c01 	rsbseq	r0, r6, r1, lsl #24
 98c:	91020000 	mrsls	r0, (UNDEF: 2)
 990:	015d126c 	cmpeq	sp, ip, ror #4
 994:	0c010000 	stceq	0, cr0, [r1], {-0}
 998:	00000093 	muleq	r0, r3, r0
 99c:	13689102 	cmnne	r8, #-2147483648	; 0x80000000
 9a0:	00626370 	rsbeq	r6, r2, r0, ror r3
 9a4:	01430e01 	cmpeq	r3, r1, lsl #28
 9a8:	91020000 	mrsls	r0, (UNDEF: 2)
 9ac:	01140074 	tsteq	r4, r4, ror r0
 9b0:	0000034e 	andeq	r0, r0, lr, asr #6
 9b4:	8a542b01 	bhi	150b5c0 <__bss_end+0x15025b4>
 9b8:	8c4c0000 	marhi	acc0, r0, ip
 9bc:	7d020000 	stcvc	0, cr0, [r2, #-0]
 9c0:	01f10100 	mvnseq	r0, r0, lsl #2
 9c4:	64150000 	ldrvs	r0, [r5], #-0
 9c8:	01000003 	tsteq	r0, r3
 9cc:	0001434f 	andeq	r4, r1, pc, asr #6
 9d0:	16540100 	ldrbne	r0, [r4], -r0, lsl #2
 9d4:	00008ac4 	andeq	r8, r0, r4, asr #21
 9d8:	00008b0c 	andeq	r8, r0, ip, lsl #22
 9dc:	00033215 	andeq	r3, r3, r5, lsl r2
 9e0:	433f0100 	teqmi	pc, #0
 9e4:	01000001 	tsteq	r0, r1
 9e8:	17000054 	smlsdne	r0, r4, r0, r0
 9ec:	00035901 	andeq	r5, r3, r1, lsl #18
 9f0:	01730100 	cmneq	r3, r0, lsl #2
 9f4:	00008c4c 	andeq	r8, r0, ip, asr #24
 9f8:	00008c98 	muleq	r0, r8, ip
 9fc:	000002a0 	andeq	r0, r0, r0, lsr #5
 a00:	00021a01 	andeq	r1, r2, r1, lsl #20
 a04:	00001200 	andeq	r1, r0, r0, lsl #4
 a08:	73010000 	movwvc	r0, #4096	; 0x1000
 a0c:	00000068 	andeq	r0, r0, r8, rrx
 a10:	007c9102 	rsbseq	r9, ip, r2, lsl #2
 a14:	0000dc18 	andeq	sp, r0, r8, lsl ip
 a18:	43180300 	tstmi	r8, #0
 a1c:	01000001 	tsteq	r0, r1
 a20:	8ffc0305 	svchi	0x00fc0305
 a24:	54000000 	strpl	r0, [r0], #-0
 a28:	02000003 	andeq	r0, r0, #3
 a2c:	00044500 	andeq	r4, r4, r0, lsl #10
 a30:	32010400 	andcc	r0, r1, #0
 a34:	01000001 	tsteq	r0, r1
 a38:	000003b5 			; <UNDEFINED> instruction: 0x000003b5
 a3c:	000003de 	ldrdeq	r0, [r0], -lr
 a40:	00008c98 	muleq	r0, r8, ip
 a44:	00008fd8 	ldrdeq	r8, [r0], -r8	; <UNPREDICTABLE>
 a48:	00000351 	andeq	r0, r0, r1, asr r3
 a4c:	9a060102 	bls	180e5c <__bss_end+0x177e50>
 a50:	02000000 	andeq	r0, r0, #0
 a54:	01530502 	cmpeq	r3, r2, lsl #10
 a58:	04020000 	streq	r0, [r2], #-0
 a5c:	00012305 	andeq	r2, r1, r5, lsl #6
 a60:	05080200 	streq	r0, [r8, #-512]	; 0x200
 a64:	0000011e 	andeq	r0, r0, lr, lsl r1
 a68:	98080102 	stmdals	r8, {r1, r8}
 a6c:	02000000 	andeq	r0, r0, #0
 a70:	00a60702 	adceq	r0, r6, r2, lsl #14
 a74:	62030000 	andvs	r0, r3, #0
 a78:	02000001 	andeq	r0, r0, #1
 a7c:	00005a34 	andeq	r5, r0, r4, lsr sl
 a80:	07040200 	streq	r0, [r4, -r0, lsl #4]
 a84:	000000f1 	strdeq	r0, [r0], -r1
 a88:	ec070802 	stc	8, cr0, [r7], {2}
 a8c:	04000000 	streq	r0, [r0], #-0
 a90:	6e690504 	cdpvs	5, 6, cr0, cr9, cr4, {0}
 a94:	04020074 	streq	r0, [r2], #-116	; 0x74
 a98:	0000f607 	andeq	pc, r0, r7, lsl #12
 a9c:	01030300 	mrseq	r0, SP_svc
 aa0:	06030000 	streq	r0, [r3], -r0
 aa4:	00000081 	andeq	r0, r0, r1, lsl #1
 aa8:	00870405 	addeq	r0, r7, r5, lsl #8
 aac:	01060000 	mrseq	r0, (UNDEF: 6)
 ab0:	00000093 	muleq	r0, r3, r0
 ab4:	00009307 	andeq	r9, r0, r7, lsl #6
 ab8:	04080000 	streq	r0, [r8], #-0
 abc:	07030109 	streq	r0, [r3, -r9, lsl #2]
 ac0:	000000bc 	strheq	r0, [r0], -ip
 ac4:	57454e0a 	strbpl	r4, [r5, -sl, lsl #28]
 ac8:	6b0b0000 	blvs	2c0ad0 <__bss_end+0x2b7ac4>
 acc:	01000001 	tsteq	r0, r1
 ad0:	0001730b 	andeq	r7, r1, fp, lsl #6
 ad4:	230b0200 	movwcs	r0, #45568	; 0xb200
 ad8:	03000000 	movweq	r0, #0
 adc:	0000520b 	andeq	r5, r0, fp, lsl #4
 ae0:	03000400 	movweq	r0, #1024	; 0x400
 ae4:	00000048 	andeq	r0, r0, r8, asr #32
 ae8:	00950703 	addseq	r0, r5, r3, lsl #14
 aec:	5b0c0000 	blpl	300af4 <__bss_end+0x2f7ae8>
 af0:	20000000 	andcs	r0, r0, r0
 af4:	01430903 	cmpeq	r3, r3, lsl #18
 af8:	1d0d0000 	stcne	0, cr0, [sp, #-0]
 afc:	03000000 	movweq	r0, #0
 b00:	0000bc0a 	andeq	fp, r0, sl, lsl #24
 b04:	00230200 	eoreq	r0, r3, r0, lsl #4
 b08:	00000f0d 	andeq	r0, r0, sp, lsl #30
 b0c:	430b0300 	movwmi	r0, #45824	; 0xb300
 b10:	02000001 	andeq	r0, r0, #1
 b14:	830d0423 	movwhi	r0, #54307	; 0xd423
 b18:	03000001 	movweq	r0, #1
 b1c:	0001430c 	andeq	r4, r1, ip, lsl #6
 b20:	08230200 	stmdaeq	r3!, {r9}
 b24:	0000000d 	andeq	r0, r0, sp
 b28:	680e0300 	stmdavs	lr, {r8, r9}
 b2c:	02000000 	andeq	r0, r0, #0
 b30:	3c0d0c23 	stccc	12, cr0, [sp], {35}	; 0x23
 b34:	03000000 	movweq	r0, #0
 b38:	00007610 	andeq	r7, r0, r0, lsl r6
 b3c:	10230200 	eorne	r0, r3, r0, lsl #4
 b40:	00010a0d 	andeq	r0, r1, sp, lsl #20
 b44:	49120300 	ldmdbmi	r2, {r8, r9}
 b48:	02000001 	andeq	r0, r0, #1
 b4c:	730e1423 	movwvc	r1, #58403	; 0xe423
 b50:	13030070 	movwne	r0, #12400	; 0x3070
 b54:	00000156 	andeq	r0, r0, r6, asr r1
 b58:	0d182302 	ldceq	3, cr2, [r8, #-8]
 b5c:	0000015d 	andeq	r0, r0, sp, asr r1
 b60:	00931403 	addseq	r1, r3, r3, lsl #8
 b64:	23020000 	movwcs	r0, #8192	; 0x2000
 b68:	0405001c 	streq	r0, [r5], #-28
 b6c:	000000c7 	andeq	r0, r0, r7, asr #1
 b70:	014f0405 	cmpeq	pc, r5, lsl #8
 b74:	01020000 	mrseq	r0, (UNDEF: 2)
 b78:	0000a108 	andeq	sl, r0, r8, lsl #2
 b7c:	4f040500 	svcmi	0x00040500
 b80:	0c000000 	stceq	0, cr0, [r0], {-0}
 b84:	000000b9 	strheq	r0, [r0], -r9
 b88:	85050408 	strhi	r0, [r5, #-1032]	; 0x408
 b8c:	0d000001 	stceq	0, cr0, [r0, #-4]
 b90:	00000383 	andeq	r0, r0, r3, lsl #7
 b94:	01430604 	cmpeq	r3, r4, lsl #12
 b98:	23020000 	movwcs	r0, #8192	; 0x2000
 b9c:	000f0d00 	andeq	r0, pc, r0, lsl #26
 ba0:	07040000 	streq	r0, [r4, -r0]
 ba4:	00000185 	andeq	r0, r0, r5, lsl #3
 ba8:	00042302 	andeq	r2, r4, r2, lsl #6
 bac:	015c0405 	cmpeq	ip, r5, lsl #8
 bb0:	d60c0000 	strle	r0, [ip], -r0
 bb4:	10000000 	andne	r0, r0, r0
 bb8:	01d00a04 	bicseq	r0, r0, r4, lsl #20
 bbc:	760e0000 	strvc	r0, [lr], -r0
 bc0:	04006c61 	streq	r6, [r0], #-3169	; 0xc61
 bc4:	0000680b 	andeq	r6, r0, fp, lsl #16
 bc8:	00230200 	eoreq	r0, r3, r0, lsl #4
 bcc:	00014b0d 	andeq	r4, r1, sp, lsl #22
 bd0:	680c0400 	stmdavs	ip, {sl}
 bd4:	02000000 	andeq	r0, r0, #0
 bd8:	2c0d0423 	cfstrscs	mvf0, [sp], {35}	; 0x23
 bdc:	04000001 	streq	r0, [r0], #-1
 be0:	0001850d 	andeq	r8, r1, sp, lsl #10
 be4:	08230200 	stmdaeq	r3!, {r9}
 be8:	00013e0d 	andeq	r3, r1, sp, lsl #28
 bec:	850e0400 	strhi	r0, [lr, #-1024]	; 0x400
 bf0:	02000001 	andeq	r0, r0, #1
 bf4:	0c000c23 	stceq	12, cr0, [r0], {35}	; 0x23
 bf8:	00000412 	andeq	r0, r0, r2, lsl r4
 bfc:	f9130408 			; <UNDEFINED> instruction: 0xf9130408
 c00:	0d000001 	stceq	0, cr0, [r0, #-4]
 c04:	0000042b 	andeq	r0, r0, fp, lsr #8
 c08:	01f91404 	mvnseq	r1, r4, lsl #8
 c0c:	23020000 	movwcs	r0, #8192	; 0x2000
 c10:	03ca0d00 	biceq	r0, sl, #0
 c14:	15040000 	strne	r0, [r4, #-0]
 c18:	00000143 	andeq	r0, r0, r3, asr #2
 c1c:	00042302 	andeq	r2, r4, r2, lsl #6
 c20:	018b0405 	orreq	r0, fp, r5, lsl #8
 c24:	010f0000 	mrseq	r0, CPSR
 c28:	00000394 	muleq	r0, r4, r3
 c2c:	98010601 	stmdals	r1, {r0, r9, sl}
 c30:	f400008c 	vst4.32	{d0-d3}, [r0], ip
 c34:	c000008c 	andgt	r0, r0, ip, lsl #1
 c38:	01000002 	tsteq	r0, r2
 c3c:	00000236 	andeq	r0, r0, r6, lsr r2
 c40:	6d657310 	stclvs	3, cr7, [r5, #-64]!	; 0xffffffc0
 c44:	36060100 	strcc	r0, [r6], -r0, lsl #2
 c48:	02000002 	andeq	r0, r0, #2
 c4c:	76107491 			; <UNDEFINED> instruction: 0x76107491
 c50:	01006c61 	tsteq	r0, r1, ror #24
 c54:	00006f06 	andeq	r6, r0, r6, lsl #30
 c58:	70910200 	addsvc	r0, r1, r0, lsl #4
 c5c:	f9040500 			; <UNDEFINED> instruction: 0xf9040500
 c60:	0f000001 	svceq	0x00000001
 c64:	0003a301 	andeq	sl, r3, r1, lsl #6
 c68:	010d0100 	mrseq	r0, (UNDEF: 29)
 c6c:	00008cf4 	strdeq	r8, [r0], -r4
 c70:	00008d9c 	muleq	r0, ip, sp
 c74:	000002ec 	andeq	r0, r0, ip, ror #5
 c78:	00027d01 	andeq	r7, r2, r1, lsl #26
 c7c:	65731000 	ldrbvs	r1, [r3, #-0]!
 c80:	0d01006d 	stceq	0, cr0, [r1, #-436]	; 0xfffffe4c
 c84:	000001f9 	strdeq	r0, [r0], -r9
 c88:	116c9102 	cmnne	ip, r2, lsl #2
 c8c:	00008d24 	andeq	r8, r0, r4, lsr #26
 c90:	00008d6c 	andeq	r8, r0, ip, ror #26
 c94:	0003d012 	andeq	sp, r3, r2, lsl r0
 c98:	85120100 	ldrhi	r0, [r2, #-256]	; 0x100
 c9c:	02000001 	andeq	r0, r0, #1
 ca0:	00007491 	muleq	r0, r1, r4
 ca4:	0418010f 	ldreq	r0, [r8], #-271	; 0x10f
 ca8:	22010000 	andcs	r0, r1, #0
 cac:	008d9c01 	addeq	r9, sp, r1, lsl #24
 cb0:	008ec400 	addeq	ip, lr, r0, lsl #8
 cb4:	00031800 	andeq	r1, r3, r0, lsl #16
 cb8:	02be0100 	adcseq	r0, lr, #0
 cbc:	73100000 	tstvc	r0, #0
 cc0:	01006d65 	tsteq	r0, r5, ror #26
 cc4:	0001f922 	andeq	pc, r1, r2, lsr #18
 cc8:	6c910200 	lfmvs	f0, 4, [r1], {0}
 ccc:	008de011 	addeq	lr, sp, r1, lsl r0
 cd0:	008ea400 	addeq	sl, lr, r0, lsl #8
 cd4:	04211200 	strteq	r1, [r1], #-512	; 0x200
 cd8:	28010000 	stmdacs	r1, {}	; <UNPREDICTABLE>
 cdc:	00000185 	andeq	r0, r0, r5, lsl #3
 ce0:	00749102 	rsbseq	r9, r4, r2, lsl #2
 ce4:	8b010f00 	blhi	448ec <__bss_end+0x3b8e0>
 ce8:	01000003 	tsteq	r0, r3
 cec:	8ec40145 	polhism	f0, f4, f5
 cf0:	8f100000 	svchi	0x00100000
 cf4:	03440000 	movteq	r0, #16384	; 0x4000
 cf8:	e7010000 	str	r0, [r1, -r0]
 cfc:	13000002 	movwne	r0, #2
 d00:	0000039d 	muleq	r0, sp, r3
 d04:	02e74501 	rsceq	r4, r7, #4194304	; 0x400000
 d08:	91020000 	mrsls	r0, (UNDEF: 2)
 d0c:	04050074 	streq	r0, [r5], #-116	; 0x74
 d10:	000002ed 	andeq	r0, r0, sp, ror #5
 d14:	01d00405 	bicseq	r0, r0, r5, lsl #8
 d18:	010f0000 	mrseq	r0, CPSR
 d1c:	000003c1 	andeq	r0, r0, r1, asr #7
 d20:	10014b01 	andne	r4, r1, r1, lsl #22
 d24:	7000008f 	andvc	r0, r0, pc, lsl #1
 d28:	7000008f 	andvc	r0, r0, pc, lsl #1
 d2c:	01000003 	tsteq	r0, r3
 d30:	0000031c 	andeq	r0, r0, ip, lsl r3
 d34:	00039d13 	andeq	r9, r3, r3, lsl sp
 d38:	ed4b0100 	stfe	f0, [fp, #-0]
 d3c:	02000002 	andeq	r0, r0, #2
 d40:	0f007491 	svceq	0x00007491
 d44:	0003aa01 	andeq	sl, r3, r1, lsl #20
 d48:	01510100 	cmpeq	r1, r0, lsl #2
 d4c:	00008f70 	andeq	r8, r0, r0, ror pc
 d50:	00008fd8 	ldrdeq	r8, [r0], -r8	; <UNPREDICTABLE>
 d54:	0000039c 	muleq	r0, ip, r3
 d58:	00034501 	andeq	r4, r3, r1, lsl #10
 d5c:	039d1300 	orrseq	r1, sp, #0
 d60:	51010000 	mrspl	r0, (UNDEF: 1)
 d64:	000002ed 	andeq	r0, r0, sp, ror #5
 d68:	00749102 	rsbseq	r9, r4, r2, lsl #2
 d6c:	0000dc14 	andeq	sp, r0, r4, lsl ip
 d70:	43180300 	tstmi	r8, #0
 d74:	01000001 	tsteq	r0, r1
 d78:	8ffc0305 	svchi	0x00fc0305
 d7c:	Address 0x0000000000000d7c is out of bounds.


Disassembly of section .debug_abbrev:

00000000 <.debug_abbrev>:
   0:	10001101 	andne	r1, r0, r1, lsl #2
   4:	12011106 	andne	r1, r1, #-2147483647	; 0x80000001
   8:	1b080301 	blne	200c14 <__bss_end+0x1f7c08>
   c:	13082508 	movwne	r2, #34056	; 0x8508
  10:	00000005 	andeq	r0, r0, r5
  14:	25011101 	strcs	r1, [r1, #-257]	; 0x101
  18:	030b130e 	movweq	r1, #45838	; 0xb30e
  1c:	110e1b0e 	tstne	lr, lr, lsl #22
  20:	10011201 	andne	r1, r1, r1, lsl #4
  24:	02000006 	andeq	r0, r0, #6
  28:	0b0b0024 	bleq	2c00c0 <__bss_end+0x2b70b4>
  2c:	0e030b3e 	vmoveq.16	d3[0], r0
  30:	16030000 	strne	r0, [r3], -r0
  34:	3a0e0300 	bcc	380c3c <__bss_end+0x377c30>
  38:	490b3b0b 	stmdbmi	fp, {r0, r1, r3, r8, r9, fp, ip, sp}
  3c:	04000013 	streq	r0, [r0], #-19
  40:	0b0b0024 	bleq	2c00d8 <__bss_end+0x2b70cc>
  44:	08030b3e 	stmdaeq	r3, {r1, r2, r3, r4, r5, r8, r9, fp}
  48:	0f050000 	svceq	0x00050000
  4c:	490b0b00 	stmdbmi	fp, {r8, r9, fp}
  50:	06000013 			; <UNDEFINED> instruction: 0x06000013
  54:	0c270115 	stfeqs	f0, [r7], #-84	; 0xffffffac
  58:	00001301 	andeq	r1, r0, r1, lsl #6
  5c:	49000507 	stmdbmi	r0, {r0, r1, r2, r8, sl}
  60:	08000013 	stmdaeq	r0, {r0, r1, r4}
  64:	0b0b000f 	bleq	2c00a8 <__bss_end+0x2b709c>
  68:	04090000 	streq	r0, [r9], #-0
  6c:	3a0b0b01 	bcc	2c2c78 <__bss_end+0x2b9c6c>
  70:	010b3b0b 	tsteq	fp, fp, lsl #22
  74:	0a000013 	beq	c8 <_start-0x7f38>
  78:	08030028 	stmdaeq	r3, {r3, r5}
  7c:	00000d1c 	andeq	r0, r0, ip, lsl sp
  80:	0300280b 	movweq	r2, #2059	; 0x80b
  84:	000d1c0e 	andeq	r1, sp, lr, lsl #24
  88:	01130c00 	tsteq	r3, r0, lsl #24
  8c:	0b0b0e03 	bleq	2c38a0 <__bss_end+0x2ba894>
  90:	0b3b0b3a 	bleq	ec2d80 <__bss_end+0xeb9d74>
  94:	00001301 	andeq	r1, r0, r1, lsl #6
  98:	03000d0d 	movweq	r0, #3341	; 0xd0d
  9c:	3b0b3a0e 	blcc	2ce8dc <__bss_end+0x2c58d0>
  a0:	3813490b 	ldmdacc	r3, {r0, r1, r3, r8, fp, lr}
  a4:	0e00000a 	cdpeq	0, 0, cr0, cr0, cr10, {0}
  a8:	0803000d 	stmdaeq	r3, {r0, r2, r3}
  ac:	0b3b0b3a 	bleq	ec2d9c <__bss_end+0xeb9d90>
  b0:	0a381349 	beq	e04ddc <__bss_end+0xdfbdd0>
  b4:	2e0f0000 	cdpcs	0, 0, cr0, cr15, cr0, {0}
  b8:	030c3f01 	movweq	r3, #52993	; 0xcf01
  bc:	3b0b3a0e 	blcc	2ce8fc <__bss_end+0x2c58f0>
  c0:	110c270b 	tstne	ip, fp, lsl #14
  c4:	40011201 	andmi	r1, r1, r1, lsl #4
  c8:	0c429606 	mcrreq	6, 0, r9, r2, cr6
  cc:	00001301 	andeq	r1, r0, r1, lsl #6
  d0:	03000510 	movweq	r0, #1296	; 0x510
  d4:	3b0b3a0e 	blcc	2ce914 <__bss_end+0x2c5908>
  d8:	0213490b 	andseq	r4, r3, #180224	; 0x2c000
  dc:	1100000a 	tstne	r0, sl
  e0:	0e030034 	mcreq	0, 0, r0, cr3, cr4, {1}
  e4:	0b3b0b3a 	bleq	ec2dd4 <__bss_end+0xeb9dc8>
  e8:	0a021349 	beq	84e14 <__bss_end+0x7be08>
  ec:	2e120000 	cdpcs	0, 1, cr0, cr2, cr0, {0}
  f0:	030c3f01 	movweq	r3, #52993	; 0xcf01
  f4:	3b0b3a0e 	blcc	2ce934 <__bss_end+0x2c5928>
  f8:	490c270b 	stmdbmi	ip, {r0, r1, r3, r8, r9, sl, sp}
  fc:	12011113 	andne	r1, r1, #-1073741820	; 0xc0000004
 100:	96064001 	strls	r4, [r6], -r1
 104:	13010c42 	movwne	r0, #7234	; 0x1c42
 108:	34130000 	ldrcc	r0, [r3], #-0
 10c:	3a080300 	bcc	200d14 <__bss_end+0x1f7d08>
 110:	490b3b0b 	stmdbmi	fp, {r0, r1, r3, r8, r9, fp, ip, sp}
 114:	000a0213 	andeq	r0, sl, r3, lsl r2
 118:	01011400 	tsteq	r1, r0, lsl #8
 11c:	13011349 	movwne	r1, #4937	; 0x1349
 120:	21150000 	tstcs	r5, r0
 124:	2f134900 	svccs	0x00134900
 128:	1600000b 	strne	r0, [r0], -fp
 12c:	0e030034 	mcreq	0, 0, r0, cr3, cr4, {1}
 130:	0b3b0b3a 	bleq	ec2e20 <__bss_end+0xeb9e14>
 134:	0c3f1349 	ldceq	3, cr1, [pc], #-292	; 18 <_start-0x7fe8>
 138:	00000a02 	andeq	r0, r0, r2, lsl #20
 13c:	01110100 	tsteq	r1, r0, lsl #2
 140:	0b130e25 	bleq	4c39dc <__bss_end+0x4ba9d0>
 144:	0e1b0e03 	cdpeq	14, 1, cr0, cr11, cr3, {0}
 148:	01120111 	tsteq	r2, r1, lsl r1
 14c:	00000610 	andeq	r0, r0, r0, lsl r6
 150:	0b002402 	bleq	9160 <__bss_end+0x154>
 154:	030b3e0b 	movweq	r3, #48651	; 0xbe0b
 158:	0300000e 	movweq	r0, #14
 15c:	0e030016 	mcreq	0, 0, r0, cr3, cr6, {0}
 160:	0b3b0b3a 	bleq	ec2e50 <__bss_end+0xeb9e44>
 164:	00001349 	andeq	r1, r0, r9, asr #6
 168:	03011304 	movweq	r1, #4868	; 0x1304
 16c:	3a0b0b0e 	bcc	2c2dac <__bss_end+0x2b9da0>
 170:	010b3b0b 	tsteq	fp, fp, lsl #22
 174:	05000013 	streq	r0, [r0, #-19]
 178:	0e03000d 	cdpeq	0, 0, cr0, cr3, cr13, {0}
 17c:	0b3b0b3a 	bleq	ec2e6c <__bss_end+0xeb9e60>
 180:	0a381349 	beq	e04eac <__bss_end+0xdfbea0>
 184:	01060000 	mrseq	r0, (UNDEF: 6)
 188:	01134901 	tsteq	r3, r1, lsl #18
 18c:	07000013 	smladeq	r0, r3, r0, r0
 190:	13490021 	movtne	r0, #36897	; 0x9021
 194:	0f080000 	svceq	0x00080000
 198:	490b0b00 	stmdbmi	fp, {r8, r9, fp}
 19c:	09000013 	stmdbeq	r0, {r0, r1, r4}
 1a0:	0c3f012e 	ldfeqs	f0, [pc], #-184	; f0 <_start-0x7f10>
 1a4:	0b3a0e03 	bleq	e839b8 <__bss_end+0xe7a9ac>
 1a8:	0c270b3b 	stceq	11, cr0, [r7], #-236	; 0xffffff14
 1ac:	01111349 	tsteq	r1, r9, asr #6
 1b0:	06400112 			; <UNDEFINED> instruction: 0x06400112
 1b4:	010c4297 			; <UNDEFINED> instruction: 0x010c4297
 1b8:	0a000013 	beq	20c <_start-0x7df4>
 1bc:	08030005 	stmdaeq	r3, {r0, r2}
 1c0:	0b3b0b3a 	bleq	ec2eb0 <__bss_end+0xeb9ea4>
 1c4:	0a021349 	beq	84ef0 <__bss_end+0x7bee4>
 1c8:	2e0b0000 	cdpcs	0, 0, cr0, cr11, cr0, {0}
 1cc:	030c3f01 	movweq	r3, #52993	; 0xcf01
 1d0:	3b0b3a0e 	blcc	2cea10 <__bss_end+0x2c5a04>
 1d4:	110c270b 	tstne	ip, fp, lsl #14
 1d8:	40011201 	andmi	r1, r1, r1, lsl #4
 1dc:	0c429706 	mcrreq	7, 0, r9, r2, cr6
 1e0:	00001301 	andeq	r1, r0, r1, lsl #6
 1e4:	0300340c 	movweq	r3, #1036	; 0x40c
 1e8:	3b0b3a0e 	blcc	2cea28 <__bss_end+0x2c5a1c>
 1ec:	0213490b 	andseq	r4, r3, #180224	; 0x2c000
 1f0:	0d00000a 	stceq	0, cr0, [r0, #-40]	; 0xffffffd8
 1f4:	0b0b000f 	bleq	2c0238 <__bss_end+0x2b722c>
 1f8:	2e0e0000 	cdpcs	0, 0, cr0, cr14, cr0, {0}
 1fc:	030c3f01 	movweq	r3, #52993	; 0xcf01
 200:	3b0b3a0e 	blcc	2cea40 <__bss_end+0x2c5a34>
 204:	110c270b 	tstne	ip, fp, lsl #14
 208:	40011201 	andmi	r1, r1, r1, lsl #4
 20c:	0c429606 	mcrreq	6, 0, r9, r2, cr6
 210:	00001301 	andeq	r1, r0, r1, lsl #6
 214:	0300340f 	movweq	r3, #1039	; 0x40f
 218:	3b0b3a08 	blcc	2cea40 <__bss_end+0x2c5a34>
 21c:	0213490b 	andseq	r4, r3, #180224	; 0x2c000
 220:	1000000a 	andne	r0, r0, sl
 224:	0e030005 	cdpeq	0, 0, cr0, cr3, cr5, {0}
 228:	0b3b0b3a 	bleq	ec2f18 <__bss_end+0xeb9f0c>
 22c:	0a021349 	beq	84f58 <__bss_end+0x7bf4c>
 230:	2e110000 	cdpcs	0, 1, cr0, cr1, cr0, {0}
 234:	030c3f01 	movweq	r3, #52993	; 0xcf01
 238:	3b0b3a0e 	blcc	2cea78 <__bss_end+0x2c5a6c>
 23c:	490c270b 	stmdbmi	ip, {r0, r1, r3, r8, r9, sl, sp}
 240:	12011113 	andne	r1, r1, #-1073741820	; 0xc0000004
 244:	96064001 	strls	r4, [r6], -r1
 248:	13010c42 	movwne	r0, #7234	; 0x1c42
 24c:	2e120000 	cdpcs	0, 1, cr0, cr2, cr0, {0}
 250:	030c3f00 	movweq	r3, #52992	; 0xcf00
 254:	3b0b3a0e 	blcc	2cea94 <__bss_end+0x2c5a88>
 258:	1113490b 	tstne	r3, fp, lsl #18
 25c:	40011201 	andmi	r1, r1, r1, lsl #4
 260:	0c42970a 	mcrreq	7, 0, r9, r2, cr10
 264:	34130000 	ldrcc	r0, [r3], #-0
 268:	3a0e0300 	bcc	380e70 <__bss_end+0x377e64>
 26c:	490b3b0b 	stmdbmi	fp, {r0, r1, r3, r8, r9, fp, ip, sp}
 270:	020c3f13 	andeq	r3, ip, #76	; 0x4c
 274:	0000000a 	andeq	r0, r0, sl
 278:	25011101 	strcs	r1, [r1, #-257]	; 0x101
 27c:	030b130e 	movweq	r1, #45838	; 0xb30e
 280:	110e1b0e 	tstne	lr, lr, lsl #22
 284:	10011201 	andne	r1, r1, r1, lsl #4
 288:	02000006 	andeq	r0, r0, #6
 28c:	0b0b0024 	bleq	2c0324 <__bss_end+0x2b7318>
 290:	0e030b3e 	vmoveq.16	d3[0], r0
 294:	2e030000 	cdpcs	0, 0, cr0, cr3, cr0, {0}
 298:	030c3f01 	movweq	r3, #52993	; 0xcf01
 29c:	3b0b3a0e 	blcc	2ceadc <__bss_end+0x2c5ad0>
 2a0:	1201110b 	andne	r1, r1, #-1073741822	; 0xc0000002
 2a4:	96064001 	strls	r4, [r6], -r1
 2a8:	13010c42 	movwne	r0, #7234	; 0x1c42
 2ac:	34040000 	strcc	r0, [r4], #-0
 2b0:	3a080300 	bcc	200eb8 <__bss_end+0x1f7eac>
 2b4:	490b3b0b 	stmdbmi	fp, {r0, r1, r3, r8, r9, fp, ip, sp}
 2b8:	000a0213 	andeq	r0, sl, r3, lsl r2
 2bc:	002e0500 	eoreq	r0, lr, r0, lsl #10
 2c0:	0e030c3f 	mcreq	12, 0, r0, cr3, cr15, {1}
 2c4:	0b3b0b3a 	bleq	ec2fb4 <__bss_end+0xeb9fa8>
 2c8:	01120111 	tsteq	r2, r1, lsl r1
 2cc:	42960640 	addsmi	r0, r6, #67108864	; 0x4000000
 2d0:	0600000c 	streq	r0, [r0], -ip
 2d4:	0c3f012e 	ldfeqs	f0, [pc], #-184	; 224 <_start-0x7ddc>
 2d8:	0b3a0e03 	bleq	e83aec <__bss_end+0xe7aae0>
 2dc:	01110b3b 	tsteq	r1, fp, lsr fp
 2e0:	06400112 			; <UNDEFINED> instruction: 0x06400112
 2e4:	000c4296 	muleq	ip, r6, r2
 2e8:	11010000 	mrsne	r0, (UNDEF: 1)
 2ec:	130e2501 	movwne	r2, #58625	; 0xe501
 2f0:	1b0e030b 	blne	380f24 <__bss_end+0x377f18>
 2f4:	1201110e 	andne	r1, r1, #-2147483645	; 0x80000003
 2f8:	00061001 	andeq	r1, r6, r1
 2fc:	00240200 	eoreq	r0, r4, r0, lsl #4
 300:	0b3e0b0b 	bleq	f82f34 <__bss_end+0xf79f28>
 304:	00000e03 	andeq	r0, r0, r3, lsl #28
 308:	03001603 	movweq	r1, #1539	; 0x603
 30c:	3b0b3a0e 	blcc	2ceb4c <__bss_end+0x2c5b40>
 310:	0013490b 	andseq	r4, r3, fp, lsl #18
 314:	00240400 	eoreq	r0, r4, r0, lsl #8
 318:	0b3e0b0b 	bleq	f82f4c <__bss_end+0xf79f40>
 31c:	00000803 	andeq	r0, r0, r3, lsl #16
 320:	0b000f05 	bleq	3f3c <_start-0x40c4>
 324:	0013490b 	andseq	r4, r3, fp, lsl #18
 328:	01150600 	tsteq	r5, r0, lsl #12
 32c:	13010c27 	movwne	r0, #7207	; 0x1c27
 330:	05070000 	streq	r0, [r7, #-0]
 334:	00134900 	andseq	r4, r3, r0, lsl #18
 338:	000f0800 	andeq	r0, pc, r0, lsl #16
 33c:	00000b0b 	andeq	r0, r0, fp, lsl #22
 340:	0b010409 	bleq	4136c <__bss_end+0x38360>
 344:	3b0b3a0b 	blcc	2ceb78 <__bss_end+0x2c5b6c>
 348:	0013010b 	andseq	r0, r3, fp, lsl #2
 34c:	00280a00 	eoreq	r0, r8, r0, lsl #20
 350:	0d1c0803 	ldceq	8, cr0, [ip, #-12]
 354:	280b0000 	stmdacs	fp, {}	; <UNPREDICTABLE>
 358:	1c0e0300 	stcne	3, cr0, [lr], {-0}
 35c:	0c00000d 	stceq	0, cr0, [r0], {13}
 360:	0e030113 	mcreq	1, 0, r0, cr3, cr3, {0}
 364:	0b3a0b0b 	bleq	e82f98 <__bss_end+0xe79f8c>
 368:	13010b3b 	movwne	r0, #6971	; 0x1b3b
 36c:	0d0d0000 	stceq	0, cr0, [sp, #-0]
 370:	3a0e0300 	bcc	380f78 <__bss_end+0x377f6c>
 374:	490b3b0b 	stmdbmi	fp, {r0, r1, r3, r8, r9, fp, ip, sp}
 378:	000a3813 	andeq	r3, sl, r3, lsl r8
 37c:	000d0e00 	andeq	r0, sp, r0, lsl #28
 380:	0b3a0803 	bleq	e82394 <__bss_end+0xe79388>
 384:	13490b3b 	movtne	r0, #39739	; 0x9b3b
 388:	00000a38 	andeq	r0, r0, r8, lsr sl
 38c:	3f002e0f 	svccc	0x00002e0f
 390:	3a0e030c 	bcc	380fc8 <__bss_end+0x377fbc>
 394:	110b3b0b 	tstne	fp, fp, lsl #22
 398:	40011201 	andmi	r1, r1, r1, lsl #4
 39c:	0c429606 	mcrreq	6, 0, r9, r2, cr6
 3a0:	2e100000 	cdpcs	0, 1, cr0, cr0, cr0, {0}
 3a4:	030c3f01 	movweq	r3, #52993	; 0xcf01
 3a8:	3b0b3a0e 	blcc	2cebe8 <__bss_end+0x2c5bdc>
 3ac:	110c270b 	tstne	ip, fp, lsl #14
 3b0:	40011201 	andmi	r1, r1, r1, lsl #4
 3b4:	0c429606 	mcrreq	6, 0, r9, r2, cr6
 3b8:	00001301 	andeq	r1, r0, r1, lsl #6
 3bc:	03000511 	movweq	r0, #1297	; 0x511
 3c0:	3b0b3a08 	blcc	2cebe8 <__bss_end+0x2c5bdc>
 3c4:	0213490b 	andseq	r4, r3, #180224	; 0x2c000
 3c8:	1200000a 	andne	r0, r0, #10
 3cc:	0e030005 	cdpeq	0, 0, cr0, cr3, cr5, {0}
 3d0:	0b3b0b3a 	bleq	ec30c0 <__bss_end+0xeba0b4>
 3d4:	0a021349 	beq	85100 <__bss_end+0x7c0f4>
 3d8:	34130000 	ldrcc	r0, [r3], #-0
 3dc:	3a080300 	bcc	200fe4 <__bss_end+0x1f7fd8>
 3e0:	490b3b0b 	stmdbmi	fp, {r0, r1, r3, r8, r9, fp, ip, sp}
 3e4:	000a0213 	andeq	r0, sl, r3, lsl r2
 3e8:	012e1400 	teqeq	lr, r0, lsl #8
 3ec:	0e030c3f 	mcreq	12, 0, r0, cr3, cr15, {1}
 3f0:	0b3b0b3a 	bleq	ec30e0 <__bss_end+0xeba0d4>
 3f4:	01120111 	tsteq	r2, r1, lsl r1
 3f8:	42960a40 	addsmi	r0, r6, #262144	; 0x40000
 3fc:	0013010c 	andseq	r0, r3, ip, lsl #2
 400:	00341500 	eorseq	r1, r4, r0, lsl #10
 404:	0b3a0e03 	bleq	e83c18 <__bss_end+0xe7ac0c>
 408:	13490b3b 	movtne	r0, #39739	; 0x9b3b
 40c:	00000a02 	andeq	r0, r0, r2, lsl #20
 410:	11010b16 	tstne	r1, r6, lsl fp
 414:	00011201 	andeq	r1, r1, r1, lsl #4
 418:	012e1700 	teqeq	lr, r0, lsl #14
 41c:	0e030c3f 	mcreq	12, 0, r0, cr3, cr15, {1}
 420:	0b3b0b3a 	bleq	ec3110 <__bss_end+0xeba104>
 424:	01110c27 	tsteq	r1, r7, lsr #24
 428:	06400112 			; <UNDEFINED> instruction: 0x06400112
 42c:	010c4297 			; <UNDEFINED> instruction: 0x010c4297
 430:	18000013 	stmdane	r0, {r0, r1, r4}
 434:	0e030034 	mcreq	0, 0, r0, cr3, cr4, {1}
 438:	0b3b0b3a 	bleq	ec3128 <__bss_end+0xeba11c>
 43c:	0c3f1349 	ldceq	3, cr1, [pc], #-292	; 320 <_start-0x7ce0>
 440:	00000a02 	andeq	r0, r0, r2, lsl #20
 444:	01110100 	tsteq	r1, r0, lsl #2
 448:	0b130e25 	bleq	4c3ce4 <__bss_end+0x4bacd8>
 44c:	0e1b0e03 	cdpeq	14, 1, cr0, cr11, cr3, {0}
 450:	01120111 	tsteq	r2, r1, lsl r1
 454:	00000610 	andeq	r0, r0, r0, lsl r6
 458:	0b002402 	bleq	9468 <__bss_end+0x45c>
 45c:	030b3e0b 	movweq	r3, #48651	; 0xbe0b
 460:	0300000e 	movweq	r0, #14
 464:	0e030016 	mcreq	0, 0, r0, cr3, cr6, {0}
 468:	0b3b0b3a 	bleq	ec3158 <__bss_end+0xeba14c>
 46c:	00001349 	andeq	r1, r0, r9, asr #6
 470:	0b002404 	bleq	9488 <__bss_end+0x47c>
 474:	030b3e0b 	movweq	r3, #48651	; 0xbe0b
 478:	05000008 	streq	r0, [r0, #-8]
 47c:	0b0b000f 	bleq	2c04c0 <__bss_end+0x2b74b4>
 480:	00001349 	andeq	r1, r0, r9, asr #6
 484:	27011506 	strcs	r1, [r1, -r6, lsl #10]
 488:	0013010c 	andseq	r0, r3, ip, lsl #2
 48c:	00050700 	andeq	r0, r5, r0, lsl #14
 490:	00001349 	andeq	r1, r0, r9, asr #6
 494:	0b000f08 	bleq	40bc <_start-0x3f44>
 498:	0900000b 	stmdbeq	r0, {r0, r1, r3}
 49c:	0b0b0104 	bleq	2c08b4 <__bss_end+0x2b78a8>
 4a0:	0b3b0b3a 	bleq	ec3190 <__bss_end+0xeba184>
 4a4:	00001301 	andeq	r1, r0, r1, lsl #6
 4a8:	0300280a 	movweq	r2, #2058	; 0x80a
 4ac:	000d1c08 	andeq	r1, sp, r8, lsl #24
 4b0:	00280b00 	eoreq	r0, r8, r0, lsl #22
 4b4:	0d1c0e03 	ldceq	14, cr0, [ip, #-12]
 4b8:	130c0000 	movwne	r0, #49152	; 0xc000
 4bc:	0b0e0301 	bleq	3810c8 <__bss_end+0x3780bc>
 4c0:	3b0b3a0b 	blcc	2cecf4 <__bss_end+0x2c5ce8>
 4c4:	0013010b 	andseq	r0, r3, fp, lsl #2
 4c8:	000d0d00 	andeq	r0, sp, r0, lsl #26
 4cc:	0b3a0e03 	bleq	e83ce0 <__bss_end+0xe7acd4>
 4d0:	13490b3b 	movtne	r0, #39739	; 0x9b3b
 4d4:	00000a38 	andeq	r0, r0, r8, lsr sl
 4d8:	03000d0e 	movweq	r0, #3342	; 0xd0e
 4dc:	3b0b3a08 	blcc	2ced04 <__bss_end+0x2c5cf8>
 4e0:	3813490b 	ldmdacc	r3, {r0, r1, r3, r8, fp, lr}
 4e4:	0f00000a 	svceq	0x0000000a
 4e8:	0c3f012e 	ldfeqs	f0, [pc], #-184	; 438 <_start-0x7bc8>
 4ec:	0b3a0e03 	bleq	e83d00 <__bss_end+0xe7acf4>
 4f0:	0c270b3b 	stceq	11, cr0, [r7], #-236	; 0xffffff14
 4f4:	01120111 	tsteq	r2, r1, lsl r1
 4f8:	42960640 	addsmi	r0, r6, #67108864	; 0x4000000
 4fc:	0013010c 	andseq	r0, r3, ip, lsl #2
 500:	00051000 	andeq	r1, r5, r0
 504:	0b3a0803 	bleq	e82518 <__bss_end+0xe7950c>
 508:	13490b3b 	movtne	r0, #39739	; 0x9b3b
 50c:	00000a02 	andeq	r0, r0, r2, lsl #20
 510:	11010b11 	tstne	r1, r1, lsl fp
 514:	00011201 	andeq	r1, r1, r1, lsl #4
 518:	00341200 	eorseq	r1, r4, r0, lsl #4
 51c:	0b3a0e03 	bleq	e83d30 <__bss_end+0xe7ad24>
 520:	13490b3b 	movtne	r0, #39739	; 0x9b3b
 524:	00000a02 	andeq	r0, r0, r2, lsl #20
 528:	03000513 	movweq	r0, #1299	; 0x513
 52c:	3b0b3a0e 	blcc	2ced6c <__bss_end+0x2c5d60>
 530:	0213490b 	andseq	r4, r3, #180224	; 0x2c000
 534:	1400000a 	strne	r0, [r0], #-10
 538:	0e030034 	mcreq	0, 0, r0, cr3, cr4, {1}
 53c:	0b3b0b3a 	bleq	ec322c <__bss_end+0xeba220>
 540:	0c3f1349 	ldceq	3, cr1, [pc], #-292	; 424 <_start-0x7bdc>
 544:	00000a02 	andeq	r0, r0, r2, lsl #20
	...

Disassembly of section .debug_aranges:

00000000 <.debug_aranges>:
   0:	0000001c 	andeq	r0, r0, ip, lsl r0
   4:	00000002 	andeq	r0, r0, r2
   8:	00040000 	andeq	r0, r4, r0
   c:	00000000 	andeq	r0, r0, r0
  10:	00008000 	andeq	r8, r0, r0
  14:	000000d0 	ldrdeq	r0, [r0], -r0	; <UNPREDICTABLE>
	...
  20:	0000001c 	andeq	r0, r0, ip, lsl r0
  24:	00670002 	rsbeq	r0, r7, r2
  28:	00040000 	andeq	r0, r4, r0
  2c:	00000000 	andeq	r0, r0, r0
  30:	000080d0 	ldrdeq	r8, [r0], -r0
  34:	0000014c 	andeq	r0, r0, ip, asr #2
	...
  40:	0000001c 	andeq	r0, r0, ip, lsl r0
  44:	030d0002 	movweq	r0, #53250	; 0xd002
  48:	00040000 	andeq	r0, r4, r0
  4c:	00000000 	andeq	r0, r0, r0
  50:	0000821c 	andeq	r8, r0, ip, lsl r2
  54:	000005c8 	andeq	r0, r0, r8, asr #11
	...
  60:	0000001c 	andeq	r0, r0, ip, lsl r0
  64:	073e0002 	ldreq	r0, [lr, -r2]!
  68:	00040000 	andeq	r0, r4, r0
  6c:	00000000 	andeq	r0, r0, r0
  70:	000087e4 	andeq	r8, r0, r4, ror #15
  74:	00000130 	andeq	r0, r0, r0, lsr r1
	...
  80:	0000001c 	andeq	r0, r0, ip, lsl r0
  84:	07fa0002 	ldrbeq	r0, [sl, r2]!
  88:	00040000 	andeq	r0, r4, r0
  8c:	00000000 	andeq	r0, r0, r0
  90:	00008914 	andeq	r8, r0, r4, lsl r9
  94:	00000384 	andeq	r0, r0, r4, lsl #7
	...
  a0:	0000001c 	andeq	r0, r0, ip, lsl r0
  a4:	0a270002 	beq	9c00b4 <__bss_end+0x9b70a8>
  a8:	00040000 	andeq	r0, r4, r0
  ac:	00000000 	andeq	r0, r0, r0
  b0:	00008c98 	muleq	r0, r8, ip
  b4:	00000340 	andeq	r0, r0, r0, asr #6
	...

Disassembly of section .debug_loc:

00000000 <.debug_loc>:
   0:	00000000 	andeq	r0, r0, r0
   4:	00000004 	andeq	r0, r0, r4
   8:	007d0002 	rsbseq	r0, sp, r2
   c:	00000004 	andeq	r0, r0, r4
  10:	00000008 	andeq	r0, r0, r8
  14:	047d0002 	ldrbteq	r0, [sp], #-2
  18:	00000008 	andeq	r0, r0, r8
  1c:	00000088 	andeq	r0, r0, r8, lsl #1
  20:	187d0002 	ldmdane	sp!, {r1}^
	...
  2c:	00000088 	andeq	r0, r0, r8, lsl #1
  30:	0000008c 	andeq	r0, r0, ip, lsl #1
  34:	007d0002 	rsbseq	r0, sp, r2
  38:	0000008c 	andeq	r0, r0, ip, lsl #1
  3c:	00000090 	muleq	r0, r0, r0
  40:	047d0002 	ldrbteq	r0, [sp], #-2
  44:	00000090 	muleq	r0, r0, r0
  48:	0000014c 	andeq	r0, r0, ip, asr #2
  4c:	307d0002 	rsbscc	r0, sp, r2
	...
  5c:	00000004 	andeq	r0, r0, r4
  60:	007d0002 	rsbseq	r0, sp, r2
  64:	00000004 	andeq	r0, r0, r4
  68:	0000001c 	andeq	r0, r0, ip, lsl r0
  6c:	087d0002 	ldmdaeq	sp!, {r1}^
	...
  78:	0000001c 	andeq	r0, r0, ip, lsl r0
  7c:	00000020 	andeq	r0, r0, r0, lsr #32
  80:	007d0002 	rsbseq	r0, sp, r2
  84:	00000020 	andeq	r0, r0, r0, lsr #32
  88:	00000098 	muleq	r0, r8, r0
  8c:	107d0002 	rsbsne	r0, sp, r2
	...
  98:	00000098 	muleq	r0, r8, r0
  9c:	0000009c 	muleq	r0, ip, r0
  a0:	007d0002 	rsbseq	r0, sp, r2
  a4:	0000009c 	muleq	r0, ip, r0
  a8:	000000a0 	andeq	r0, r0, r0, lsr #1
  ac:	047d0002 	ldrbteq	r0, [sp], #-2
  b0:	000000a0 	andeq	r0, r0, r0, lsr #1
  b4:	0000015c 	andeq	r0, r0, ip, asr r1
  b8:	207d0002 	rsbscs	r0, sp, r2
	...
  c4:	0000015c 	andeq	r0, r0, ip, asr r1
  c8:	00000160 	andeq	r0, r0, r0, ror #2
  cc:	007d0002 	rsbseq	r0, sp, r2
  d0:	00000160 	andeq	r0, r0, r0, ror #2
  d4:	000001cc 	andeq	r0, r0, ip, asr #3
  d8:	107d0002 	rsbsne	r0, sp, r2
	...
  e4:	000001cc 	andeq	r0, r0, ip, asr #3
  e8:	000001d0 	ldrdeq	r0, [r0], -r0	; <UNPREDICTABLE>
  ec:	007d0002 	rsbseq	r0, sp, r2
  f0:	000001d0 	ldrdeq	r0, [r0], -r0	; <UNPREDICTABLE>
  f4:	00000228 	andeq	r0, r0, r8, lsr #4
  f8:	087d0002 	ldmdaeq	sp!, {r1}^
	...
 104:	00000228 	andeq	r0, r0, r8, lsr #4
 108:	0000022c 	andeq	r0, r0, ip, lsr #4
 10c:	007d0002 	rsbseq	r0, sp, r2
 110:	0000022c 	andeq	r0, r0, ip, lsr #4
 114:	00000284 	andeq	r0, r0, r4, lsl #5
 118:	087d0002 	ldmdaeq	sp!, {r1}^
	...
 124:	00000284 	andeq	r0, r0, r4, lsl #5
 128:	00000288 	andeq	r0, r0, r8, lsl #5
 12c:	007d0002 	rsbseq	r0, sp, r2
 130:	00000288 	andeq	r0, r0, r8, lsl #5
 134:	0000028c 	andeq	r0, r0, ip, lsl #5
 138:	047d0002 	ldrbteq	r0, [sp], #-2
 13c:	0000028c 	andeq	r0, r0, ip, lsl #5
 140:	00000370 	andeq	r0, r0, r0, ror r3
 144:	207d0002 	rsbscs	r0, sp, r2
	...
 150:	00000370 	andeq	r0, r0, r0, ror r3
 154:	00000374 	andeq	r0, r0, r4, ror r3
 158:	007d0002 	rsbseq	r0, sp, r2
 15c:	00000374 	andeq	r0, r0, r4, ror r3
 160:	000003c4 	andeq	r0, r0, r4, asr #7
 164:	107d0002 	rsbsne	r0, sp, r2
	...
 170:	000003c4 	andeq	r0, r0, r4, asr #7
 174:	000003c8 	andeq	r0, r0, r8, asr #7
 178:	007d0002 	rsbseq	r0, sp, r2
 17c:	000003c8 	andeq	r0, r0, r8, asr #7
 180:	000003cc 	andeq	r0, r0, ip, asr #7
 184:	047d0002 	ldrbteq	r0, [sp], #-2
 188:	000003cc 	andeq	r0, r0, ip, asr #7
 18c:	000004b8 			; <UNDEFINED> instruction: 0x000004b8
 190:	207d0002 	rsbscs	r0, sp, r2
	...
 19c:	000004d0 	ldrdeq	r0, [r0], -r0	; <UNPREDICTABLE>
 1a0:	000004d4 	ldrdeq	r0, [r0], -r4
 1a4:	007d0002 	rsbseq	r0, sp, r2
 1a8:	000004d4 	ldrdeq	r0, [r0], -r4
 1ac:	000005c8 	andeq	r0, r0, r8, asr #11
 1b0:	307d0002 	rsbscc	r0, sp, r2
	...
 1c0:	00000004 	andeq	r0, r0, r4
 1c4:	007d0002 	rsbseq	r0, sp, r2
 1c8:	00000004 	andeq	r0, r0, r4
 1cc:	00000008 	andeq	r0, r0, r8
 1d0:	047d0002 	ldrbteq	r0, [sp], #-2
 1d4:	00000008 	andeq	r0, r0, r8
 1d8:	0000004c 	andeq	r0, r0, ip, asr #32
 1dc:	107d0002 	rsbsne	r0, sp, r2
	...
 1e8:	0000004c 	andeq	r0, r0, ip, asr #32
 1ec:	00000050 	andeq	r0, r0, r0, asr r0
 1f0:	007d0002 	rsbseq	r0, sp, r2
 1f4:	00000050 	andeq	r0, r0, r0, asr r0
 1f8:	00000064 	andeq	r0, r0, r4, rrx
 1fc:	087d0002 	ldmdaeq	sp!, {r1}^
	...
 208:	00000064 	andeq	r0, r0, r4, rrx
 20c:	00000068 	andeq	r0, r0, r8, rrx
 210:	007d0002 	rsbseq	r0, sp, r2
 214:	00000068 	andeq	r0, r0, r8, rrx
 218:	0000007c 	andeq	r0, r0, ip, ror r0
 21c:	087d0002 	ldmdaeq	sp!, {r1}^
	...
 228:	0000007c 	andeq	r0, r0, ip, ror r0
 22c:	00000080 	andeq	r0, r0, r0, lsl #1
 230:	007d0002 	rsbseq	r0, sp, r2
 234:	00000080 	andeq	r0, r0, r0, lsl #1
 238:	00000084 	andeq	r0, r0, r4, lsl #1
 23c:	047d0002 	ldrbteq	r0, [sp], #-2
 240:	00000084 	andeq	r0, r0, r4, lsl #1
 244:	00000130 	andeq	r0, r0, r0, lsr r1
 248:	107d0002 	rsbsne	r0, sp, r2
	...
 258:	00000004 	andeq	r0, r0, r4
 25c:	007d0002 	rsbseq	r0, sp, r2
 260:	00000004 	andeq	r0, r0, r4
 264:	00000038 	andeq	r0, r0, r8, lsr r0
 268:	087d0002 	ldmdaeq	sp!, {r1}^
	...
 274:	00000038 	andeq	r0, r0, r8, lsr r0
 278:	0000003c 	andeq	r0, r0, ip, lsr r0
 27c:	007d0002 	rsbseq	r0, sp, r2
 280:	0000003c 	andeq	r0, r0, ip, lsr r0
 284:	00000040 	andeq	r0, r0, r0, asr #32
 288:	047d0002 	ldrbteq	r0, [sp], #-2
 28c:	00000040 	andeq	r0, r0, r0, asr #32
 290:	00000140 	andeq	r0, r0, r0, asr #2
 294:	187d0002 	ldmdane	sp!, {r1}^
	...
 2a0:	00000338 	andeq	r0, r0, r8, lsr r3
 2a4:	0000033c 	andeq	r0, r0, ip, lsr r3
 2a8:	007d0002 	rsbseq	r0, sp, r2
 2ac:	0000033c 	andeq	r0, r0, ip, lsr r3
 2b0:	00000384 	andeq	r0, r0, r4, lsl #7
 2b4:	087d0002 	ldmdaeq	sp!, {r1}^
	...
 2c4:	00000004 	andeq	r0, r0, r4
 2c8:	007d0002 	rsbseq	r0, sp, r2
 2cc:	00000004 	andeq	r0, r0, r4
 2d0:	00000008 	andeq	r0, r0, r8
 2d4:	047d0002 	ldrbteq	r0, [sp], #-2
 2d8:	00000008 	andeq	r0, r0, r8
 2dc:	0000005c 	andeq	r0, r0, ip, asr r0
 2e0:	107d0002 	rsbsne	r0, sp, r2
	...
 2ec:	0000005c 	andeq	r0, r0, ip, asr r0
 2f0:	00000060 	andeq	r0, r0, r0, rrx
 2f4:	007d0002 	rsbseq	r0, sp, r2
 2f8:	00000060 	andeq	r0, r0, r0, rrx
 2fc:	00000064 	andeq	r0, r0, r4, rrx
 300:	047d0002 	ldrbteq	r0, [sp], #-2
 304:	00000064 	andeq	r0, r0, r4, rrx
 308:	00000104 	andeq	r0, r0, r4, lsl #2
 30c:	187d0002 	ldmdane	sp!, {r1}^
	...
 318:	00000104 	andeq	r0, r0, r4, lsl #2
 31c:	00000108 	andeq	r0, r0, r8, lsl #2
 320:	007d0002 	rsbseq	r0, sp, r2
 324:	00000108 	andeq	r0, r0, r8, lsl #2
 328:	0000010c 	andeq	r0, r0, ip, lsl #2
 32c:	047d0002 	ldrbteq	r0, [sp], #-2
 330:	0000010c 	andeq	r0, r0, ip, lsl #2
 334:	0000022c 	andeq	r0, r0, ip, lsr #4
 338:	187d0002 	ldmdane	sp!, {r1}^
	...
 344:	0000022c 	andeq	r0, r0, ip, lsr #4
 348:	00000230 	andeq	r0, r0, r0, lsr r2
 34c:	007d0002 	rsbseq	r0, sp, r2
 350:	00000230 	andeq	r0, r0, r0, lsr r2
 354:	00000234 	andeq	r0, r0, r4, lsr r2
 358:	047d0002 	ldrbteq	r0, [sp], #-2
 35c:	00000234 	andeq	r0, r0, r4, lsr r2
 360:	00000278 	andeq	r0, r0, r8, ror r2
 364:	107d0002 	rsbsne	r0, sp, r2
	...
 370:	00000278 	andeq	r0, r0, r8, ror r2
 374:	0000027c 	andeq	r0, r0, ip, ror r2
 378:	007d0002 	rsbseq	r0, sp, r2
 37c:	0000027c 	andeq	r0, r0, ip, ror r2
 380:	00000280 	andeq	r0, r0, r0, lsl #5
 384:	047d0002 	ldrbteq	r0, [sp], #-2
 388:	00000280 	andeq	r0, r0, r0, lsl #5
 38c:	000002d8 	ldrdeq	r0, [r0], -r8
 390:	107d0002 	rsbsne	r0, sp, r2
	...
 39c:	000002d8 	ldrdeq	r0, [r0], -r8
 3a0:	000002dc 	ldrdeq	r0, [r0], -ip
 3a4:	007d0002 	rsbseq	r0, sp, r2
 3a8:	000002dc 	ldrdeq	r0, [r0], -ip
 3ac:	000002e0 	andeq	r0, r0, r0, ror #5
 3b0:	047d0002 	ldrbteq	r0, [sp], #-2
 3b4:	000002e0 	andeq	r0, r0, r0, ror #5
 3b8:	00000340 	andeq	r0, r0, r0, asr #6
 3bc:	107d0002 	rsbsne	r0, sp, r2
	...

Disassembly of section .debug_str:

00000000 <.debug_str>:
   0:	6b636974 	blvs	18da5d8 <__bss_end+0x18d15cc>
   4:	656b0073 	strbvs	r0, [fp, #-115]!	; 0x73
   8:	6c656e72 	stclvs	14, cr6, [r5], #-456	; 0xfffffe38
   c:	6e00632e 	cdpvs	3, 0, cr6, cr0, cr14, {1}
  10:	00747865 	rsbseq	r7, r4, r5, ror #16
  14:	6f736e75 	svcvs	0x00736e75
  18:	64657472 	strbtvs	r7, [r5], #-1138	; 0x472
  1c:	61747300 	cmnvs	r4, r0, lsl #6
  20:	57006574 	smlsdxpl	r0, r4, r5, r6
  24:	49544941 	ldmdbmi	r4, {r0, r6, r8, fp, lr}^
  28:	7600474e 	strvc	r4, [r0], -lr, asr #14
  2c:	65756c61 	ldrbvs	r6, [r5, #-3169]!	; 0xc61
  30:	736e6900 	cmnvc	lr, #0
  34:	5f747265 	svcpl	0x00747265
  38:	006d6573 	rsbeq	r6, sp, r3, ror r5
  3c:	72746e65 	rsbsvc	r6, r4, #1616	; 0x650
  40:	6f705f79 	svcvs	0x00705f79
  44:	00746e69 	rsbseq	r6, r4, r9, ror #28
  48:	636f7270 	cmnvs	pc, #7
  4c:	74617453 	strbtvc	r7, [r1], #-1107	; 0x453
  50:	4c530065 	mrrcmi	0, 6, r0, r3, cr5
  54:	49504545 	ldmdbmi	r0, {r0, r2, r6, r8, sl, lr}^
  58:	7000474e 	andvc	r4, r0, lr, asr #14
  5c:	735f6263 	cmpvc	pc, #805306374	; 0x30000006
  60:	6f682f00 	svcvs	0x00682f00
  64:	612f656d 	teqvs	pc, sp, ror #10
  68:	6863616b 	stmdavs	r3!, {r0, r1, r3, r5, r6, r8, sp, lr}^
  6c:	6863616b 	stmdavs	r3!, {r0, r1, r3, r5, r6, r8, sp, lr}^
  70:	726f772f 	rsbvc	r7, pc, #12320768	; 0xbc0000
  74:	6170736b 	cmnvs	r0, fp, ror #6
  78:	702f6563 	eorvc	r6, pc, r3, ror #10
  7c:	65636f72 	strbvs	r6, [r3, #-3954]!	; 0xf72
  80:	732d7373 	teqvc	sp, #-872415231	; 0xcc000001
  84:	64656863 	strbtvs	r6, [r5], #-2147	; 0x863
  88:	72656c75 	rsbvc	r6, r5, #29952	; 0x7500
  8c:	656c732f 	strbvs	r7, [ip, #-815]!	; 0x32f
  90:	732d7065 	teqvc	sp, #101	; 0x65
  94:	0074726f 	rsbseq	r7, r4, pc, ror #4
  98:	69736e75 	ldmdbvs	r3!, {r0, r2, r4, r5, r6, r9, sl, fp, sp, lr}^
  9c:	64656e67 	strbtvs	r6, [r5], #-3687	; 0xe67
  a0:	61686320 	cmnvs	r8, r0, lsr #6
  a4:	68730072 	ldmdavs	r3!, {r1, r4, r5, r6}^
  a8:	2074726f 	rsbscs	r7, r4, pc, ror #4
  ac:	69736e75 	ldmdbvs	r3!, {r0, r2, r4, r5, r6, r9, sl, fp, sp, lr}^
  b0:	64656e67 	strbtvs	r6, [r5], #-3687	; 0xe67
  b4:	746e6920 	strbtvc	r6, [lr], #-2336	; 0x920
  b8:	69617700 	stmdbvs	r1!, {r8, r9, sl, ip, sp, lr}^
  bc:	676e6974 			; <UNDEFINED> instruction: 0x676e6974
  c0:	6f72705f 	svcvs	0x0072705f
  c4:	73736563 	cmnvc	r3, #415236096	; 0x18c00000
  c8:	61747300 	cmnvs	r4, r0, lsl #6
  cc:	6b5f7472 	blvs	17dd29c <__bss_end+0x17d4290>
  d0:	656e7265 	strbvs	r7, [lr, #-613]!	; 0x265
  d4:	6573006c 	ldrbvs	r0, [r3, #-108]!	; 0x6c
  d8:	00735f6d 	rsbseq	r5, r3, sp, ror #30
  dc:	72727563 	rsbsvc	r7, r2, #415236096	; 0x18c00000
  e0:	5f746e65 	svcpl	0x00746e65
  e4:	636f7270 	cmnvs	pc, #7
  e8:	00737365 	rsbseq	r7, r3, r5, ror #6
  ec:	676e6f6c 	strbvs	r6, [lr, -ip, ror #30]!
  f0:	6e6f6c20 	cdpvs	12, 6, cr6, cr15, cr0, {1}
  f4:	6e752067 	cdpvs	0, 7, cr2, cr5, cr7, {3}
  f8:	6e676973 	mcrvs	9, 3, r6, cr7, cr3, {3}
  fc:	69206465 	stmdbvs	r0!, {r0, r2, r5, r6, sl, sp, lr}
 100:	6600746e 	strvs	r7, [r0], -lr, ror #8
 104:	5f636e75 	svcpl	0x00636e75
 108:	74730074 	ldrbtvc	r0, [r3], #-116	; 0x74
 10c:	5f6b6361 	svcpl	0x006b6361
 110:	65736162 	ldrbvs	r6, [r3, #-354]!	; 0x162
 114:	7a697300 	bvc	1a5cd1c <__bss_end+0x1a53d10>
 118:	70797465 	rsbsvc	r7, r9, r5, ror #8
 11c:	6f6c0065 	svcvs	0x006c0065
 120:	6c20676e 	stcvs	7, cr6, [r0], #-440	; 0xfffffe48
 124:	20676e6f 	rsbcs	r6, r7, pc, ror #28
 128:	00746e69 	rsbseq	r6, r4, r9, ror #28
 12c:	75657571 	strbvc	r7, [r5, #-1393]!	; 0x571
 130:	4e470065 	cdpmi	0, 4, cr0, cr7, cr5, {3}
 134:	20432055 	subcs	r2, r3, r5, asr r0
 138:	2e372e34 	mrccs	14, 1, r2, cr7, cr4, {1}
 13c:	616c0031 	cmnvs	ip, r1, lsr r0
 140:	705f7473 	subsvc	r7, pc, r3, ror r4	; <UNPREDICTABLE>
 144:	65636f72 	strbvs	r6, [r3, #-3954]!	; 0xf72
 148:	77007373 	smlsdxvc	r0, r3, r3, r7
 14c:	69746961 	ldmdbvs	r4!, {r0, r5, r6, r8, fp, sp, lr}^
 150:	7300676e 	movwvc	r6, #1902	; 0x76e
 154:	74726f68 	ldrbtvc	r6, [r2], #-3944	; 0xf68
 158:	746e6920 	strbtvc	r6, [lr], #-2336	; 0x920
 15c:	67726100 	ldrbvs	r6, [r2, -r0, lsl #2]!
 160:	69750073 	ldmdbvs	r5!, {r0, r1, r4, r5, r6}^
 164:	3233746e 	eorscc	r7, r3, #1845493760	; 0x6e000000
 168:	5200745f 	andpl	r7, r0, #1593835520	; 0x5f000000
 16c:	494e4e55 	stmdbmi	lr, {r0, r2, r4, r6, r9, sl, fp, lr}^
 170:	5400474e 	strpl	r4, [r0], #-1870	; 0x74e
 174:	494d5245 	stmdbmi	sp, {r0, r2, r6, r9, ip, lr}^
 178:	4554414e 	ldrbmi	r4, [r4, #-334]	; 0x14e
 17c:	69730044 	ldmdbvs	r3!, {r2, r6}^
 180:	7000657a 	andvc	r6, r0, sl, ror r5
 184:	00766572 	rsbseq	r6, r6, r2, ror r5
 188:	74736469 	ldrbtvc	r6, [r3], #-1129	; 0x469
 18c:	72756300 	rsbsvc	r6, r5, #0
 190:	616d0072 	smcvs	53250	; 0xd002
 194:	636f6c6c 	cmnvs	pc, #27648	; 0x6c00
 198:	6c6c615f 	stfvse	f6, [ip], #-380	; 0xfffffe84
 19c:	6e5f636f 	cdpvs	3, 5, cr6, cr15, cr15, {3}
 1a0:	655f7765 	ldrbvs	r7, [pc, #-1893]	; fffffa43 <__bss_end+0xffff6a37>
 1a4:	7972746e 	ldmdbvc	r2!, {r1, r2, r3, r5, r6, sl, ip, sp, lr}^
 1a8:	6f682f00 	svcvs	0x00682f00
 1ac:	612f656d 	teqvs	pc, sp, ror #10
 1b0:	6863616b 	stmdavs	r3!, {r0, r1, r3, r5, r6, r8, sp, lr}^
 1b4:	6863616b 	stmdavs	r3!, {r0, r1, r3, r5, r6, r8, sp, lr}^
 1b8:	726f772f 	rsbvc	r7, pc, #12320768	; 0xbc0000
 1bc:	6170736b 	cmnvs	r0, fp, ror #6
 1c0:	702f6563 	eorvc	r6, pc, r3, ror #10
 1c4:	65636f72 	strbvs	r6, [r3, #-3954]!	; 0xf72
 1c8:	732d7373 	teqvc	sp, #-872415231	; 0xcc000001
 1cc:	64656863 	strbtvs	r6, [r5], #-2147	; 0x863
 1d0:	72656c75 	rsbvc	r6, r5, #29952	; 0x7500
 1d4:	00736f2f 	rsbseq	r6, r3, pc, lsr #30
 1d8:	6c6c616d 	stfvse	f6, [ip], #-436	; 0xfffffe4c
 1dc:	665f636f 	ldrbvs	r6, [pc], -pc, ror #6
 1e0:	5f656572 	svcpl	0x00656572
 1e4:	7473696c 	ldrbtvc	r6, [r3], #-2412	; 0x96c
 1e8:	66656c00 	strbtvs	r6, [r5], -r0, lsl #24
 1ec:	616d0074 	smcvs	53252	; 0xd004
 1f0:	636f6c6c 	cmnvs	pc, #27648	; 0x6c00
 1f4:	6165685f 	cmnvs	r5, pc, asr r8
 1f8:	00745f70 	rsbseq	r5, r4, r0, ror pc
 1fc:	6c6c616d 	stfvse	f6, [ip], #-436	; 0xfffffe4c
 200:	665f636f 	ldrbvs	r6, [pc], -pc, ror #6
 204:	00656572 	rsbeq	r6, r5, r2, ror r5
 208:	6c6c616d 	stfvse	f6, [ip], #-436	; 0xfffffe4c
 20c:	615f636f 	cmpvs	pc, pc, ror #6
 210:	636f6c6c 	cmnvs	pc, #27648	; 0x6c00
 214:	6c616d00 	stclvs	13, cr6, [r1], #-0
 218:	5f636f6c 	svcpl	0x00636f6c
 21c:	5f746567 	svcpl	0x00746567
 220:	72746e65 	rsbsvc	r6, r4, #1616	; 0x650
 224:	61640079 	smcvs	16393	; 0x4009
 228:	69006174 	stmdbvs	r0, {r2, r4, r5, r6, r8, sp, lr}
 22c:	00637273 	rsbeq	r7, r3, r3, ror r2
 230:	6e656c69 	cdpvs	12, 6, cr6, cr5, cr9, {3}
 234:	67697200 	strbvs	r7, [r9, -r0, lsl #4]!
 238:	70007468 	andvc	r7, r0, r8, ror #8
 23c:	6e657261 	cdpvs	2, 6, cr7, cr5, cr1, {3}
 240:	73630074 	cmnvc	r3, #116	; 0x74
 244:	6d006372 	stcvs	3, cr6, [r0, #-456]	; 0xfffffe38
 248:	6f6c6c61 	svcvs	0x006c6c61
 24c:	65685f63 	strbvs	r5, [r8, #-3939]!	; 0xf63
 250:	6d006461 	cfstrsvs	mvf6, [r0, #-388]	; 0xfffffe7c
 254:	6f6c6c61 	svcvs	0x006c6c61
 258:	72665f63 	rsbvc	r5, r6, #396	; 0x18c
 25c:	6c5f6565 	cfldr64vs	mvdx6, [pc], {101}	; 0x65
 260:	5f747369 	svcpl	0x00747369
 264:	6f6d6572 	svcvs	0x006d6572
 268:	6d006576 	cfstr32vs	mvfx6, [r0, #-472]	; 0xfffffe28
 26c:	6f6c6c61 	svcvs	0x006c6c61
 270:	72665f63 	rsbvc	r5, r6, #396	; 0x18c
 274:	696c6565 	stmdbvs	ip!, {r0, r2, r5, r6, r8, sl, sp, lr}^
 278:	6c5f7473 	cfldrdvs	mvd7, [pc], {115}	; 0x73
 27c:	74676e65 	strbtvc	r6, [r7], #-3685	; 0xe65
 280:	616d0068 	cmnvs	sp, r8, rrx
 284:	636f6c6c 	cmnvs	pc, #27648	; 0x6c00
 288:	6572665f 	ldrbvs	r6, [r2, #-1631]!	; 0x65f
 28c:	696c5f65 	stmdbvs	ip!, {r0, r2, r5, r6, r8, r9, sl, fp, ip, lr}^
 290:	735f7473 	cmpvc	pc, #1929379840	; 0x73000000
 294:	00706177 	rsbseq	r6, r0, r7, ror r1
 298:	746e6975 	strbtvc	r6, [lr], #-2421	; 0x975
 29c:	6d003233 	sfmvs	f3, 4, [r0, #-204]	; 0xffffff34
 2a0:	6f6c6c61 	svcvs	0x006c6c61
 2a4:	656c5f63 	strbvs	r5, [ip, #-3939]!	; 0xf63
 2a8:	616d0071 	smcvs	53249	; 0xd001
 2ac:	636f6c6c 	cmnvs	pc, #27648	; 0x6c00
 2b0:	696e695f 	stmdbvs	lr!, {r0, r1, r2, r3, r4, r6, r8, fp, sp, lr}^
 2b4:	64630074 	strbtvs	r0, [r3], #-116	; 0x74
 2b8:	6d007473 	cfstrsvs	mvf7, [r0, #-460]	; 0xfffffe34
 2bc:	70636d65 	rsbvc	r6, r3, r5, ror #26
 2c0:	69750079 	ldmdbvs	r5!, {r0, r3, r4, r5, r6}^
 2c4:	0038746e 	eorseq	r7, r8, lr, ror #8
 2c8:	6c696174 	stfvse	f6, [r9], #-464	; 0xfffffe30
 2cc:	6c616d00 	stclvs	13, cr6, [r1], #-0
 2d0:	5f636f6c 	svcpl	0x00636f6c
 2d4:	6500656c 	strvs	r6, [r0, #-1388]	; 0x56c
 2d8:	6972746e 	ldmdbvs	r2!, {r1, r2, r3, r5, r6, sl, ip, sp, lr}^
 2dc:	6d007365 	stcvs	3, cr7, [r0, #-404]	; 0xfffffe6c
 2e0:	6f6c6c61 	svcvs	0x006c6c61
 2e4:	6e655f63 	cdpvs	15, 6, cr5, cr5, cr3, {3}
 2e8:	5f797274 	svcpl	0x00797274
 2ec:	6c630074 	stclvs	0, cr0, [r3], #-464	; 0xfffffe30
 2f0:	6d006e65 	stcvs	14, cr6, [r0, #-404]	; 0xfffffe6c
 2f4:	6f6c6c61 	svcvs	0x006c6c61
 2f8:	00632e63 	rsbeq	r2, r3, r3, ror #28
 2fc:	74696e69 	strbtvc	r6, [r9], #-3689	; 0xe69
 300:	0077685f 	rsbseq	r6, r7, pc, asr r8
 304:	632e7768 	teqvs	lr, #27262976	; 0x1a00000
 308:	64656c00 	strbtvs	r6, [r5], #-3072	; 0xc00
 30c:	006e6f5f 	rsbeq	r6, lr, pc, asr pc
 310:	5f746573 	svcpl	0x00746573
 314:	6b636974 	blvs	18da8ec <__bss_end+0x18d18e0>
 318:	646e615f 	strbtvs	r6, [lr], #-351	; 0x15f
 31c:	616e655f 	cmnvs	lr, pc, asr r5
 320:	5f656c62 	svcpl	0x00656c62
 324:	656d6974 	strbvs	r6, [sp, #-2420]!	; 0x974
 328:	656c0072 	strbvs	r0, [ip, #-114]!	; 0x72
 32c:	666f5f64 	strbtvs	r5, [pc], -r4, ror #30
 330:	65740066 	ldrbvs	r0, [r4, #-102]!	; 0x66
 334:	6e696d72 	mcrvs	13, 3, r6, cr9, cr2, {3}
 338:	64657461 	strbtvs	r7, [r5], #-1121	; 0x461
 33c:	6f72705f 	svcvs	0x0072705f
 340:	74730063 	ldrbtvc	r0, [r3], #-99	; 0x63
 344:	5f747261 	svcpl	0x00747261
 348:	65686373 	strbvs	r6, [r8, #-883]!	; 0x373
 34c:	74630064 	strbtvc	r0, [r3], #-100	; 0x64
 350:	77735f78 			; <UNDEFINED> instruction: 0x77735f78
 354:	68637469 	stmdavs	r3!, {r0, r3, r5, r6, sl, ip, sp, lr}^
 358:	656c7300 	strbvs	r7, [ip, #-768]!	; 0x300
 35c:	705f7065 	subsvc	r7, pc, r5, rrx
 360:	00636f72 	rsbeq	r6, r3, r2, ror pc
 364:	636f7270 	cmnvs	pc, #7
 368:	6574695f 	ldrbvs	r6, [r4, #-2399]!	; 0x95f
 36c:	2e2e0072 	mcrcs	0, 1, r0, cr14, cr2, {3}
 370:	2f736f2f 	svccs	0x00736f2f
 374:	65686373 	strbvs	r6, [r8, #-883]!	; 0x373
 378:	00632e64 	rsbeq	r2, r3, r4, ror #28
 37c:	61657263 	cmnvs	r5, r3, ror #4
 380:	705f6574 	subsvc	r6, pc, r4, ror r5	; <UNPREDICTABLE>
 384:	65636f72 	strbvs	r6, [r3, #-3954]!	; 0xf72
 388:	6d007373 	stcvs	3, cr7, [r0, #-460]	; 0xfffffe34
 38c:	695f7874 	ldmdbvs	pc, {r2, r4, r5, r6, fp, ip, sp, lr}^	; <UNPREDICTABLE>
 390:	0074696e 	rsbseq	r6, r4, lr, ror #18
 394:	5f6d6573 	svcpl	0x006d6573
 398:	74696e69 	strbtvc	r6, [r9], #-3689	; 0xe69
 39c:	74756d00 	ldrbtvc	r6, [r5], #-3328	; 0xd00
 3a0:	73007865 	movwvc	r7, #2149	; 0x865
 3a4:	755f6d65 	ldrbvc	r6, [pc, #-3429]	; fffff647 <__bss_end+0xffff663b>
 3a8:	746d0070 	strbtvc	r0, [sp], #-112	; 0x70
 3ac:	6e755f78 	mrcvs	15, 3, r5, cr5, cr8, {3}
 3b0:	6b636f6c 	blvs	18dc168 <__bss_end+0x18d315c>
 3b4:	2f2e2e00 	svccs	0x002e2e00
 3b8:	732f736f 	teqvc	pc, #-1140850687	; 0xbc000001
 3bc:	632e6d65 	teqvs	lr, #6464	; 0x1940
 3c0:	78746d00 	ldmdavc	r4!, {r8, sl, fp, sp, lr}^
 3c4:	636f6c5f 	cmnvs	pc, #24320	; 0x5f00
 3c8:	776f006b 	strbvc	r0, [pc, -fp, rrx]!
 3cc:	0072656e 	rsbseq	r6, r2, lr, ror #10
 3d0:	73726966 	cmnvc	r2, #1671168	; 0x198000
 3d4:	72705f74 	rsbsvc	r5, r0, #464	; 0x1d0
 3d8:	7365636f 	cmnvc	r5, #-1140850687	; 0xbc000001
 3dc:	682f0073 	stmdavs	pc!, {r0, r1, r4, r5, r6}	; <UNPREDICTABLE>
 3e0:	2f656d6f 	svccs	0x00656d6f
 3e4:	63616b61 	cmnvs	r1, #99328	; 0x18400
 3e8:	63616b68 	cmnvs	r1, #106496	; 0x1a000
 3ec:	6f772f68 	svcvs	0x00772f68
 3f0:	70736b72 	rsbsvc	r6, r3, r2, ror fp
 3f4:	2f656361 	svccs	0x00656361
 3f8:	636f7270 	cmnvs	pc, #7
 3fc:	2d737365 	ldclcs	3, cr7, [r3, #-404]!	; 0xfffffe6c
 400:	65686373 	strbvs	r6, [r8, #-883]!	; 0x373
 404:	656c7564 	strbvs	r7, [ip, #-1380]!	; 0x564
 408:	78652f72 	stmdavc	r5!, {r1, r4, r5, r6, r8, r9, sl, fp, sp}^
 40c:	6c706d61 	ldclvs	13, cr6, [r0], #-388	; 0xfffffe7c
 410:	746d0065 	strbtvc	r0, [sp], #-101	; 0x65
 414:	00735f78 	rsbseq	r5, r3, r8, ror pc
 418:	5f6d6573 	svcpl	0x006d6573
 41c:	6e776f64 	cdpvs	15, 7, cr6, cr7, cr4, {3}
 420:	69617700 	stmdbvs	r1!, {r8, r9, sl, ip, sp, lr}^
 424:	72705f74 	rsbsvc	r5, r0, #464	; 0x1d0
 428:	7300636f 	movwvc	r6, #879	; 0x36f
 42c:	6d5f6d65 	ldclvs	13, cr6, [pc, #-404]	; 2a0 <_start-0x7d60>
 430:	Address 0x0000000000000430 is out of bounds.


Disassembly of section .debug_frame:

00000000 <.debug_frame>:
   0:	0000000c 	andeq	r0, r0, ip
   4:	ffffffff 			; <UNDEFINED> instruction: 0xffffffff
   8:	7c020001 	stcvc	0, cr0, [r2], {1}
   c:	000d0c0e 	andeq	r0, sp, lr, lsl #24
  10:	00000014 	andeq	r0, r0, r4, lsl r0
  14:	00000000 	andeq	r0, r0, r0
  18:	000080d0 	ldrdeq	r8, [r0], -r0
  1c:	00000088 	andeq	r0, r0, r8, lsl #1
  20:	8e040e42 	cdphi	14, 0, cr0, cr4, cr2, {2}
  24:	180e4201 	stmdane	lr, {r0, r9, lr}
  28:	00000014 	andeq	r0, r0, r4, lsl r0
  2c:	00000000 	andeq	r0, r0, r0
  30:	00008158 	andeq	r8, r0, r8, asr r1
  34:	000000c4 	andeq	r0, r0, r4, asr #1
  38:	8e040e42 	cdphi	14, 0, cr0, cr4, cr2, {2}
  3c:	300e4201 	andcc	r4, lr, r1, lsl #4
  40:	0000000c 	andeq	r0, r0, ip
  44:	ffffffff 			; <UNDEFINED> instruction: 0xffffffff
  48:	7c020001 	stcvc	0, cr0, [r2], {1}
  4c:	000d0c0e 	andeq	r0, sp, lr, lsl #24
  50:	00000010 	andeq	r0, r0, r0, lsl r0
  54:	00000040 	andeq	r0, r0, r0, asr #32
  58:	0000821c 	andeq	r8, r0, ip, lsl r2
  5c:	0000001c 	andeq	r0, r0, ip, lsl r0
  60:	00080e42 	andeq	r0, r8, r2, asr #28
  64:	00000010 	andeq	r0, r0, r0, lsl r0
  68:	00000040 	andeq	r0, r0, r0, asr #32
  6c:	00008238 	andeq	r8, r0, r8, lsr r2
  70:	0000007c 	andeq	r0, r0, ip, ror r0
  74:	00100e42 	andseq	r0, r0, r2, asr #28
  78:	00000014 	andeq	r0, r0, r4, lsl r0
  7c:	00000040 	andeq	r0, r0, r0, asr #32
  80:	000082b4 			; <UNDEFINED> instruction: 0x000082b4
  84:	000000c4 	andeq	r0, r0, r4, asr #1
  88:	8e040e42 	cdphi	14, 0, cr0, cr4, cr2, {2}
  8c:	200e4201 	andcs	r4, lr, r1, lsl #4
  90:	00000010 	andeq	r0, r0, r0, lsl r0
  94:	00000040 	andeq	r0, r0, r0, asr #32
  98:	00008378 	andeq	r8, r0, r8, ror r3
  9c:	00000070 	andeq	r0, r0, r0, ror r0
  a0:	00100e42 	andseq	r0, r0, r2, asr #28
  a4:	00000010 	andeq	r0, r0, r0, lsl r0
  a8:	00000040 	andeq	r0, r0, r0, asr #32
  ac:	000083e8 	andeq	r8, r0, r8, ror #7
  b0:	0000005c 	andeq	r0, r0, ip, asr r0
  b4:	00080e42 	andeq	r0, r8, r2, asr #28
  b8:	00000010 	andeq	r0, r0, r0, lsl r0
  bc:	00000040 	andeq	r0, r0, r0, asr #32
  c0:	00008444 	andeq	r8, r0, r4, asr #8
  c4:	0000005c 	andeq	r0, r0, ip, asr r0
  c8:	00080e42 	andeq	r0, r8, r2, asr #28
  cc:	00000014 	andeq	r0, r0, r4, lsl r0
  d0:	00000040 	andeq	r0, r0, r0, asr #32
  d4:	000084a0 	andeq	r8, r0, r0, lsr #9
  d8:	000000ec 	andeq	r0, r0, ip, ror #1
  dc:	8e040e42 	cdphi	14, 0, cr0, cr4, cr2, {2}
  e0:	200e4201 	andcs	r4, lr, r1, lsl #4
  e4:	00000010 	andeq	r0, r0, r0, lsl r0
  e8:	00000040 	andeq	r0, r0, r0, asr #32
  ec:	0000858c 	andeq	r8, r0, ip, lsl #11
  f0:	00000054 	andeq	r0, r0, r4, asr r0
  f4:	00100e42 	andseq	r0, r0, r2, asr #28
  f8:	00000014 	andeq	r0, r0, r4, lsl r0
  fc:	00000040 	andeq	r0, r0, r0, asr #32
 100:	000085e0 	andeq	r8, r0, r0, ror #11
 104:	000000f4 	strdeq	r0, [r0], -r4
 108:	8e040e42 	cdphi	14, 0, cr0, cr4, cr2, {2}
 10c:	200e4201 	andcs	r4, lr, r1, lsl #4
 110:	0000000c 	andeq	r0, r0, ip
 114:	00000040 	andeq	r0, r0, r0, asr #32
 118:	000086d4 	ldrdeq	r8, [r0], -r4
 11c:	00000018 	andeq	r0, r0, r8, lsl r0
 120:	00000010 	andeq	r0, r0, r0, lsl r0
 124:	00000040 	andeq	r0, r0, r0, asr #32
 128:	000086ec 	andeq	r8, r0, ip, ror #13
 12c:	000000f8 	strdeq	r0, [r0], -r8
 130:	00300e42 	eorseq	r0, r0, r2, asr #28
 134:	0000000c 	andeq	r0, r0, ip
 138:	ffffffff 			; <UNDEFINED> instruction: 0xffffffff
 13c:	7c020001 	stcvc	0, cr0, [r2], {1}
 140:	000d0c0e 	andeq	r0, sp, lr, lsl #24
 144:	00000014 	andeq	r0, r0, r4, lsl r0
 148:	00000134 	andeq	r0, r0, r4, lsr r1
 14c:	000087e4 	andeq	r8, r0, r4, ror #15
 150:	0000004c 	andeq	r0, r0, ip, asr #32
 154:	8e040e42 	cdphi	14, 0, cr0, cr4, cr2, {2}
 158:	100e4201 	andne	r4, lr, r1, lsl #4
 15c:	00000014 	andeq	r0, r0, r4, lsl r0
 160:	00000134 	andeq	r0, r0, r4, lsr r1
 164:	00008830 	andeq	r8, r0, r0, lsr r8
 168:	00000018 	andeq	r0, r0, r8, lsl r0
 16c:	83080e42 	movwhi	r0, #36418	; 0x8e42
 170:	00018e02 	andeq	r8, r1, r2, lsl #28
 174:	00000014 	andeq	r0, r0, r4, lsl r0
 178:	00000134 	andeq	r0, r0, r4, lsr r1
 17c:	00008848 	andeq	r8, r0, r8, asr #16
 180:	00000018 	andeq	r0, r0, r8, lsl r0
 184:	83080e42 	movwhi	r0, #36418	; 0x8e42
 188:	00018e02 	andeq	r8, r1, r2, lsl #28
 18c:	00000014 	andeq	r0, r0, r4, lsl r0
 190:	00000134 	andeq	r0, r0, r4, lsr r1
 194:	00008860 	andeq	r8, r0, r0, ror #16
 198:	000000b4 	strheq	r0, [r0], -r4
 19c:	8e040e42 	cdphi	14, 0, cr0, cr4, cr2, {2}
 1a0:	100e4201 	andne	r4, lr, r1, lsl #4
 1a4:	0000000c 	andeq	r0, r0, ip
 1a8:	ffffffff 			; <UNDEFINED> instruction: 0xffffffff
 1ac:	7c020001 	stcvc	0, cr0, [r2], {1}
 1b0:	000d0c0e 	andeq	r0, sp, lr, lsl #24
 1b4:	00000014 	andeq	r0, r0, r4, lsl r0
 1b8:	000001a4 	andeq	r0, r0, r4, lsr #3
 1bc:	00008914 	andeq	r8, r0, r4, lsl r9
 1c0:	00000038 	andeq	r0, r0, r8, lsr r0
 1c4:	83080e42 	movwhi	r0, #36418	; 0x8e42
 1c8:	00018e02 	andeq	r8, r1, r2, lsl #28
 1cc:	00000014 	andeq	r0, r0, r4, lsl r0
 1d0:	000001a4 	andeq	r0, r0, r4, lsr #3
 1d4:	0000894c 	andeq	r8, r0, ip, asr #18
 1d8:	00000108 	andeq	r0, r0, r8, lsl #2
 1dc:	8e040e42 	cdphi	14, 0, cr0, cr4, cr2, {2}
 1e0:	180e4201 	stmdane	lr, {r0, r9, lr}
 1e4:	0000000c 	andeq	r0, r0, ip
 1e8:	000001a4 	andeq	r0, r0, r4, lsr #3
 1ec:	00008a54 	andeq	r8, r0, r4, asr sl
 1f0:	000001f8 	strdeq	r0, [r0], -r8
 1f4:	00000010 	andeq	r0, r0, r0, lsl r0
 1f8:	000001a4 	andeq	r0, r0, r4, lsr #3
 1fc:	00008c4c 	andeq	r8, r0, ip, asr #24
 200:	0000004c 	andeq	r0, r0, ip, asr #32
 204:	00080e42 	andeq	r0, r8, r2, asr #28
 208:	0000000c 	andeq	r0, r0, ip
 20c:	ffffffff 			; <UNDEFINED> instruction: 0xffffffff
 210:	7c020001 	stcvc	0, cr0, [r2], {1}
 214:	000d0c0e 	andeq	r0, sp, lr, lsl #24
 218:	00000014 	andeq	r0, r0, r4, lsl r0
 21c:	00000208 	andeq	r0, r0, r8, lsl #4
 220:	00008c98 	muleq	r0, r8, ip
 224:	0000005c 	andeq	r0, r0, ip, asr r0
 228:	8e040e42 	cdphi	14, 0, cr0, cr4, cr2, {2}
 22c:	100e4201 	andne	r4, lr, r1, lsl #4
 230:	00000014 	andeq	r0, r0, r4, lsl r0
 234:	00000208 	andeq	r0, r0, r8, lsl #4
 238:	00008cf4 	strdeq	r8, [r0], -r4
 23c:	000000a8 	andeq	r0, r0, r8, lsr #1
 240:	8e040e42 	cdphi	14, 0, cr0, cr4, cr2, {2}
 244:	180e4201 	stmdane	lr, {r0, r9, lr}
 248:	00000014 	andeq	r0, r0, r4, lsl r0
 24c:	00000208 	andeq	r0, r0, r8, lsl #4
 250:	00008d9c 	muleq	r0, ip, sp
 254:	00000128 	andeq	r0, r0, r8, lsr #2
 258:	8e040e42 	cdphi	14, 0, cr0, cr4, cr2, {2}
 25c:	180e4201 	stmdane	lr, {r0, r9, lr}
 260:	00000014 	andeq	r0, r0, r4, lsl r0
 264:	00000208 	andeq	r0, r0, r8, lsl #4
 268:	00008ec4 	andeq	r8, r0, r4, asr #29
 26c:	0000004c 	andeq	r0, r0, ip, asr #32
 270:	8e040e42 	cdphi	14, 0, cr0, cr4, cr2, {2}
 274:	100e4201 	andne	r4, lr, r1, lsl #4
 278:	00000014 	andeq	r0, r0, r4, lsl r0
 27c:	00000208 	andeq	r0, r0, r8, lsl #4
 280:	00008f10 	andeq	r8, r0, r0, lsl pc
 284:	00000060 	andeq	r0, r0, r0, rrx
 288:	8e040e42 	cdphi	14, 0, cr0, cr4, cr2, {2}
 28c:	100e4201 	andne	r4, lr, r1, lsl #4
 290:	00000014 	andeq	r0, r0, r4, lsl r0
 294:	00000208 	andeq	r0, r0, r8, lsl #4
 298:	00008f70 	andeq	r8, r0, r0, ror pc
 29c:	00000068 	andeq	r0, r0, r8, rrx
 2a0:	8e040e42 	cdphi	14, 0, cr0, cr4, cr2, {2}
 2a4:	100e4201 	andne	r4, lr, r1, lsl #4
