
kernel.elf:     file format elf32-littlearm


Disassembly of section .text:

00008000 <reset_handler-0x20>:
    8000:	e59ff018 	ldr	pc, [pc, #24]	; 8020 <reset_handler>
    8004:	e59ff018 	ldr	pc, [pc, #24]	; 8024 <undefined_handler>
    8008:	e59ff018 	ldr	pc, [pc, #24]	; 8028 <swi_handler>
    800c:	e59ff018 	ldr	pc, [pc, #24]	; 802c <prefetch_handler>
    8010:	e59ff018 	ldr	pc, [pc, #24]	; 8030 <data_handler>
    8014:	e59ff018 	ldr	pc, [pc, #24]	; 8034 <unused_handler>
    8018:	e59ff018 	ldr	pc, [pc, #24]	; 8038 <irq_handler>
    801c:	e59ff018 	ldr	pc, [pc, #24]	; 803c <fiq_handler>

00008020 <reset_handler>:
    8020:	00008040 	andeq	r8, r0, r0, asr #32

00008024 <undefined_handler>:
    8024:	00008084 	andeq	r8, r0, r4, lsl #1

00008028 <swi_handler>:
    8028:	00008088 	andeq	r8, r0, r8, lsl #1

0000802c <prefetch_handler>:
    802c:	0000808c 	andeq	r8, r0, ip, lsl #1

00008030 <data_handler>:
    8030:	00008090 	muleq	r0, r0, r0

00008034 <unused_handler>:
    8034:	00008094 	muleq	r0, r4, r0

00008038 <irq_handler>:
    8038:	000080cc 	andeq	r8, r0, ip, asr #1

0000803c <fiq_handler>:
    803c:	00008098 	muleq	r0, r8, r0

00008040 <reset>:
    8040:	e3a00902 	mov	r0, #32768	; 0x8000
    8044:	e3a01000 	mov	r1, #0
    8048:	e8b003fc 	ldm	r0!, {r2, r3, r4, r5, r6, r7, r8, r9}
    804c:	e8a103fc 	stmia	r1!, {r2, r3, r4, r5, r6, r7, r8, r9}
    8050:	e8b003fc 	ldm	r0!, {r2, r3, r4, r5, r6, r7, r8, r9}
    8054:	e8a103fc 	stmia	r1!, {r2, r3, r4, r5, r6, r7, r8, r9}
    8058:	e3a000d2 	mov	r0, #210	; 0xd2
    805c:	e121f000 	msr	CPSR_c, r0
    8060:	e3a0d902 	mov	sp, #32768	; 0x8000
    8064:	e3a000d1 	mov	r0, #209	; 0xd1
    8068:	e121f000 	msr	CPSR_c, r0
    806c:	e3a0d901 	mov	sp, #16384	; 0x4000
    8070:	e3a000d3 	mov	r0, #211	; 0xd3
    8074:	e121f000 	msr	CPSR_c, r0
    8078:	e3a0d302 	mov	sp, #134217728	; 0x8000000
    807c:	eb000066 	bl	821c <notmain>

00008080 <hang>:
    8080:	eafffffe 	b	8080 <hang>

00008084 <undefined>:
    8084:	eafffffe 	b	8084 <undefined>

00008088 <swi>:
    8088:	eafffffe 	b	8088 <swi>

0000808c <prefetch>:
    808c:	eafffffe 	b	808c <prefetch>

00008090 <data>:
    8090:	eafffffe 	b	8090 <data>

00008094 <unused>:
    8094:	eafffffe 	b	8094 <unused>

00008098 <fiq>:
    8098:	eafffffe 	b	8098 <fiq>

0000809c <PUT32>:
    809c:	e5801000 	str	r1, [r0]
    80a0:	e12fff1e 	bx	lr

000080a4 <PUT16>:
    80a4:	e1c010b0 	strh	r1, [r0]
    80a8:	e12fff1e 	bx	lr

000080ac <PUT8>:
    80ac:	e5c01000 	strb	r1, [r0]
    80b0:	e12fff1e 	bx	lr

000080b4 <GET32>:
    80b4:	e5900000 	ldr	r0, [r0]
    80b8:	e12fff1e 	bx	lr

000080bc <GETPC>:
    80bc:	e1a0000e 	mov	r0, lr
    80c0:	e12fff1e 	bx	lr

000080c4 <BRANCHTO>:
    80c4:	e12fff10 	bx	r0

000080c8 <dummy>:
    80c8:	e12fff1e 	bx	lr

000080cc <irq>:
    80cc:	ea0001bc 	b	87c4 <ctx_switch>

000080d0 <funcA>:
    80d0:	e24dd010 	sub	sp, sp, #16
    80d4:	e58d0004 	str	r0, [sp, #4]
    80d8:	e3a03000 	mov	r3, #0
    80dc:	e58d300c 	str	r3, [sp, #12]
    80e0:	ea000002 	b	80f0 <funcA+0x20>
    80e4:	e59d300c 	ldr	r3, [sp, #12]
    80e8:	e2833001 	add	r3, r3, #1
    80ec:	e58d300c 	str	r3, [sp, #12]
    80f0:	e59d300c 	ldr	r3, [sp, #12]
    80f4:	e3530009 	cmp	r3, #9
    80f8:	dafffff9 	ble	80e4 <funcA+0x14>
    80fc:	e28dd010 	add	sp, sp, #16
    8100:	e12fff1e 	bx	lr

00008104 <funcB>:
    8104:	e24dd010 	sub	sp, sp, #16
    8108:	e58d0004 	str	r0, [sp, #4]
    810c:	e3a03001 	mov	r3, #1
    8110:	e58d300c 	str	r3, [sp, #12]
    8114:	e59d300c 	ldr	r3, [sp, #12]
    8118:	e2833002 	add	r3, r3, #2
    811c:	e58d300c 	str	r3, [sp, #12]
    8120:	eafffffb 	b	8114 <funcB+0x10>

00008124 <funcOne>:
    8124:	e52de004 	push	{lr}		; (str lr, [sp, #-4]!)
    8128:	e24dd014 	sub	sp, sp, #20
    812c:	e58d0004 	str	r0, [sp, #4]
    8130:	e59f3058 	ldr	r3, [pc, #88]	; 8190 <funcOne+0x6c>
    8134:	e5933000 	ldr	r3, [r3]
    8138:	e1a00003 	mov	r0, r3
    813c:	eb00026d 	bl	8af8 <sem_down>
    8140:	e3a03000 	mov	r3, #0
    8144:	e58d300c 	str	r3, [sp, #12]
    8148:	ea000007 	b	816c <funcOne+0x48>
    814c:	e59f3040 	ldr	r3, [pc, #64]	; 8194 <funcOne+0x70>
    8150:	e5933000 	ldr	r3, [r3]
    8154:	e2832001 	add	r2, r3, #1
    8158:	e59f3034 	ldr	r3, [pc, #52]	; 8194 <funcOne+0x70>
    815c:	e5832000 	str	r2, [r3]
    8160:	e59d300c 	ldr	r3, [sp, #12]
    8164:	e2833001 	add	r3, r3, #1
    8168:	e58d300c 	str	r3, [sp, #12]
    816c:	e59d200c 	ldr	r2, [sp, #12]
    8170:	e59f3020 	ldr	r3, [pc, #32]	; 8198 <funcOne+0x74>
    8174:	e1520003 	cmp	r2, r3
    8178:	dafffff3 	ble	814c <funcOne+0x28>
    817c:	e59f300c 	ldr	r3, [pc, #12]	; 8190 <funcOne+0x6c>
    8180:	e5933000 	ldr	r3, [r3]
    8184:	e1a00003 	mov	r0, r3
    8188:	eb000230 	bl	8a50 <sem_up>
    818c:	eaffffe7 	b	8130 <funcOne+0xc>
    8190:	00009004 	andeq	r9, r0, r4
    8194:	00009000 	andeq	r9, r0, r0
    8198:	000f423f 	andeq	r4, pc, pc, lsr r2	; <UNPREDICTABLE>

0000819c <funcTwo>:
    819c:	e52de004 	push	{lr}		; (str lr, [sp, #-4]!)
    81a0:	e24dd014 	sub	sp, sp, #20
    81a4:	e58d0004 	str	r0, [sp, #4]
    81a8:	e3a03000 	mov	r3, #0
    81ac:	e58d300c 	str	r3, [sp, #12]
    81b0:	e59f3058 	ldr	r3, [pc, #88]	; 8210 <funcTwo+0x74>
    81b4:	e5933000 	ldr	r3, [r3]
    81b8:	e1a00003 	mov	r0, r3
    81bc:	eb00024d 	bl	8af8 <sem_down>
    81c0:	e3a03000 	mov	r3, #0
    81c4:	e58d300c 	str	r3, [sp, #12]
    81c8:	ea000007 	b	81ec <funcTwo+0x50>
    81cc:	e59f3040 	ldr	r3, [pc, #64]	; 8214 <funcTwo+0x78>
    81d0:	e5933000 	ldr	r3, [r3]
    81d4:	e2832001 	add	r2, r3, #1
    81d8:	e59f3034 	ldr	r3, [pc, #52]	; 8214 <funcTwo+0x78>
    81dc:	e5832000 	str	r2, [r3]
    81e0:	e59d300c 	ldr	r3, [sp, #12]
    81e4:	e2833001 	add	r3, r3, #1
    81e8:	e58d300c 	str	r3, [sp, #12]
    81ec:	e59d200c 	ldr	r2, [sp, #12]
    81f0:	e59f3020 	ldr	r3, [pc, #32]	; 8218 <funcTwo+0x7c>
    81f4:	e1520003 	cmp	r2, r3
    81f8:	dafffff3 	ble	81cc <funcTwo+0x30>
    81fc:	e59f300c 	ldr	r3, [pc, #12]	; 8210 <funcTwo+0x74>
    8200:	e5933000 	ldr	r3, [r3]
    8204:	e1a00003 	mov	r0, r3
    8208:	eb000210 	bl	8a50 <sem_up>
    820c:	eaffffe5 	b	81a8 <funcTwo+0xc>
    8210:	00009004 	andeq	r9, r0, r4
    8214:	00009000 	andeq	r9, r0, r0
    8218:	000f423f 	andeq	r4, pc, pc, lsr r2	; <UNPREDICTABLE>

0000821c <notmain>:
    821c:	e92d4008 	push	{r3, lr}
    8220:	e59f002c 	ldr	r0, [pc, #44]	; 8254 <notmain+0x38>
    8224:	e3a01000 	mov	r1, #0
    8228:	eb000127 	bl	86cc <create_process>
    822c:	e59f0024 	ldr	r0, [pc, #36]	; 8258 <notmain+0x3c>
    8230:	e3a01000 	mov	r1, #0
    8234:	eb000124 	bl	86cc <create_process>
    8238:	e59f001c 	ldr	r0, [pc, #28]	; 825c <notmain+0x40>
    823c:	e3a01001 	mov	r1, #1
    8240:	eb0001eb 	bl	89f4 <sem_init>
    8244:	eb000112 	bl	8694 <start_sched>
    8248:	e3a03000 	mov	r3, #0
    824c:	e1a00003 	mov	r0, r3
    8250:	e8bd8008 	pop	{r3, pc}
    8254:	00008124 	andeq	r8, r0, r4, lsr #2
    8258:	0000819c 	muleq	r0, ip, r1
    825c:	00009004 	andeq	r9, r0, r4

00008260 <enable_timer_irq>:
    8260:	e92d4008 	push	{r3, lr}
    8264:	e59f0008 	ldr	r0, [pc, #8]	; 8274 <enable_timer_irq+0x14>
    8268:	e3a01002 	mov	r1, #2
    826c:	ebffff8a 	bl	809c <PUT32>
    8270:	e8bd8008 	pop	{r3, pc}
    8274:	20003000 	andcs	r3, r0, r0

00008278 <disable_timer_irq>:
    8278:	e92d4008 	push	{r3, lr}
    827c:	e59f0008 	ldr	r0, [pc, #8]	; 828c <disable_timer_irq+0x14>
    8280:	e3e01002 	mvn	r1, #2
    8284:	ebffff84 	bl	809c <PUT32>
    8288:	e8bd8008 	pop	{r3, pc}
    828c:	20003000 	andcs	r3, r0, r0

00008290 <set_next_tick_and_enable_timer_irq>:
    8290:	e52de004 	push	{lr}		; (str lr, [sp, #-4]!)
    8294:	e24dd00c 	sub	sp, sp, #12
    8298:	e59f0028 	ldr	r0, [pc, #40]	; 82c8 <set_next_tick_and_enable_timer_irq+0x38>
    829c:	ebffff84 	bl	80b4 <GET32>
    82a0:	e58d0004 	str	r0, [sp, #4]
    82a4:	e59d3004 	ldr	r3, [sp, #4]
    82a8:	e2833702 	add	r3, r3, #524288	; 0x80000
    82ac:	e58d3004 	str	r3, [sp, #4]
    82b0:	e59f0014 	ldr	r0, [pc, #20]	; 82cc <set_next_tick_and_enable_timer_irq+0x3c>
    82b4:	e59d1004 	ldr	r1, [sp, #4]
    82b8:	ebffff77 	bl	809c <PUT32>
    82bc:	ebffffe7 	bl	8260 <enable_timer_irq>
    82c0:	e28dd00c 	add	sp, sp, #12
    82c4:	e8bd8000 	pop	{pc}
    82c8:	20003004 	andcs	r3, r0, r4
    82cc:	20003010 	andcs	r3, r0, r0, lsl r0

000082d0 <led_off>:
    82d0:	e92d4008 	push	{r3, lr}
    82d4:	e59f0008 	ldr	r0, [pc, #8]	; 82e4 <led_off+0x14>
    82d8:	e3a01801 	mov	r1, #65536	; 0x10000
    82dc:	ebffff6e 	bl	809c <PUT32>
    82e0:	e8bd8008 	pop	{r3, pc}
    82e4:	2020001c 	eorcs	r0, r0, ip, lsl r0

000082e8 <led_on>:
    82e8:	e92d4008 	push	{r3, lr}
    82ec:	e59f0008 	ldr	r0, [pc, #8]	; 82fc <led_on+0x14>
    82f0:	e3a01801 	mov	r1, #65536	; 0x10000
    82f4:	ebffff68 	bl	809c <PUT32>
    82f8:	e8bd8008 	pop	{r3, pc}
    82fc:	20200028 	eorcs	r0, r0, r8, lsr #32

00008300 <init_hw>:
    8300:	e52de004 	push	{lr}		; (str lr, [sp, #-4]!)
    8304:	e24dd00c 	sub	sp, sp, #12
    8308:	e59f0070 	ldr	r0, [pc, #112]	; 8380 <init_hw+0x80>
    830c:	ebffff68 	bl	80b4 <GET32>
    8310:	e58d0004 	str	r0, [sp, #4]
    8314:	e59d3004 	ldr	r3, [sp, #4]
    8318:	e3c33707 	bic	r3, r3, #1835008	; 0x1c0000
    831c:	e58d3004 	str	r3, [sp, #4]
    8320:	e59d3004 	ldr	r3, [sp, #4]
    8324:	e3833701 	orr	r3, r3, #262144	; 0x40000
    8328:	e58d3004 	str	r3, [sp, #4]
    832c:	e59f004c 	ldr	r0, [pc, #76]	; 8380 <init_hw+0x80>
    8330:	e59d1004 	ldr	r1, [sp, #4]
    8334:	ebffff58 	bl	809c <PUT32>
    8338:	e59f0044 	ldr	r0, [pc, #68]	; 8384 <init_hw+0x84>
    833c:	e3a01801 	mov	r1, #65536	; 0x10000
    8340:	ebffff55 	bl	809c <PUT32>
    8344:	e59f003c 	ldr	r0, [pc, #60]	; 8388 <init_hw+0x88>
    8348:	ebffff59 	bl	80b4 <GET32>
    834c:	e58d0000 	str	r0, [sp]
    8350:	e59d3000 	ldr	r3, [sp]
    8354:	e2833702 	add	r3, r3, #524288	; 0x80000
    8358:	e58d3000 	str	r3, [sp]
    835c:	e59f0028 	ldr	r0, [pc, #40]	; 838c <init_hw+0x8c>
    8360:	e59d1000 	ldr	r1, [sp]
    8364:	ebffff4c 	bl	809c <PUT32>
    8368:	ebffffbc 	bl	8260 <enable_timer_irq>
    836c:	e59f001c 	ldr	r0, [pc, #28]	; 8390 <init_hw+0x90>
    8370:	e3a01002 	mov	r1, #2
    8374:	ebffff48 	bl	809c <PUT32>
    8378:	e28dd00c 	add	sp, sp, #12
    837c:	e8bd8000 	pop	{pc}
    8380:	20200004 	eorcs	r0, r0, r4
    8384:	2020001c 	eorcs	r0, r0, ip, lsl r0
    8388:	20003004 	andcs	r3, r0, r4
    838c:	20003010 	andcs	r3, r0, r0, lsl r0
    8390:	2000b210 	andcs	fp, r0, r0, lsl r2

00008394 <AllocateMemory>:
    8394:	e52de004 	push	{lr}		; (str lr, [sp, #-4]!)
    8398:	e24dd01c 	sub	sp, sp, #28
    839c:	e58d0004 	str	r0, [sp, #4]
    83a0:	e59f312c 	ldr	r3, [pc, #300]	; 84d4 <AllocateMemory+0x140>
    83a4:	e58d3014 	str	r3, [sp, #20]
    83a8:	e59d3004 	ldr	r3, [sp, #4]
    83ac:	e3530000 	cmp	r3, #0
    83b0:	1a000001 	bne	83bc <AllocateMemory+0x28>
    83b4:	e3a03102 	mov	r3, #-2147483648	; 0x80000000
    83b8:	ea000042 	b	84c8 <AllocateMemory+0x134>
    83bc:	e59f3114 	ldr	r3, [pc, #276]	; 84d8 <AllocateMemory+0x144>
    83c0:	e5933000 	ldr	r3, [r3]
    83c4:	e3530000 	cmp	r3, #0
    83c8:	1a000004 	bne	83e0 <AllocateMemory+0x4c>
    83cc:	e59d0014 	ldr	r0, [sp, #20]
    83d0:	eb0000a0 	bl	8658 <createInitialHeader>
    83d4:	e59f30fc 	ldr	r3, [pc, #252]	; 84d8 <AllocateMemory+0x144>
    83d8:	e3a02001 	mov	r2, #1
    83dc:	e5832000 	str	r2, [r3]
    83e0:	e3a03000 	mov	r3, #0
    83e4:	e58d3010 	str	r3, [sp, #16]
    83e8:	ea000025 	b	8484 <AllocateMemory+0xf0>
    83ec:	e59d3014 	ldr	r3, [sp, #20]
    83f0:	e2833004 	add	r3, r3, #4
    83f4:	e5933000 	ldr	r3, [r3]
    83f8:	e3530000 	cmp	r3, #0
    83fc:	1a00001d 	bne	8478 <AllocateMemory+0xe4>
    8400:	e59d3014 	ldr	r3, [sp, #20]
    8404:	e5932000 	ldr	r2, [r3]
    8408:	e59d3014 	ldr	r3, [sp, #20]
    840c:	e0633002 	rsb	r3, r3, r2
    8410:	e2433002 	sub	r3, r3, #2
    8414:	e58d300c 	str	r3, [sp, #12]
    8418:	e59d2004 	ldr	r2, [sp, #4]
    841c:	e59d300c 	ldr	r3, [sp, #12]
    8420:	e1520003 	cmp	r2, r3
    8424:	8a000013 	bhi	8478 <AllocateMemory+0xe4>
    8428:	e3a03001 	mov	r3, #1
    842c:	e58d3010 	str	r3, [sp, #16]
    8430:	e59d2004 	ldr	r2, [sp, #4]
    8434:	e59d300c 	ldr	r3, [sp, #12]
    8438:	e0633002 	rsb	r3, r3, r2
    843c:	e3530003 	cmp	r3, #3
    8440:	9a000017 	bls	84a4 <AllocateMemory+0x110>
    8444:	e59d3014 	ldr	r3, [sp, #20]
    8448:	e5933000 	ldr	r3, [r3]
    844c:	e2433004 	sub	r3, r3, #4
    8450:	e59d2004 	ldr	r2, [sp, #4]
    8454:	e2822002 	add	r2, r2, #2
    8458:	e1a02102 	lsl	r2, r2, #2
    845c:	e59d1014 	ldr	r1, [sp, #20]
    8460:	e0812002 	add	r2, r1, r2
    8464:	e5832000 	str	r2, [r3]
    8468:	e59d0014 	ldr	r0, [sp, #20]
    846c:	e59d1004 	ldr	r1, [sp, #4]
    8470:	eb00004f 	bl	85b4 <createHeader>
    8474:	ea00000a 	b	84a4 <AllocateMemory+0x110>
    8478:	e59d3014 	ldr	r3, [sp, #20]
    847c:	e5933000 	ldr	r3, [r3]
    8480:	e58d3014 	str	r3, [sp, #20]
    8484:	e59d3014 	ldr	r3, [sp, #20]
    8488:	e5933000 	ldr	r3, [r3]
    848c:	e3530000 	cmp	r3, #0
    8490:	0a000004 	beq	84a8 <AllocateMemory+0x114>
    8494:	e59d3010 	ldr	r3, [sp, #16]
    8498:	e3530000 	cmp	r3, #0
    849c:	0affffd2 	beq	83ec <AllocateMemory+0x58>
    84a0:	ea000000 	b	84a8 <AllocateMemory+0x114>
    84a4:	e1a00000 	nop			; (mov r0, r0)
    84a8:	e59d3010 	ldr	r3, [sp, #16]
    84ac:	e3530000 	cmp	r3, #0
    84b0:	1a000002 	bne	84c0 <AllocateMemory+0x12c>
    84b4:	e59d0014 	ldr	r0, [sp, #20]
    84b8:	e59d1004 	ldr	r1, [sp, #4]
    84bc:	eb00003c 	bl	85b4 <createHeader>
    84c0:	e59d3014 	ldr	r3, [sp, #20]
    84c4:	e2833008 	add	r3, r3, #8
    84c8:	e1a00003 	mov	r0, r3
    84cc:	e28dd01c 	add	sp, sp, #28
    84d0:	e8bd8000 	pop	{pc}
    84d4:	00009010 	andeq	r9, r0, r0, lsl r0
    84d8:	0000900c 	andeq	r9, r0, ip

000084dc <FreeAllocatedMemory>:
    84dc:	e52de004 	push	{lr}		; (str lr, [sp, #-4]!)
    84e0:	e24dd00c 	sub	sp, sp, #12
    84e4:	e58d0004 	str	r0, [sp, #4]
    84e8:	e59d3004 	ldr	r3, [sp, #4]
    84ec:	e2433004 	sub	r3, r3, #4
    84f0:	e5932000 	ldr	r2, [r3]
    84f4:	e59f3034 	ldr	r3, [pc, #52]	; 8530 <FreeAllocatedMemory+0x54>
    84f8:	e1520003 	cmp	r2, r3
    84fc:	1a000007 	bne	8520 <FreeAllocatedMemory+0x44>
    8500:	e59d0004 	ldr	r0, [sp, #4]
    8504:	eb00000a 	bl	8534 <concatenateFreeBlocks>
    8508:	e59d3004 	ldr	r3, [sp, #4]
    850c:	e2433004 	sub	r3, r3, #4
    8510:	e3a02000 	mov	r2, #0
    8514:	e5832000 	str	r2, [r3]
    8518:	e3a03001 	mov	r3, #1
    851c:	ea000000 	b	8524 <FreeAllocatedMemory+0x48>
    8520:	e3a03000 	mov	r3, #0
    8524:	e1a00003 	mov	r0, r3
    8528:	e28dd00c 	add	sp, sp, #12
    852c:	e8bd8000 	pop	{pc}
    8530:	44414d66 	strbmi	r4, [r1], #-3430	; 0xd66

00008534 <concatenateFreeBlocks>:
    8534:	e24dd008 	sub	sp, sp, #8
    8538:	e58d0004 	str	r0, [sp, #4]
    853c:	ea000015 	b	8598 <concatenateFreeBlocks+0x64>
    8540:	e59d3004 	ldr	r3, [sp, #4]
    8544:	e5933000 	ldr	r3, [r3]
    8548:	e5933000 	ldr	r3, [r3]
    854c:	e3530000 	cmp	r3, #0
    8550:	1a000003 	bne	8564 <concatenateFreeBlocks+0x30>
    8554:	e59d3004 	ldr	r3, [sp, #4]
    8558:	e3a02000 	mov	r2, #0
    855c:	e5832000 	str	r2, [r3]
    8560:	ea000011 	b	85ac <concatenateFreeBlocks+0x78>
    8564:	e59d3004 	ldr	r3, [sp, #4]
    8568:	e5933000 	ldr	r3, [r3]
    856c:	e5932000 	ldr	r2, [r3]
    8570:	e59d3004 	ldr	r3, [sp, #4]
    8574:	e5832000 	str	r2, [r3]
    8578:	e59d3004 	ldr	r3, [sp, #4]
    857c:	e5933000 	ldr	r3, [r3]
    8580:	e5933000 	ldr	r3, [r3]
    8584:	e59d2004 	ldr	r2, [sp, #4]
    8588:	e5922000 	ldr	r2, [r2]
    858c:	e2422004 	sub	r2, r2, #4
    8590:	e5922000 	ldr	r2, [r2]
    8594:	e5832000 	str	r2, [r3]
    8598:	e59d3004 	ldr	r3, [sp, #4]
    859c:	e5933000 	ldr	r3, [r3]
    85a0:	e5933000 	ldr	r3, [r3]
    85a4:	e3730001 	cmn	r3, #1
    85a8:	0affffe4 	beq	8540 <concatenateFreeBlocks+0xc>
    85ac:	e28dd008 	add	sp, sp, #8
    85b0:	e12fff1e 	bx	lr

000085b4 <createHeader>:
    85b4:	e24dd008 	sub	sp, sp, #8
    85b8:	e58d0004 	str	r0, [sp, #4]
    85bc:	e58d1000 	str	r1, [sp]
    85c0:	e59d3000 	ldr	r3, [sp]
    85c4:	e2833002 	add	r3, r3, #2
    85c8:	e1a03103 	lsl	r3, r3, #2
    85cc:	e59d2004 	ldr	r2, [sp, #4]
    85d0:	e0823003 	add	r3, r2, r3
    85d4:	e59d2004 	ldr	r2, [sp, #4]
    85d8:	e2422004 	sub	r2, r2, #4
    85dc:	e5832000 	str	r2, [r3]
    85e0:	e59d3000 	ldr	r3, [sp]
    85e4:	e2833003 	add	r3, r3, #3
    85e8:	e1a03103 	lsl	r3, r3, #2
    85ec:	e59d2004 	ldr	r2, [sp, #4]
    85f0:	e0823003 	add	r3, r2, r3
    85f4:	e59d2004 	ldr	r2, [sp, #4]
    85f8:	e5922000 	ldr	r2, [r2]
    85fc:	e5832000 	str	r2, [r3]
    8600:	e59d3000 	ldr	r3, [sp]
    8604:	e2833004 	add	r3, r3, #4
    8608:	e1a03103 	lsl	r3, r3, #2
    860c:	e59d2004 	ldr	r2, [sp, #4]
    8610:	e0823003 	add	r3, r2, r3
    8614:	e3a02000 	mov	r2, #0
    8618:	e5832000 	str	r2, [r3]
    861c:	e59d3000 	ldr	r3, [sp]
    8620:	e2833003 	add	r3, r3, #3
    8624:	e1a03103 	lsl	r3, r3, #2
    8628:	e59d2004 	ldr	r2, [sp, #4]
    862c:	e0823003 	add	r3, r2, r3
    8630:	e1a02003 	mov	r2, r3
    8634:	e59d3004 	ldr	r3, [sp, #4]
    8638:	e5832000 	str	r2, [r3]
    863c:	e59d3004 	ldr	r3, [sp, #4]
    8640:	e2833004 	add	r3, r3, #4
    8644:	e59f2008 	ldr	r2, [pc, #8]	; 8654 <createHeader+0xa0>
    8648:	e5832000 	str	r2, [r3]
    864c:	e28dd008 	add	sp, sp, #8
    8650:	e12fff1e 	bx	lr
    8654:	44414d66 	strbmi	r4, [r1], #-3430	; 0xd66

00008658 <createInitialHeader>:
    8658:	e24dd008 	sub	sp, sp, #8
    865c:	e58d0004 	str	r0, [sp, #4]
    8660:	e59d3004 	ldr	r3, [sp, #4]
    8664:	e2433004 	sub	r3, r3, #4
    8668:	e3a02000 	mov	r2, #0
    866c:	e5832000 	str	r2, [r3]
    8670:	e59d3004 	ldr	r3, [sp, #4]
    8674:	e3a02000 	mov	r2, #0
    8678:	e5832000 	str	r2, [r3]
    867c:	e59d3004 	ldr	r3, [sp, #4]
    8680:	e2833004 	add	r3, r3, #4
    8684:	e3a02000 	mov	r2, #0
    8688:	e5832000 	str	r2, [r3]
    868c:	e28dd008 	add	sp, sp, #8
    8690:	e12fff1e 	bx	lr

00008694 <start_sched>:
    8694:	e92d4008 	push	{r3, lr}
    8698:	e92d0001 	push	{r0}
    869c:	e10f0000 	mrs	r0, CPSR
    86a0:	e3800080 	orr	r0, r0, #128	; 0x80
    86a4:	e121f000 	msr	CPSR_c, r0
    86a8:	e8bd0001 	pop	{r0}
    86ac:	ebffff13 	bl	8300 <init_hw>
    86b0:	ebfffef6 	bl	8290 <set_next_tick_and_enable_timer_irq>
    86b4:	e92d0001 	push	{r0}
    86b8:	e10f0000 	mrs	r0, CPSR
    86bc:	e3c00080 	bic	r0, r0, #128	; 0x80
    86c0:	e121f000 	msr	CPSR_c, r0
    86c4:	e8bd0001 	pop	{r0}
    86c8:	e8bd8008 	pop	{r3, pc}

000086cc <create_process>:
    86cc:	e52de004 	push	{lr}		; (str lr, [sp, #-4]!)
    86d0:	e24dd014 	sub	sp, sp, #20
    86d4:	e58d0004 	str	r0, [sp, #4]
    86d8:	e58d1000 	str	r1, [sp]
    86dc:	e3a0001c 	mov	r0, #28
    86e0:	ebffff2b 	bl	8394 <AllocateMemory>
    86e4:	e58d000c 	str	r0, [sp, #12]
    86e8:	e59d300c 	ldr	r3, [sp, #12]
    86ec:	e3a02000 	mov	r2, #0
    86f0:	e5c32000 	strb	r2, [r3]
    86f4:	e59d300c 	ldr	r3, [sp, #12]
    86f8:	e59d2000 	ldr	r2, [sp]
    86fc:	e5832018 	str	r2, [r3, #24]
    8700:	e59d300c 	ldr	r3, [sp, #12]
    8704:	e59d2004 	ldr	r2, [sp, #4]
    8708:	e5832010 	str	r2, [r3, #16]
    870c:	e59f00a8 	ldr	r0, [pc, #168]	; 87bc <create_process+0xf0>
    8710:	ebffff1f 	bl	8394 <AllocateMemory>
    8714:	e1a03000 	mov	r3, r0
    8718:	e2833aff 	add	r3, r3, #1044480	; 0xff000
    871c:	e2833efe 	add	r3, r3, #4064	; 0xfe0
    8720:	e59d200c 	ldr	r2, [sp, #12]
    8724:	e5823014 	str	r3, [r2, #20]
    8728:	e59d300c 	ldr	r3, [sp, #12]
    872c:	e3a02000 	mov	r2, #0
    8730:	e583200c 	str	r2, [r3, #12]
    8734:	e59f3084 	ldr	r3, [pc, #132]	; 87c0 <create_process+0xf4>
    8738:	e5933000 	ldr	r3, [r3]
    873c:	e3530000 	cmp	r3, #0
    8740:	1a000009 	bne	876c <create_process+0xa0>
    8744:	e59d300c 	ldr	r3, [sp, #12]
    8748:	e59d200c 	ldr	r2, [sp, #12]
    874c:	e5832004 	str	r2, [r3, #4]
    8750:	e59d300c 	ldr	r3, [sp, #12]
    8754:	e59d200c 	ldr	r2, [sp, #12]
    8758:	e5832008 	str	r2, [r3, #8]
    875c:	e59f305c 	ldr	r3, [pc, #92]	; 87c0 <create_process+0xf4>
    8760:	e59d200c 	ldr	r2, [sp, #12]
    8764:	e5832000 	str	r2, [r3]
    8768:	ea000011 	b	87b4 <create_process+0xe8>
    876c:	e59f304c 	ldr	r3, [pc, #76]	; 87c0 <create_process+0xf4>
    8770:	e5933000 	ldr	r3, [r3]
    8774:	e5932008 	ldr	r2, [r3, #8]
    8778:	e59d300c 	ldr	r3, [sp, #12]
    877c:	e5832008 	str	r2, [r3, #8]
    8780:	e59f3038 	ldr	r3, [pc, #56]	; 87c0 <create_process+0xf4>
    8784:	e5932000 	ldr	r2, [r3]
    8788:	e59d300c 	ldr	r3, [sp, #12]
    878c:	e5832004 	str	r2, [r3, #4]
    8790:	e59f3028 	ldr	r3, [pc, #40]	; 87c0 <create_process+0xf4>
    8794:	e5933000 	ldr	r3, [r3]
    8798:	e5933008 	ldr	r3, [r3, #8]
    879c:	e59d200c 	ldr	r2, [sp, #12]
    87a0:	e5832004 	str	r2, [r3, #4]
    87a4:	e59f3014 	ldr	r3, [pc, #20]	; 87c0 <create_process+0xf4>
    87a8:	e5933000 	ldr	r3, [r3]
    87ac:	e59d200c 	ldr	r2, [sp, #12]
    87b0:	e5832008 	str	r2, [r3, #8]
    87b4:	e28dd014 	add	sp, sp, #20
    87b8:	e8bd8000 	pop	{pc}
    87bc:	0000ffff 	strdeq	pc, [r0], -pc	; <UNPREDICTABLE>
    87c0:	00009008 	andeq	r9, r0, r8

000087c4 <ctx_switch>:
    87c4:	e24ee004 	sub	lr, lr, #4
    87c8:	f96d0513 	srsdb	sp!, #19
    87cc:	f1020013 	cps	#19
    87d0:	e92d5fff 	push	{r0, r1, r2, r3, r4, r5, r6, r7, r8, r9, sl, fp, ip, lr}
    87d4:	e59f31c8 	ldr	r3, [pc, #456]	; 89a4 <ctx_switch+0x1e0>
    87d8:	e5933000 	ldr	r3, [r3]
    87dc:	e1a0200d 	mov	r2, sp
    87e0:	e5832014 	str	r2, [r3, #20]
    87e4:	ea00001d 	b	8860 <ctx_switch+0x9c>
    87e8:	e59f31b4 	ldr	r3, [pc, #436]	; 89a4 <ctx_switch+0x1e0>
    87ec:	e5933000 	ldr	r3, [r3]
    87f0:	e5933004 	ldr	r3, [r3, #4]
    87f4:	e5d33000 	ldrb	r3, [r3]
    87f8:	e3530002 	cmp	r3, #2
    87fc:	1a00000e 	bne	883c <ctx_switch+0x78>
    8800:	e59f319c 	ldr	r3, [pc, #412]	; 89a4 <ctx_switch+0x1e0>
    8804:	e5933000 	ldr	r3, [r3]
    8808:	e5934004 	ldr	r4, [r3, #4]
    880c:	e59f3190 	ldr	r3, [pc, #400]	; 89a4 <ctx_switch+0x1e0>
    8810:	e5933000 	ldr	r3, [r3]
    8814:	e5942004 	ldr	r2, [r4, #4]
    8818:	e5832004 	str	r2, [r3, #4]
    881c:	e59f3180 	ldr	r3, [pc, #384]	; 89a4 <ctx_switch+0x1e0>
    8820:	e5933000 	ldr	r3, [r3]
    8824:	e5933004 	ldr	r3, [r3, #4]
    8828:	e59f2174 	ldr	r2, [pc, #372]	; 89a4 <ctx_switch+0x1e0>
    882c:	e5922000 	ldr	r2, [r2]
    8830:	e5832008 	str	r2, [r3, #8]
    8834:	e1a00004 	mov	r0, r4
    8838:	ebffff27 	bl	84dc <FreeAllocatedMemory>
    883c:	e59f3160 	ldr	r3, [pc, #352]	; 89a4 <ctx_switch+0x1e0>
    8840:	e5933000 	ldr	r3, [r3]
    8844:	e5932004 	ldr	r2, [r3, #4]
    8848:	e59f3154 	ldr	r3, [pc, #340]	; 89a4 <ctx_switch+0x1e0>
    884c:	e5832000 	str	r2, [r3]
    8850:	e59f314c 	ldr	r3, [pc, #332]	; 89a4 <ctx_switch+0x1e0>
    8854:	e5933000 	ldr	r3, [r3]
    8858:	e5933014 	ldr	r3, [r3, #20]
    885c:	e1a0d003 	mov	sp, r3
    8860:	e59f313c 	ldr	r3, [pc, #316]	; 89a4 <ctx_switch+0x1e0>
    8864:	e5933000 	ldr	r3, [r3]
    8868:	e5933004 	ldr	r3, [r3, #4]
    886c:	e5d33000 	ldrb	r3, [r3]
    8870:	e3530002 	cmp	r3, #2
    8874:	0affffdb 	beq	87e8 <ctx_switch+0x24>
    8878:	e59f3124 	ldr	r3, [pc, #292]	; 89a4 <ctx_switch+0x1e0>
    887c:	e5933000 	ldr	r3, [r3]
    8880:	e5933004 	ldr	r3, [r3, #4]
    8884:	e5d33000 	ldrb	r3, [r3]
    8888:	e3530003 	cmp	r3, #3
    888c:	0affffd5 	beq	87e8 <ctx_switch+0x24>
    8890:	e59f310c 	ldr	r3, [pc, #268]	; 89a4 <ctx_switch+0x1e0>
    8894:	e5933000 	ldr	r3, [r3]
    8898:	e5932004 	ldr	r2, [r3, #4]
    889c:	e59f3100 	ldr	r3, [pc, #256]	; 89a4 <ctx_switch+0x1e0>
    88a0:	e5832000 	str	r2, [r3]
    88a4:	e59f30f8 	ldr	r3, [pc, #248]	; 89a4 <ctx_switch+0x1e0>
    88a8:	e5933000 	ldr	r3, [r3]
    88ac:	e5933014 	ldr	r3, [r3, #20]
    88b0:	e1a0d003 	mov	sp, r3
    88b4:	e59f30e8 	ldr	r3, [pc, #232]	; 89a4 <ctx_switch+0x1e0>
    88b8:	e5934000 	ldr	r4, [r3]
    88bc:	e5d43000 	ldrb	r3, [r4]
    88c0:	e3530004 	cmp	r3, #4
    88c4:	1a000007 	bne	88e8 <ctx_switch+0x124>
    88c8:	e594300c 	ldr	r3, [r4, #12]
    88cc:	e2433001 	sub	r3, r3, #1
    88d0:	e584300c 	str	r3, [r4, #12]
    88d4:	e594300c 	ldr	r3, [r4, #12]
    88d8:	e3530000 	cmp	r3, #0
    88dc:	ca000001 	bgt	88e8 <ctx_switch+0x124>
    88e0:	e3a03001 	mov	r3, #1
    88e4:	e5c43000 	strb	r3, [r4]
    88e8:	e5944004 	ldr	r4, [r4, #4]
    88ec:	e59f30b0 	ldr	r3, [pc, #176]	; 89a4 <ctx_switch+0x1e0>
    88f0:	e5933000 	ldr	r3, [r3]
    88f4:	e1540003 	cmp	r4, r3
    88f8:	1affffef 	bne	88bc <ctx_switch+0xf8>
    88fc:	e59f30a0 	ldr	r3, [pc, #160]	; 89a4 <ctx_switch+0x1e0>
    8900:	e5933000 	ldr	r3, [r3]
    8904:	e5d33000 	ldrb	r3, [r3]
    8908:	e3530000 	cmp	r3, #0
    890c:	1a00001c 	bne	8984 <ctx_switch+0x1c0>
    8910:	e59f308c 	ldr	r3, [pc, #140]	; 89a4 <ctx_switch+0x1e0>
    8914:	e5933000 	ldr	r3, [r3]
    8918:	e3a02001 	mov	r2, #1
    891c:	e5c32000 	strb	r2, [r3]
    8920:	ebfffe5a 	bl	8290 <set_next_tick_and_enable_timer_irq>
    8924:	e92d0001 	push	{r0}
    8928:	e10f0000 	mrs	r0, CPSR
    892c:	e3c00080 	bic	r0, r0, #128	; 0x80
    8930:	e121f000 	msr	CPSR_c, r0
    8934:	e8bd0001 	pop	{r0}
    8938:	e59f3064 	ldr	r3, [pc, #100]	; 89a4 <ctx_switch+0x1e0>
    893c:	e5933000 	ldr	r3, [r3]
    8940:	e5933010 	ldr	r3, [r3, #16]
    8944:	e59f2058 	ldr	r2, [pc, #88]	; 89a4 <ctx_switch+0x1e0>
    8948:	e5922000 	ldr	r2, [r2]
    894c:	e5922018 	ldr	r2, [r2, #24]
    8950:	e1a00002 	mov	r0, r2
    8954:	e12fff33 	blx	r3
    8958:	e92d0001 	push	{r0}
    895c:	e10f0000 	mrs	r0, CPSR
    8960:	e3800080 	orr	r0, r0, #128	; 0x80
    8964:	e121f000 	msr	CPSR_c, r0
    8968:	e8bd0001 	pop	{r0}
    896c:	e59f3030 	ldr	r3, [pc, #48]	; 89a4 <ctx_switch+0x1e0>
    8970:	e5933000 	ldr	r3, [r3]
    8974:	e3a02002 	mov	r2, #2
    8978:	e5c32000 	strb	r2, [r3]
    897c:	ebffff90 	bl	87c4 <ctx_switch>
    8980:	ea000001 	b	898c <ctx_switch+0x1c8>
    8984:	ebfffe41 	bl	8290 <set_next_tick_and_enable_timer_irq>
    8988:	e8bd5fff 	pop	{r0, r1, r2, r3, r4, r5, r6, r7, r8, r9, sl, fp, ip, lr}
    898c:	f8bd0a00 	rfeia	sp!
    8990:	e92d0001 	push	{r0}
    8994:	e10f0000 	mrs	r0, CPSR
    8998:	e3c00080 	bic	r0, r0, #128	; 0x80
    899c:	e121f000 	msr	CPSR_c, r0
    89a0:	e8bd0001 	pop	{r0}
    89a4:	00009008 	andeq	r9, r0, r8

000089a8 <sleep_proc>:
    89a8:	e24dd008 	sub	sp, sp, #8
    89ac:	e58d0004 	str	r0, [sp, #4]
    89b0:	e59f3038 	ldr	r3, [pc, #56]	; 89f0 <sleep_proc+0x48>
    89b4:	e5933000 	ldr	r3, [r3]
    89b8:	e3a02004 	mov	r2, #4
    89bc:	e5c32000 	strb	r2, [r3]
    89c0:	e59f3028 	ldr	r3, [pc, #40]	; 89f0 <sleep_proc+0x48>
    89c4:	e5933000 	ldr	r3, [r3]
    89c8:	e59d2004 	ldr	r2, [sp, #4]
    89cc:	e583200c 	str	r2, [r3, #12]
    89d0:	e1a00000 	nop			; (mov r0, r0)
    89d4:	e59f3014 	ldr	r3, [pc, #20]	; 89f0 <sleep_proc+0x48>
    89d8:	e5933000 	ldr	r3, [r3]
    89dc:	e5d33000 	ldrb	r3, [r3]
    89e0:	e3530004 	cmp	r3, #4
    89e4:	0afffffa 	beq	89d4 <sleep_proc+0x2c>
    89e8:	e28dd008 	add	sp, sp, #8
    89ec:	e12fff1e 	bx	lr
    89f0:	00009008 	andeq	r9, r0, r8

000089f4 <sem_init>:
    89f4:	e52de004 	push	{lr}		; (str lr, [sp, #-4]!)
    89f8:	e24dd00c 	sub	sp, sp, #12
    89fc:	e58d0004 	str	r0, [sp, #4]
    8a00:	e58d1000 	str	r1, [sp]
    8a04:	e3a00010 	mov	r0, #16
    8a08:	ebfffe61 	bl	8394 <AllocateMemory>
    8a0c:	e1a02000 	mov	r2, r0
    8a10:	e59d3004 	ldr	r3, [sp, #4]
    8a14:	e5832000 	str	r2, [r3]
    8a18:	e59d3004 	ldr	r3, [sp, #4]
    8a1c:	e5933000 	ldr	r3, [r3]
    8a20:	e59d2000 	ldr	r2, [sp]
    8a24:	e5832000 	str	r2, [r3]
    8a28:	e59d3004 	ldr	r3, [sp, #4]
    8a2c:	e5933000 	ldr	r3, [r3]
    8a30:	e3a02000 	mov	r2, #0
    8a34:	e5832004 	str	r2, [r3, #4]
    8a38:	e59d3004 	ldr	r3, [sp, #4]
    8a3c:	e5933000 	ldr	r3, [r3]
    8a40:	e3a02000 	mov	r2, #0
    8a44:	e5832008 	str	r2, [r3, #8]
    8a48:	e28dd00c 	add	sp, sp, #12
    8a4c:	e8bd8000 	pop	{pc}

00008a50 <sem_up>:
    8a50:	e52de004 	push	{lr}		; (str lr, [sp, #-4]!)
    8a54:	e24dd014 	sub	sp, sp, #20
    8a58:	e58d0004 	str	r0, [sp, #4]
    8a5c:	e92d0001 	push	{r0}
    8a60:	e10f0000 	mrs	r0, CPSR
    8a64:	e3800080 	orr	r0, r0, #128	; 0x80
    8a68:	e121f000 	msr	CPSR_c, r0
    8a6c:	e8bd0001 	pop	{r0}
    8a70:	e59d3004 	ldr	r3, [sp, #4]
    8a74:	e5933004 	ldr	r3, [r3, #4]
    8a78:	e3530000 	cmp	r3, #0
    8a7c:	da000011 	ble	8ac8 <sem_up+0x78>
    8a80:	e59d3004 	ldr	r3, [sp, #4]
    8a84:	e5933008 	ldr	r3, [r3, #8]
    8a88:	e58d300c 	str	r3, [sp, #12]
    8a8c:	e59d300c 	ldr	r3, [sp, #12]
    8a90:	e5932004 	ldr	r2, [r3, #4]
    8a94:	e59d3004 	ldr	r3, [sp, #4]
    8a98:	e5832008 	str	r2, [r3, #8]
    8a9c:	e59d3004 	ldr	r3, [sp, #4]
    8aa0:	e5933004 	ldr	r3, [r3, #4]
    8aa4:	e2432001 	sub	r2, r3, #1
    8aa8:	e59d3004 	ldr	r3, [sp, #4]
    8aac:	e5832004 	str	r2, [r3, #4]
    8ab0:	e59d300c 	ldr	r3, [sp, #12]
    8ab4:	e5933000 	ldr	r3, [r3]
    8ab8:	e3a02001 	mov	r2, #1
    8abc:	e5c32000 	strb	r2, [r3]
    8ac0:	e59d000c 	ldr	r0, [sp, #12]
    8ac4:	ebfffe84 	bl	84dc <FreeAllocatedMemory>
    8ac8:	e59d3004 	ldr	r3, [sp, #4]
    8acc:	e5933000 	ldr	r3, [r3]
    8ad0:	e2832001 	add	r2, r3, #1
    8ad4:	e59d3004 	ldr	r3, [sp, #4]
    8ad8:	e5832000 	str	r2, [r3]
    8adc:	e92d0001 	push	{r0}
    8ae0:	e10f0000 	mrs	r0, CPSR
    8ae4:	e3c00080 	bic	r0, r0, #128	; 0x80
    8ae8:	e121f000 	msr	CPSR_c, r0
    8aec:	e8bd0001 	pop	{r0}
    8af0:	e28dd014 	add	sp, sp, #20
    8af4:	e8bd8000 	pop	{pc}

00008af8 <sem_down>:
    8af8:	e52de004 	push	{lr}		; (str lr, [sp, #-4]!)
    8afc:	e24dd014 	sub	sp, sp, #20
    8b00:	e58d0004 	str	r0, [sp, #4]
    8b04:	e92d0001 	push	{r0}
    8b08:	e10f0000 	mrs	r0, CPSR
    8b0c:	e3800080 	orr	r0, r0, #128	; 0x80
    8b10:	e121f000 	msr	CPSR_c, r0
    8b14:	e8bd0001 	pop	{r0}
    8b18:	e59d3004 	ldr	r3, [sp, #4]
    8b1c:	e5933000 	ldr	r3, [r3]
    8b20:	e2432001 	sub	r2, r3, #1
    8b24:	e59d3004 	ldr	r3, [sp, #4]
    8b28:	e5832000 	str	r2, [r3]
    8b2c:	e59d3004 	ldr	r3, [sp, #4]
    8b30:	e5933000 	ldr	r3, [r3]
    8b34:	e3530000 	cmp	r3, #0
    8b38:	aa000030 	bge	8c00 <sem_down+0x108>
    8b3c:	e3a00008 	mov	r0, #8
    8b40:	ebfffe13 	bl	8394 <AllocateMemory>
    8b44:	e58d000c 	str	r0, [sp, #12]
    8b48:	e59f30cc 	ldr	r3, [pc, #204]	; 8c1c <sem_down+0x124>
    8b4c:	e5932000 	ldr	r2, [r3]
    8b50:	e59d300c 	ldr	r3, [sp, #12]
    8b54:	e5832000 	str	r2, [r3]
    8b58:	e59d300c 	ldr	r3, [sp, #12]
    8b5c:	e3a02000 	mov	r2, #0
    8b60:	e5832004 	str	r2, [r3, #4]
    8b64:	e59d3004 	ldr	r3, [sp, #4]
    8b68:	e5933004 	ldr	r3, [r3, #4]
    8b6c:	e3530000 	cmp	r3, #0
    8b70:	1a000006 	bne	8b90 <sem_down+0x98>
    8b74:	e59d3004 	ldr	r3, [sp, #4]
    8b78:	e59d200c 	ldr	r2, [sp, #12]
    8b7c:	e583200c 	str	r2, [r3, #12]
    8b80:	e59d3004 	ldr	r3, [sp, #4]
    8b84:	e59d200c 	ldr	r2, [sp, #12]
    8b88:	e5832008 	str	r2, [r3, #8]
    8b8c:	ea000006 	b	8bac <sem_down+0xb4>
    8b90:	e59d3004 	ldr	r3, [sp, #4]
    8b94:	e593300c 	ldr	r3, [r3, #12]
    8b98:	e59d200c 	ldr	r2, [sp, #12]
    8b9c:	e5832004 	str	r2, [r3, #4]
    8ba0:	e59d3004 	ldr	r3, [sp, #4]
    8ba4:	e59d200c 	ldr	r2, [sp, #12]
    8ba8:	e583200c 	str	r2, [r3, #12]
    8bac:	e59d3004 	ldr	r3, [sp, #4]
    8bb0:	e5933004 	ldr	r3, [r3, #4]
    8bb4:	e2832001 	add	r2, r3, #1
    8bb8:	e59d3004 	ldr	r3, [sp, #4]
    8bbc:	e5832004 	str	r2, [r3, #4]
    8bc0:	e59f3054 	ldr	r3, [pc, #84]	; 8c1c <sem_down+0x124>
    8bc4:	e5933000 	ldr	r3, [r3]
    8bc8:	e3a02003 	mov	r2, #3
    8bcc:	e5c32000 	strb	r2, [r3]
    8bd0:	e92d0001 	push	{r0}
    8bd4:	e10f0000 	mrs	r0, CPSR
    8bd8:	e3c00080 	bic	r0, r0, #128	; 0x80
    8bdc:	e121f000 	msr	CPSR_c, r0
    8be0:	e8bd0001 	pop	{r0}
    8be4:	e1a00000 	nop			; (mov r0, r0)
    8be8:	e59f302c 	ldr	r3, [pc, #44]	; 8c1c <sem_down+0x124>
    8bec:	e5933000 	ldr	r3, [r3]
    8bf0:	e5d33000 	ldrb	r3, [r3]
    8bf4:	e3530003 	cmp	r3, #3
    8bf8:	0afffffa 	beq	8be8 <sem_down+0xf0>
    8bfc:	ea000004 	b	8c14 <sem_down+0x11c>
    8c00:	e92d0001 	push	{r0}
    8c04:	e10f0000 	mrs	r0, CPSR
    8c08:	e3c00080 	bic	r0, r0, #128	; 0x80
    8c0c:	e121f000 	msr	CPSR_c, r0
    8c10:	e8bd0001 	pop	{r0}
    8c14:	e28dd014 	add	sp, sp, #20
    8c18:	e8bd8000 	pop	{pc}
    8c1c:	00009008 	andeq	r9, r0, r8

00008c20 <mtx_init>:
    8c20:	e52de004 	push	{lr}		; (str lr, [sp, #-4]!)
    8c24:	e24dd00c 	sub	sp, sp, #12
    8c28:	e58d0004 	str	r0, [sp, #4]
    8c2c:	e3a00008 	mov	r0, #8
    8c30:	ebfffdd7 	bl	8394 <AllocateMemory>
    8c34:	e1a02000 	mov	r2, r0
    8c38:	e59d3004 	ldr	r3, [sp, #4]
    8c3c:	e5832000 	str	r2, [r3]
    8c40:	e59d3004 	ldr	r3, [sp, #4]
    8c44:	e5933000 	ldr	r3, [r3]
    8c48:	e3a02000 	mov	r2, #0
    8c4c:	e5832004 	str	r2, [r3, #4]
    8c50:	e59d3004 	ldr	r3, [sp, #4]
    8c54:	e5933000 	ldr	r3, [r3]
    8c58:	e1a00003 	mov	r0, r3
    8c5c:	e3a01001 	mov	r1, #1
    8c60:	ebffff63 	bl	89f4 <sem_init>
    8c64:	e28dd00c 	add	sp, sp, #12
    8c68:	e8bd8000 	pop	{pc}

00008c6c <mtx_lock>:
    8c6c:	e52de004 	push	{lr}		; (str lr, [sp, #-4]!)
    8c70:	e24dd00c 	sub	sp, sp, #12
    8c74:	e58d0004 	str	r0, [sp, #4]
    8c78:	e92d0001 	push	{r0}
    8c7c:	e10f0000 	mrs	r0, CPSR
    8c80:	e3800080 	orr	r0, r0, #128	; 0x80
    8c84:	e121f000 	msr	CPSR_c, r0
    8c88:	e8bd0001 	pop	{r0}
    8c8c:	e59f3034 	ldr	r3, [pc, #52]	; 8cc8 <mtx_lock+0x5c>
    8c90:	e5932000 	ldr	r2, [r3]
    8c94:	e59d3004 	ldr	r3, [sp, #4]
    8c98:	e5832004 	str	r2, [r3, #4]
    8c9c:	e59d3004 	ldr	r3, [sp, #4]
    8ca0:	e5933000 	ldr	r3, [r3]
    8ca4:	e1a00003 	mov	r0, r3
    8ca8:	ebffff92 	bl	8af8 <sem_down>
    8cac:	e92d0001 	push	{r0}
    8cb0:	e10f0000 	mrs	r0, CPSR
    8cb4:	e3c00080 	bic	r0, r0, #128	; 0x80
    8cb8:	e121f000 	msr	CPSR_c, r0
    8cbc:	e8bd0001 	pop	{r0}
    8cc0:	e28dd00c 	add	sp, sp, #12
    8cc4:	e8bd8000 	pop	{pc}
    8cc8:	00009008 	andeq	r9, r0, r8

00008ccc <mtx_unlock>:
    8ccc:	e52de004 	push	{lr}		; (str lr, [sp, #-4]!)
    8cd0:	e24dd00c 	sub	sp, sp, #12
    8cd4:	e58d0004 	str	r0, [sp, #4]
    8cd8:	e92d0001 	push	{r0}
    8cdc:	e10f0000 	mrs	r0, CPSR
    8ce0:	e3800080 	orr	r0, r0, #128	; 0x80
    8ce4:	e121f000 	msr	CPSR_c, r0
    8ce8:	e8bd0001 	pop	{r0}
    8cec:	e59d3004 	ldr	r3, [sp, #4]
    8cf0:	e5932004 	ldr	r2, [r3, #4]
    8cf4:	e59f3034 	ldr	r3, [pc, #52]	; 8d30 <mtx_unlock+0x64>
    8cf8:	e5933000 	ldr	r3, [r3]
    8cfc:	e1520003 	cmp	r2, r3
    8d00:	1a000003 	bne	8d14 <mtx_unlock+0x48>
    8d04:	e59d3004 	ldr	r3, [sp, #4]
    8d08:	e5933000 	ldr	r3, [r3]
    8d0c:	e1a00003 	mov	r0, r3
    8d10:	ebffff4e 	bl	8a50 <sem_up>
    8d14:	e92d0001 	push	{r0}
    8d18:	e10f0000 	mrs	r0, CPSR
    8d1c:	e3c00080 	bic	r0, r0, #128	; 0x80
    8d20:	e121f000 	msr	CPSR_c, r0
    8d24:	e8bd0001 	pop	{r0}
    8d28:	e28dd00c 	add	sp, sp, #12
    8d2c:	e8bd8000 	pop	{pc}
    8d30:	00009008 	andeq	r9, r0, r8

Disassembly of section .bss:

00009000 <bss>:
    9000:	00000000 	andeq	r0, r0, r0

00009004 <sem_test>:
    9004:	00000000 	andeq	r0, r0, r0

00009008 <current_process>:
    9008:	00000000 	andeq	r0, r0, r0

0000900c <isInitialised>:
    900c:	00000000 	andeq	r0, r0, r0

00009010 <heap>:
	...

Disassembly of section .ARM.attributes:

00000000 <.ARM.attributes>:
   0:	00003141 	andeq	r3, r0, r1, asr #2
   4:	61656100 	cmnvs	r5, r0, lsl #2
   8:	01006962 	tsteq	r0, r2, ror #18
   c:	00000027 	andeq	r0, r0, r7, lsr #32
  10:	005a3605 	subseq	r3, sl, r5, lsl #12
  14:	01080706 	tsteq	r8, r6, lsl #14
  18:	020a0109 	andeq	r0, sl, #1073741826	; 0x40000002
  1c:	01140412 	tsteq	r4, r2, lsl r4
  20:	03170115 	tsteq	r7, #1073741829	; 0x40000005
  24:	011a0118 	tsteq	sl, r8, lsl r1
  28:	011c031b 	tsteq	ip, fp, lsl r3
  2c:	012c0122 	teqeq	ip, r2, lsr #2
  30:	Address 0x0000000000000030 is out of bounds.


Disassembly of section .comment:

00000000 <.comment>:
   0:	3a434347 	bcc	10d0d24 <_bss_end+0x10c6d24>
   4:	4e472820 	cdpmi	8, 4, cr2, cr7, cr0, {1}
   8:	34202955 	strtcc	r2, [r0], #-2389	; 0x955
   c:	312e372e 	teqcc	lr, lr, lsr #14
	...

Disassembly of section .debug_line:

00000000 <.debug_line>:
   0:	00000061 	andeq	r0, r0, r1, rrx
   4:	00200002 	eoreq	r0, r0, r2
   8:	01020000 	mrseq	r0, (UNDEF: 2)
   c:	000d0efb 	strdeq	r0, [sp], -fp
  10:	01010101 	tsteq	r1, r1, lsl #2
  14:	01000000 	mrseq	r0, (UNDEF: 0)
  18:	00010000 	andeq	r0, r1, r0
  1c:	74636576 	strbtvc	r6, [r3], #-1398	; 0x576
  20:	2e73726f 	cdpcs	2, 7, cr7, cr3, cr15, {3}
  24:	00000073 	andeq	r0, r0, r3, ror r0
  28:	05000000 	streq	r0, [r0, #-0]
  2c:	00800002 	addeq	r0, r0, r2
  30:	2f2f1900 	svccs	0x002f1900
  34:	2f2f2f2f 	svccs	0x002f2f2f
  38:	080b032f 	stmdaeq	fp, {r0, r1, r2, r3, r5, r8, r9}
  3c:	2f2f2f20 	svccs	0x002f2f20
  40:	2f312f2f 	svccs	0x00312f2f
  44:	2f2f312f 	svccs	0x002f312f
  48:	342f2f31 	strtcc	r2, [pc], #-3889	; 50 <_start-0x7fb0>
  4c:	2f2f2f2f 	svccs	0x002f2f2f
  50:	322f2f2f 	eorcc	r2, pc, #188	; 0xbc
  54:	322f322f 	eorcc	r3, pc, #-268435454	; 0xf0000002
  58:	322f322f 	eorcc	r3, pc, #-268435454	; 0xf0000002
  5c:	3032322f 	eorscc	r3, r2, pc, lsr #4
  60:	01000202 	tsteq	r0, r2, lsl #4
  64:	0000e201 	andeq	lr, r0, r1, lsl #4
  68:	86000200 	strhi	r0, [r0], -r0, lsl #4
  6c:	02000000 	andeq	r0, r0, #0
  70:	0d0efb01 	vstreq	d15, [lr, #-4]
  74:	01010100 	mrseq	r0, (UNDEF: 17)
  78:	00000001 	andeq	r0, r0, r1
  7c:	01000001 	tsteq	r0, r1
  80:	74706f2f 	ldrbtvc	r6, [r0], #-3887	; 0xf2f
  84:	6669342f 	strbtvs	r3, [r9], -pc, lsr #8
  88:	2f534c2d 	svccs	0x00534c2d
  8c:	2d6d7261 	sfmcs	f7, 2, [sp, #-388]!	; 0xfffffe7c
  90:	656e6f6e 	strbvs	r6, [lr, #-3950]!	; 0xf6e
  94:	6261652d 	rsbvs	r6, r1, #188743680	; 0xb400000
  98:	63672d69 	cmnvs	r7, #6720	; 0x1a40
  9c:	696c2f63 	stmdbvs	ip!, {r0, r1, r5, r6, r8, r9, sl, fp, sp}^
  a0:	63672f62 	cmnvs	r7, #392	; 0x188
  a4:	72612f63 	rsbvc	r2, r1, #396	; 0x18c
  a8:	6f6e2d6d 	svcvs	0x006e2d6d
  ac:	652d656e 	strvs	r6, [sp, #-1390]!	; 0x56e
  b0:	2f696261 	svccs	0x00696261
  b4:	2e372e34 	mrccs	14, 1, r2, cr7, cr4, {1}
  b8:	6e692f31 	mcrvs	15, 3, r2, cr9, cr1, {1}
  bc:	64756c63 	ldrbtvs	r6, [r5], #-3171	; 0xc63
  c0:	6e000065 	cdpvs	0, 0, cr0, cr0, cr5, {3}
  c4:	616d746f 	cmnvs	sp, pc, ror #8
  c8:	632e6e69 	teqvs	lr, #1680	; 0x690
  cc:	00000000 	andeq	r0, r0, r0
  d0:	69647473 	stmdbvs	r4!, {r0, r1, r4, r5, r6, sl, ip, sp, lr}^
  d4:	672d746e 	strvs	r7, [sp, -lr, ror #8]!
  d8:	682e6363 	stmdavs	lr!, {r0, r1, r5, r6, r8, r9, sp, lr}
  dc:	00000100 	andeq	r0, r0, r0, lsl #2
  e0:	65686373 	strbvs	r6, [r8, #-883]!	; 0x373
  e4:	00682e64 	rsbeq	r2, r8, r4, ror #28
  e8:	73000000 	movwvc	r0, #0
  ec:	682e6d65 	stmdavs	lr!, {r0, r2, r5, r6, r8, sl, fp, sp, lr}
  f0:	00000000 	andeq	r0, r0, r0
  f4:	02050000 	andeq	r0, r5, #0
  f8:	000080d0 	ldrdeq	r8, [r0], -r0
  fc:	2f4b4b15 	svccs	0x004b4b15
 100:	01040200 	mrseq	r0, R12_usr
 104:	4b4c6965 	blmi	131a6a0 <_bss_end+0x13106a0>
 108:	01040200 	mrseq	r0, R12_usr
 10c:	0402004d 	streq	r0, [r2], #-77	; 0x4d
 110:	69366701 	ldmdbvs	r6!, {r0, r8, r9, sl, sp, lr}
 114:	04020083 	streq	r0, [r2], #-131	; 0x83
 118:	02006702 	andeq	r6, r0, #524288	; 0x80000
 11c:	009d0204 	addseq	r0, sp, r4, lsl #4
 120:	06010402 	streq	r0, [r1], -r2, lsl #8
 124:	83850666 	orrhi	r0, r5, #106954752	; 0x6600000
 128:	834b6886 	movthi	r6, #47238	; 0xb886
 12c:	02040200 	andeq	r0, r4, #0
 130:	04020067 	streq	r0, [r2], #-103	; 0x67
 134:	02009d02 	andeq	r9, r0, #128	; 0x80
 138:	66060104 	strvs	r0, [r6], -r4, lsl #2
 13c:	86838506 	strhi	r8, [r3], r6, lsl #10
 140:	6968672f 	stmdbvs	r8!, {r0, r1, r2, r3, r5, r8, r9, sl, sp, lr}^
 144:	0a022f31 	beq	8be10 <_bss_end+0x81e10>
 148:	4f010100 	svcmi	0x00010100
 14c:	02000000 	andeq	r0, r0, #0
 150:	00001b00 	andeq	r1, r0, r0, lsl #22
 154:	fb010200 	blx	4095e <_bss_end+0x3695e>
 158:	01000d0e 	tsteq	r0, lr, lsl #26
 15c:	00010101 	andeq	r0, r1, r1, lsl #2
 160:	00010000 	andeq	r0, r1, r0
 164:	68000100 	stmdavs	r0, {r8}
 168:	00632e77 	rsbeq	r2, r3, r7, ror lr
 16c:	00000000 	andeq	r0, r0, r0
 170:	60020500 	andvs	r0, r2, r0, lsl #10
 174:	03000082 	movweq	r0, #130	; 0x82
 178:	67300117 			; <UNDEFINED> instruction: 0x67300117
 17c:	4f67304e 	svcmi	0x0067304e
 180:	6867674b 	stmdavs	r7!, {r0, r1, r3, r6, r8, r9, sl, sp, lr}^
 184:	8209032f 	andhi	r0, r9, #-1140850688	; 0xbc000000
 188:	2f4e672f 	svccs	0x004e672f
 18c:	674f5167 	strbvs	r5, [pc, -r7, ror #2]
 190:	69676767 	stmdbvs	r7!, {r0, r1, r2, r5, r6, r8, r9, sl, sp, lr}^
 194:	316a6767 	cmncc	sl, r7, ror #14
 198:	000e0267 	andeq	r0, lr, r7, ror #4
 19c:	00ef0101 	rsceq	r0, pc, r1, lsl #2
 1a0:	00020000 	andeq	r0, r2, r0
 1a4:	0000008d 	andeq	r0, r0, sp, lsl #1
 1a8:	0efb0102 	cdpeq	1, 15, cr0, cr11, cr2, {0}
 1ac:	0101000d 	tsteq	r1, sp
 1b0:	00000101 	andeq	r0, r0, r1, lsl #2
 1b4:	00000100 	andeq	r0, r0, r0, lsl #2
 1b8:	706f2f01 	rsbvc	r2, pc, r1, lsl #30
 1bc:	69342f74 	ldmdbvs	r4!, {r2, r4, r5, r6, r8, r9, sl, fp, sp}
 1c0:	534c2d66 	movtpl	r2, #52582	; 0xcd66
 1c4:	6d72612f 	ldfvse	f6, [r2, #-188]!	; 0xffffff44
 1c8:	6e6f6e2d 	cdpvs	14, 6, cr6, cr15, cr13, {1}
 1cc:	61652d65 	cmnvs	r5, r5, ror #26
 1d0:	672d6962 	strvs	r6, [sp, -r2, ror #18]!
 1d4:	6c2f6363 	stcvs	3, cr6, [pc], #-396	; 50 <_start-0x7fb0>
 1d8:	672f6269 	strvs	r6, [pc, -r9, ror #4]!
 1dc:	612f6363 	teqvs	pc, r3, ror #6
 1e0:	6e2d6d72 	mcrvs	13, 1, r6, cr13, cr2, {3}
 1e4:	2d656e6f 	stclcs	14, cr6, [r5, #-444]!	; 0xfffffe44
 1e8:	69626165 	stmdbvs	r2!, {r0, r2, r5, r6, r8, sp, lr}^
 1ec:	372e342f 	strcc	r3, [lr, -pc, lsr #8]!
 1f0:	692f312e 	stmdbvs	pc!, {r1, r2, r3, r5, r8, ip, sp}	; <UNPREDICTABLE>
 1f4:	756c636e 	strbvc	r6, [ip, #-878]!	; 0x36e
 1f8:	00006564 	andeq	r6, r0, r4, ror #10
 1fc:	6f6c6c61 	svcvs	0x006c6c61
 200:	65746163 	ldrbvs	r6, [r4, #-355]!	; 0x163
 204:	6f6d654d 	svcvs	0x006d654d
 208:	632e7972 	teqvs	lr, #1867776	; 0x1c8000
 20c:	00000000 	andeq	r0, r0, r0
 210:	69647473 	stmdbvs	r4!, {r0, r1, r4, r5, r6, sl, ip, sp, lr}^
 214:	672d746e 	strvs	r7, [sp, -lr, ror #8]!
 218:	682e6363 	stmdavs	lr!, {r0, r1, r5, r6, r8, r9, sp, lr}
 21c:	00000100 	andeq	r0, r0, r0, lsl #2
 220:	6f6c6c61 	svcvs	0x006c6c61
 224:	65746163 	ldrbvs	r6, [r4, #-355]!	; 0x163
 228:	6f6d654d 	svcvs	0x006d654d
 22c:	682e7972 	stmdavs	lr!, {r1, r4, r5, r6, r8, fp, ip, sp, lr}
 230:	00000000 	andeq	r0, r0, r0
 234:	02050000 	andeq	r0, r5, #0
 238:	00008394 	muleq	r0, r4, r3
 23c:	67012603 	strvs	r2, [r1, -r3, lsl #12]
 240:	834c674c 	movthi	r6, #51020	; 0xc74c
 244:	2f4b694b 	svccs	0x004b694b
 248:	4b83bb9f 	blmi	fe0ef0cc <_bss_end+0xfe0e50cc>
 24c:	682108a0 	stmdavs	r1!, {r5, r7, fp}
 250:	04020031 	streq	r0, [r2], #-49	; 0x31
 254:	66730301 	ldrbtvs	r0, [r3], -r1, lsl #6
 258:	02040200 	andeq	r0, r4, #0
 25c:	03068206 	movweq	r8, #25094	; 0x6206
 260:	6734820a 	ldrvs	r8, [r4, -sl, lsl #4]!
 264:	67a24b68 	strvs	r4, [r2, r8, ror #22]!
 268:	4c834bbb 	fstmiaxmi	r3, {d4-d96}	;@ Deprecated
 26c:	820a032f 	andhi	r0, sl, #-1140850688	; 0xbc000000
 270:	679f2f4b 	ldrvs	r2, [pc, fp, asr #30]
 274:	02009f30 	andeq	r9, r0, #192	; 0xc0
 278:	7a030104 	bvc	c0690 <_bss_end+0xb6690>
 27c:	9e0903f2 	mcrls	3, 0, r0, cr9, cr2, {7}
 280:	f3f3674f 	vcvt.s<illegal width 8>.f<illegal width 8>	q11, <illegal reg q7.5>
 284:	6b83f3d7 	blvs	fe0fd1e8 <_bss_end+0xfe0f31e8>
 288:	8367834b 	cmnhi	r7, #738197505	; 0x2c000001
 28c:	01000402 	tsteq	r0, r2, lsl #8
 290:	0000e301 	andeq	lr, r0, r1, lsl #6
 294:	7b000200 	blvc	a9c <_start-0x7564>
 298:	02000000 	andeq	r0, r0, #0
 29c:	0d0efb01 	vstreq	d15, [lr, #-4]
 2a0:	01010100 	mrseq	r0, (UNDEF: 17)
 2a4:	00000001 	andeq	r0, r0, r1
 2a8:	01000001 	tsteq	r0, r1
 2ac:	74706f2f 	ldrbtvc	r6, [r0], #-3887	; 0xf2f
 2b0:	6669342f 	strbtvs	r3, [r9], -pc, lsr #8
 2b4:	2f534c2d 	svccs	0x00534c2d
 2b8:	2d6d7261 	sfmcs	f7, 2, [sp, #-388]!	; 0xfffffe7c
 2bc:	656e6f6e 	strbvs	r6, [lr, #-3950]!	; 0xf6e
 2c0:	6261652d 	rsbvs	r6, r1, #188743680	; 0xb400000
 2c4:	63672d69 	cmnvs	r7, #6720	; 0x1a40
 2c8:	696c2f63 	stmdbvs	ip!, {r0, r1, r5, r6, r8, r9, sl, fp, sp}^
 2cc:	63672f62 	cmnvs	r7, #392	; 0x188
 2d0:	72612f63 	rsbvc	r2, r1, #396	; 0x18c
 2d4:	6f6e2d6d 	svcvs	0x006e2d6d
 2d8:	652d656e 	strvs	r6, [sp, #-1390]!	; 0x56e
 2dc:	2f696261 	svccs	0x00696261
 2e0:	2e372e34 	mrccs	14, 1, r2, cr7, cr4, {1}
 2e4:	6e692f31 	mcrvs	15, 3, r2, cr9, cr1, {1}
 2e8:	64756c63 	ldrbtvs	r6, [r5], #-3171	; 0xc63
 2ec:	73000065 	movwvc	r0, #101	; 0x65
 2f0:	64656863 	strbtvs	r6, [r5], #-2147	; 0x863
 2f4:	0000632e 	andeq	r6, r0, lr, lsr #6
 2f8:	74730000 	ldrbtvc	r0, [r3], #-0
 2fc:	746e6964 	strbtvc	r6, [lr], #-2404	; 0x964
 300:	6363672d 	cmnvs	r3, #11796480	; 0xb40000
 304:	0100682e 	tsteq	r0, lr, lsr #16
 308:	63730000 	cmnvs	r3, #0
 30c:	2e646568 	cdpcs	5, 6, cr6, cr4, cr8, {3}
 310:	00000068 	andeq	r0, r0, r8, rrx
 314:	05000000 	streq	r0, [r0, #-0]
 318:	00869402 	addeq	r9, r6, r2, lsl #8
 31c:	9f2f1600 	svcls	0x002f1600
 320:	309f2f2f 	addscc	r2, pc, pc, lsr #30
 324:	67676984 	strbvs	r6, [r7, -r4, lsl #19]!
 328:	8368d767 	cmnhi	r8, #27000832	; 0x19c0000
 32c:	9f866867 	svcls	0x00866867
 330:	84849f85 	strhi	r9, [r4], #3973	; 0xf85
 334:	312f2f13 	teqcc	pc, r3, lsl pc	; <UNPREDICTABLE>
 338:	bb2f842f 	bllt	be13fc <_bss_end+0xbd73fc>
 33c:	4dbc8368 	ldcmi	3, cr8, [ip, #416]!	; 0x1a0
 340:	0402009f 	streq	r0, [r2], #-159	; 0x9f
 344:	82750301 	rsbshi	r0, r5, #67108864	; 0x4000000
 348:	02040200 	andeq	r0, r4, #0
 34c:	0306ba06 	movweq	fp, #27142	; 0x6a06
 350:	869fba0f 	ldrhi	fp, [pc], pc, lsl #20
 354:	6767674c 	strbvs	r6, [r7, -ip, asr #14]!
 358:	9f85304e 	svcls	0x0085304e
 35c:	f39f2f83 			; <UNDEFINED> instruction: 0xf39f2f83
 360:	304d839f 	umaalcc	r8, sp, pc, r3	; <UNPREDICTABLE>
 364:	15bb2f33 	ldrne	r2, [fp, #3891]!	; 0xf33
 368:	0084834c 	addeq	r8, r4, ip, asr #6
 36c:	06010402 	streq	r0, [r1], -r2, lsl #8
 370:	02a0062e 	adceq	r0, r0, #48234496	; 0x2e00000
 374:	01010006 	tsteq	r1, r6
 378:	000000d0 	ldrdeq	r0, [r0], -r0	; <UNPREDICTABLE>
 37c:	00820002 	addeq	r0, r2, r2
 380:	01020000 	mrseq	r0, (UNDEF: 2)
 384:	000d0efb 	strdeq	r0, [sp], -fp
 388:	01010101 	tsteq	r1, r1, lsl #2
 38c:	01000000 	mrseq	r0, (UNDEF: 0)
 390:	2f010000 	svccs	0x00010000
 394:	2f74706f 	svccs	0x0074706f
 398:	2d666934 	stclcs	9, cr6, [r6, #-208]!	; 0xffffff30
 39c:	612f534c 	teqvs	pc, ip, asr #6
 3a0:	6e2d6d72 	mcrvs	13, 1, r6, cr13, cr2, {3}
 3a4:	2d656e6f 	stclcs	14, cr6, [r5, #-444]!	; 0xfffffe44
 3a8:	69626165 	stmdbvs	r2!, {r0, r2, r5, r6, r8, sp, lr}^
 3ac:	6363672d 	cmnvs	r3, #11796480	; 0xb40000
 3b0:	62696c2f 	rsbvs	r6, r9, #12032	; 0x2f00
 3b4:	6363672f 	cmnvs	r3, #12320768	; 0xbc0000
 3b8:	6d72612f 	ldfvse	f6, [r2, #-188]!	; 0xffffff44
 3bc:	6e6f6e2d 	cdpvs	14, 6, cr6, cr15, cr13, {1}
 3c0:	61652d65 	cmnvs	r5, r5, ror #26
 3c4:	342f6962 	strtcc	r6, [pc], #-2402	; 3cc <_start-0x7c34>
 3c8:	312e372e 	teqcc	lr, lr, lsr #14
 3cc:	636e692f 	cmnvs	lr, #770048	; 0xbc000
 3d0:	6564756c 	strbvs	r7, [r4, #-1388]!	; 0x56c
 3d4:	65730000 	ldrbvs	r0, [r3, #-0]!
 3d8:	00632e6d 	rsbeq	r2, r3, sp, ror #28
 3dc:	73000000 	movwvc	r0, #0
 3e0:	6e696474 	mcrvs	4, 3, r6, cr9, cr4, {3}
 3e4:	63672d74 	cmnvs	r7, #7424	; 0x1d00
 3e8:	00682e63 	rsbeq	r2, r8, r3, ror #28
 3ec:	73000001 	movwvc	r0, #1
 3f0:	64656863 	strbtvs	r6, [r5], #-2147	; 0x863
 3f4:	0000682e 	andeq	r6, r0, lr, lsr #16
 3f8:	65730000 	ldrbvs	r0, [r3, #-0]!
 3fc:	00682e6d 	rsbeq	r2, r8, sp, ror #28
 400:	00000000 	andeq	r0, r0, r0
 404:	f4020500 	vst3.8	{d0,d2,d4}, [r2], r0
 408:	17000089 	strne	r0, [r0, -r9, lsl #1]
 40c:	83839f83 	orrhi	r9, r3, #524	; 0x20c
 410:	9f684c83 	svcls	0x00684c83
 414:	a1836884 	orrge	r6, r3, r4, lsl #17
 418:	9f9f4c85 	svcls	0x009f4c85
 41c:	a09f674d 	addsge	r6, pc, sp, asr #14
 420:	69836784 	stmibvs	r3, {r2, r7, r8, r9, sl, sp, lr}
 424:	83866783 	orrhi	r6, r6, #34340864	; 0x20c0000
 428:	9f83a069 	svcls	0x0083a069
 42c:	01040200 	mrseq	r0, R12_usr
 430:	069e2e06 	ldreq	r2, [lr], r6, lsl #28
 434:	6768a133 			; <UNDEFINED> instruction: 0x6768a133
 438:	4ba0839f 	blmi	fe8212bc <_bss_end+0xfe8172bc>
 43c:	83839f67 	orrhi	r9, r3, #412	; 0x19c
 440:	9f67679f 	svcls	0x0067679f
 444:	029f84bb 	addseq	r8, pc, #-1157627904	; 0xbb000000
 448:	01010006 	tsteq	r1, r6

Disassembly of section .debug_info:

00000000 <.debug_info>:
   0:	0000005b 	andeq	r0, r0, fp, asr r0
   4:	00000002 	andeq	r0, r0, r2
   8:	01040000 	mrseq	r0, (UNDEF: 4)
   c:	00000000 	andeq	r0, r0, r0
  10:	00008000 	andeq	r8, r0, r0
  14:	000080d0 	ldrdeq	r8, [r0], -r0
  18:	74636576 	strbtvc	r6, [r3], #-1398	; 0x576
  1c:	2e73726f 	cdpcs	2, 7, cr7, cr3, cr15, {3}
  20:	682f0073 	stmdavs	pc!, {r0, r1, r4, r5, r6}	; <UNPREDICTABLE>
  24:	2f656d6f 	svccs	0x00656d6f
  28:	63616b61 	cmnvs	r1, #99328	; 0x18400
  2c:	63616b68 	cmnvs	r1, #106496	; 0x1a000
  30:	6f772f68 	svcvs	0x00772f68
  34:	70736b72 	rsbsvc	r6, r3, r2, ror fp
  38:	2f656361 	svccs	0x00656361
  3c:	636f7270 	cmnvs	pc, #7
  40:	2d737365 	ldclcs	3, cr7, [r3, #-404]!	; 0xfffffe6c
  44:	65686373 	strbvs	r6, [r8, #-883]!	; 0x373
  48:	656c7564 	strbvs	r7, [ip, #-1380]!	; 0x564
  4c:	736f2f72 	cmnvc	pc, #456	; 0x1c8
  50:	554e4700 	strbpl	r4, [lr, #-1792]	; 0x700
  54:	20534120 	subscs	r4, r3, r0, lsr #2
  58:	32322e32 	eorscc	r2, r2, #800	; 0x320
  5c:	f4800100 	vst2.8	{d0[0],d1[0]}, [r0], r0
  60:	02000002 	andeq	r0, r0, #2
  64:	00001400 	andeq	r1, r0, r0, lsl #8
  68:	1f010400 	svcne	0x00010400
  6c:	01000001 	tsteq	r0, r1
  70:	00000068 	andeq	r0, r0, r8, rrx
  74:	00000023 	andeq	r0, r0, r3, lsr #32
  78:	000080d0 	ldrdeq	r8, [r0], -r0
  7c:	00008260 	andeq	r8, r0, r0, ror #4
  80:	00000065 	andeq	r0, r0, r5, rrx
  84:	8b060102 	blhi	180494 <_bss_end+0x176494>
  88:	02000000 	andeq	r0, r0, #0
  8c:	01480502 	cmpeq	r8, r2, lsl #10
  90:	04020000 	streq	r0, [r2], #-0
  94:	00011005 	andeq	r1, r1, r5
  98:	05080200 	streq	r0, [r8, #-512]	; 0x200
  9c:	0000010b 	andeq	r0, r0, fp, lsl #2
  a0:	89080102 	stmdbhi	r8, {r1, r8}
  a4:	02000000 	andeq	r0, r0, #0
  a8:	009f0702 	addseq	r0, pc, r2, lsl #14
  ac:	57030000 	strpl	r0, [r3, -r0]
  b0:	02000001 	andeq	r0, r0, #1
  b4:	00005a34 	andeq	r5, r0, r4, lsr sl
  b8:	07040200 	streq	r0, [r4, -r0, lsl #4]
  bc:	000000f2 	strdeq	r0, [r0], -r2
  c0:	ed070802 	stc	8, cr0, [r7, #-8]
  c4:	04000000 	streq	r0, [r0], #-0
  c8:	6e690504 	cdpvs	5, 6, cr0, cr9, cr4, {0}
  cc:	04020074 	streq	r0, [r2], #-116	; 0x74
  d0:	0000f707 	andeq	pc, r0, r7, lsl #14
  d4:	01040300 	mrseq	r0, LR_abt
  d8:	06030000 	streq	r0, [r3], -r0
  dc:	00000081 	andeq	r0, r0, r1, lsl #1
  e0:	00870405 	addeq	r0, r7, r5, lsl #8
  e4:	01060000 	mrseq	r0, (UNDEF: 6)
  e8:	00000093 	muleq	r0, r3, r0
  ec:	00009307 	andeq	r9, r0, r7, lsl #6
  f0:	04080000 	streq	r0, [r8], #-0
  f4:	07030109 	streq	r0, [r3, -r9, lsl #2]
  f8:	000000bc 	strheq	r0, [r0], -ip
  fc:	57454e0a 	strbpl	r4, [r5, -sl, lsl #28]
 100:	600b0000 	andvs	r0, fp, r0
 104:	01000001 	tsteq	r0, r1
 108:	0001680b 	andeq	r6, r1, fp, lsl #16
 10c:	1b0b0200 	blne	2c0914 <_bss_end+0x2b6914>
 110:	03000000 	movweq	r0, #0
 114:	00007a0b 	andeq	r7, r0, fp, lsl #20
 118:	03000400 	movweq	r0, #1024	; 0x400
 11c:	0000005e 	andeq	r0, r0, lr, asr r0
 120:	00950703 	addseq	r0, r5, r3, lsl #14
 124:	830c0000 	movwhi	r0, #49152	; 0xc000
 128:	1c000000 	stcne	0, cr0, [r0], {-0}
 12c:	01350903 	teqeq	r5, r3, lsl #18
 130:	150d0000 	strne	r0, [sp, #-0]
 134:	03000000 	movweq	r0, #0
 138:	0000bc0a 	andeq	fp, r0, sl, lsl #24
 13c:	00230200 	eoreq	r0, r3, r0, lsl #4
 140:	0000100d 	andeq	r1, r0, sp
 144:	350b0300 	strcc	r0, [fp, #-768]	; 0x300
 148:	02000001 	andeq	r0, r0, #1
 14c:	730d0423 	movwvc	r0, #54307	; 0xd423
 150:	03000001 	movweq	r0, #1
 154:	0001350c 	andeq	r3, r1, ip, lsl #10
 158:	08230200 	stmdaeq	r3!, {r9}
 15c:	00000a0d 	andeq	r0, r0, sp, lsl #20
 160:	680e0300 	stmdavs	lr, {r8, r9}
 164:	02000000 	andeq	r0, r0, #0
 168:	520d0c23 	andpl	r0, sp, #8960	; 0x2300
 16c:	03000000 	movweq	r0, #0
 170:	00007610 	andeq	r7, r0, r0, lsl r6
 174:	10230200 	eorne	r0, r3, r0, lsl #4
 178:	0070730e 	rsbseq	r7, r0, lr, lsl #6
 17c:	013b1203 	teqeq	fp, r3, lsl #4
 180:	23020000 	movwcs	r0, #8192	; 0x2000
 184:	01520d14 	cmpeq	r2, r4, lsl sp
 188:	13030000 	movwne	r0, #12288	; 0x3000
 18c:	00000093 	muleq	r0, r3, r0
 190:	00182302 	andseq	r2, r8, r2, lsl #6
 194:	00c70405 	sbceq	r0, r7, r5, lsl #8
 198:	04050000 	streq	r0, [r5], #-0
 19c:	0000004f 	andeq	r0, r0, pc, asr #32
 1a0:	0000b20c 	andeq	fp, r0, ip, lsl #4
 1a4:	05040800 	streq	r0, [r4, #-2048]	; 0x800
 1a8:	0000016a 	andeq	r0, r0, sl, ror #2
 1ac:	0002e30d 	andeq	lr, r2, sp, lsl #6
 1b0:	35060400 	strcc	r0, [r6, #-1024]	; 0x400
 1b4:	02000001 	andeq	r0, r0, #1
 1b8:	100d0023 	andne	r0, sp, r3, lsr #32
 1bc:	04000000 	streq	r0, [r0], #-0
 1c0:	00016a07 	andeq	r6, r1, r7, lsl #20
 1c4:	04230200 	strteq	r0, [r3], #-512	; 0x200
 1c8:	41040500 	tstmi	r4, r0, lsl #10
 1cc:	0c000001 	stceq	0, cr0, [r0], {1}
 1d0:	000000c2 	andeq	r0, r0, r2, asr #1
 1d4:	b50a0410 	strlt	r0, [sl, #-1040]	; 0x410
 1d8:	0e000001 	cdpeq	0, 0, cr0, cr0, cr1, {0}
 1dc:	006c6176 	rsbeq	r6, ip, r6, ror r1
 1e0:	00680b04 	rsbeq	r0, r8, r4, lsl #22
 1e4:	23020000 	movwcs	r0, #8192	; 0x2000
 1e8:	01400d00 	cmpeq	r0, r0, lsl #26
 1ec:	0c040000 	stceq	0, cr0, [r4], {-0}
 1f0:	00000068 	andeq	r0, r0, r8, rrx
 1f4:	0d042302 	stceq	3, cr2, [r4, #-8]
 1f8:	00000119 	andeq	r0, r0, r9, lsl r1
 1fc:	016a0d04 	cmneq	sl, r4, lsl #26
 200:	23020000 	movwcs	r0, #8192	; 0x2000
 204:	012b0d08 	teqeq	fp, r8, lsl #26
 208:	0e040000 	cdpeq	0, 0, cr0, cr4, cr0, {0}
 20c:	0000016a 	andeq	r0, r0, sl, ror #2
 210:	000c2302 	andeq	r2, ip, r2, lsl #6
 214:	01700405 	cmneq	r0, r5, lsl #8
 218:	010f0000 	mrseq	r0, CPSR
 21c:	000000c8 	andeq	r0, r0, r8, asr #1
 220:	d0010401 	andle	r0, r1, r1, lsl #8
 224:	04000080 	streq	r0, [r0], #-128	; 0x80
 228:	00000081 	andeq	r0, r0, r1, lsl #1
 22c:	01000000 	mrseq	r0, (UNDEF: 0)
 230:	000001f2 	strdeq	r0, [r0], -r2
 234:	00015210 	andeq	r5, r1, r0, lsl r2
 238:	93040100 	movwls	r0, #16640	; 0x4100
 23c:	02000000 	andeq	r0, r0, #0
 240:	00117491 	mulseq	r1, r1, r4
 244:	01000000 	mrseq	r0, (UNDEF: 0)
 248:	00006805 	andeq	r6, r0, r5, lsl #16
 24c:	7c910200 	lfmvc	f0, 4, [r1], {0}
 250:	ce010f00 	cdpgt	15, 0, cr0, cr1, cr0, {0}
 254:	01000000 	mrseq	r0, (UNDEF: 0)
 258:	8104010b 	tsthi	r4, fp, lsl #2
 25c:	81240000 	teqhi	r4, r0
 260:	00200000 	eoreq	r0, r0, r0
 264:	29010000 	stmdbcs	r1, {}	; <UNPREDICTABLE>
 268:	10000002 	andne	r0, r0, r2
 26c:	00000152 	andeq	r0, r0, r2, asr r1
 270:	00930b01 	addseq	r0, r3, r1, lsl #22
 274:	91020000 	mrsls	r0, (UNDEF: 2)
 278:	00051174 	andeq	r1, r5, r4, ror r1
 27c:	0c010000 	stceq	0, cr0, [r1], {-0}
 280:	00000068 	andeq	r0, r0, r8, rrx
 284:	007c9102 	rsbseq	r9, ip, r2, lsl #2
 288:	00720112 	rsbseq	r0, r2, r2, lsl r1
 28c:	18010000 	stmdane	r1, {}	; <UNPREDICTABLE>
 290:	00812401 	addeq	r2, r1, r1, lsl #8
 294:	00819c00 	addeq	r9, r1, r0, lsl #24
 298:	00004000 	andeq	r4, r0, r0
 29c:	02680100 	rsbeq	r0, r8, #0
 2a0:	52100000 	andspl	r0, r0, #0
 2a4:	01000001 	tsteq	r0, r1
 2a8:	00009318 	andeq	r9, r0, r8, lsl r3
 2ac:	6c910200 	lfmvs	f0, 4, [r1], {0}
 2b0:	00813013 	addeq	r3, r1, r3, lsl r0
 2b4:	00818c00 	addeq	r8, r1, r0, lsl #24
 2b8:	00691400 	rsbeq	r1, r9, r0, lsl #8
 2bc:	00681a01 	rsbeq	r1, r8, r1, lsl #20
 2c0:	91020000 	mrsls	r0, (UNDEF: 2)
 2c4:	12000074 	andne	r0, r0, #116	; 0x74
 2c8:	00013801 	andeq	r3, r1, r1, lsl #16
 2cc:	01240100 	teqeq	r4, r0, lsl #2
 2d0:	0000819c 	muleq	r0, ip, r1
 2d4:	0000821c 	andeq	r8, r0, ip, lsl r2
 2d8:	0000006c 	andeq	r0, r0, ip, rrx
 2dc:	0002a701 	andeq	sl, r2, r1, lsl #14
 2e0:	01521000 	cmpeq	r2, r0
 2e4:	24010000 	strcs	r0, [r1], #-0
 2e8:	00000093 	muleq	r0, r3, r0
 2ec:	136c9102 	cmnne	ip, #-2147483648	; 0x80000000
 2f0:	000081a8 	andeq	r8, r0, r8, lsr #3
 2f4:	0000820c 	andeq	r8, r0, ip, lsl #4
 2f8:	01006914 	tsteq	r0, r4, lsl r9
 2fc:	00006826 	andeq	r6, r0, r6, lsr #16
 300:	74910200 	ldrvc	r0, [r1], #512	; 0x200
 304:	01150000 	tsteq	r5, r0
 308:	00000097 	muleq	r0, r7, r0
 30c:	68013001 	stmdavs	r1, {r0, ip, sp}
 310:	1c000000 	stcne	0, cr0, [r0], {-0}
 314:	60000082 	andvs	r0, r0, r2, lsl #1
 318:	98000082 	stmdals	r0, {r1, r7}
 31c:	01000000 	mrseq	r0, (UNDEF: 0)
 320:	0000dd16 	andeq	sp, r0, r6, lsl sp
 324:	35170300 	ldrcc	r0, [r7, #-768]	; 0x300
 328:	01000001 	tsteq	r0, r1
 32c:	90080305 	andls	r0, r8, r5, lsl #6
 330:	63170000 	tstvs	r7, #0
 334:	01007470 	tsteq	r0, r0, ror r4
 338:	00006815 	andeq	r6, r0, r5, lsl r8
 33c:	03050100 	movweq	r0, #20736	; 0x5100
 340:	00009000 	andeq	r9, r0, r0
 344:	0000d416 	andeq	sp, r0, r6, lsl r4
 348:	b5160100 	ldrlt	r0, [r6, #-256]	; 0x100
 34c:	01000001 	tsteq	r0, r1
 350:	90040305 	andls	r0, r4, r5, lsl #6
 354:	d4000000 	strle	r0, [r0], #-0
 358:	02000000 	andeq	r0, r0, #0
 35c:	00015d00 	andeq	r5, r1, r0, lsl #26
 360:	1f010400 	svcne	0x00010400
 364:	01000001 	tsteq	r0, r1
 368:	00000192 	muleq	r0, r2, r1
 36c:	00000023 	andeq	r0, r0, r3, lsr #32
 370:	00008260 	andeq	r8, r0, r0, ror #4
 374:	00008394 	muleq	r0, r4, r3
 378:	0000014b 	andeq	r0, r0, fp, asr #2
 37c:	01b00102 	lslseq	r0, r2, #2
 380:	17010000 	strne	r0, [r1, -r0]
 384:	00008260 	andeq	r8, r0, r0, ror #4
 388:	00008278 	andeq	r8, r0, r8, ror r2
 38c:	000000b8 	strheq	r0, [r0], -r8
 390:	80010201 	andhi	r0, r1, r1, lsl #4
 394:	01000001 	tsteq	r0, r1
 398:	0082781e 	addeq	r7, r2, lr, lsl r8
 39c:	00829000 	addeq	r9, r2, r0
 3a0:	0000d800 	andeq	sp, r0, r0, lsl #16
 3a4:	01030100 	mrseq	r0, (UNDEF: 19)
 3a8:	0000019e 	muleq	r0, lr, r1
 3ac:	82902601 	addshi	r2, r0, #1048576	; 0x100000
 3b0:	82d00000 	sbcshi	r0, r0, #0
 3b4:	00f80000 	rscseq	r0, r8, r0
 3b8:	76010000 	strvc	r0, [r1], -r0
 3bc:	04000000 	streq	r0, [r0], #-0
 3c0:	01007872 	tsteq	r0, r2, ror r8
 3c4:	00007628 	andeq	r7, r0, r8, lsr #12
 3c8:	74910200 	ldrvc	r0, [r1], #512	; 0x200
 3cc:	07040500 	streq	r0, [r4, -r0, lsl #10]
 3d0:	000000f7 	strdeq	r0, [r0], -r7
 3d4:	01c10102 	biceq	r0, r1, r2, lsl #2
 3d8:	35010000 	strcc	r0, [r1, #-0]
 3dc:	000082d0 	ldrdeq	r8, [r0], -r0
 3e0:	000082e8 	andeq	r8, r0, r8, ror #5
 3e4:	00000124 	andeq	r0, r0, r4, lsr #2
 3e8:	97010201 	strls	r0, [r1, -r1, lsl #4]
 3ec:	01000001 	tsteq	r0, r1
 3f0:	0082e83b 	addeq	lr, r2, fp, lsr r8
 3f4:	00830000 	addeq	r0, r3, r0
 3f8:	00014400 	andeq	r4, r1, r0, lsl #8
 3fc:	01060100 	mrseq	r0, (UNDEF: 22)
 400:	00000178 	andeq	r0, r0, r8, ror r1
 404:	83004401 	movwhi	r4, #1025	; 0x401
 408:	83940000 	orrshi	r0, r4, #0
 40c:	01640000 	cmneq	r4, r0
 410:	04010000 	streq	r0, [r1], #-0
 414:	01006172 	tsteq	r0, r2, ror r1
 418:	00007646 	andeq	r7, r0, r6, asr #12
 41c:	74910200 	ldrvc	r0, [r1], #512	; 0x200
 420:	00787204 	rsbseq	r7, r8, r4, lsl #4
 424:	00764701 	rsbseq	r4, r6, r1, lsl #14
 428:	91020000 	mrsls	r0, (UNDEF: 2)
 42c:	d3000070 	movwle	r0, #112	; 0x70
 430:	02000001 	andeq	r0, r0, #1
 434:	0001cf00 	andeq	ip, r1, r0, lsl #30
 438:	1f010400 	svcne	0x00010400
 43c:	01000001 	tsteq	r0, r1
 440:	00000221 	andeq	r0, r0, r1, lsr #4
 444:	00000023 	andeq	r0, r0, r3, lsr #32
 448:	00008394 	muleq	r0, r4, r3
 44c:	00008694 	muleq	r0, r4, r6
 450:	0000019e 	muleq	r0, lr, r1
 454:	8b060102 	blhi	180864 <_bss_end+0x176864>
 458:	02000000 	andeq	r0, r0, #0
 45c:	01480502 	cmpeq	r8, r2, lsl #10
 460:	04020000 	streq	r0, [r2], #-0
 464:	00011005 	andeq	r1, r1, r5
 468:	05080200 	streq	r0, [r8, #-512]	; 0x200
 46c:	0000010b 	andeq	r0, r0, fp, lsl #2
 470:	89080102 	stmdbhi	r8, {r1, r8}
 474:	02000000 	andeq	r0, r0, #0
 478:	009f0702 	addseq	r0, pc, r2, lsl #14
 47c:	57030000 	strpl	r0, [r3, -r0]
 480:	02000001 	andeq	r0, r0, #1
 484:	00005a34 	andeq	r5, r0, r4, lsr sl
 488:	07040200 	streq	r0, [r4, -r0, lsl #4]
 48c:	000000f2 	strdeq	r0, [r0], -r2
 490:	ed070802 	stc	8, cr0, [r7, #-8]
 494:	04000000 	streq	r0, [r0], #-0
 498:	6e690504 	cdpvs	5, 6, cr0, cr9, cr4, {0}
 49c:	04020074 	streq	r0, [r2], #-116	; 0x74
 4a0:	0000f707 	andeq	pc, r0, r7, lsl #14
 4a4:	01c90300 	biceq	r0, r9, r0, lsl #6
 4a8:	06030000 	streq	r0, [r3], -r0
 4ac:	0000004f 	andeq	r0, r0, pc, asr #32
 4b0:	01fc0105 	mvnseq	r0, r5, lsl #2
 4b4:	26010000 	strcs	r0, [r1], -r0
 4b8:	0000de01 	andeq	sp, r0, r1, lsl #28
 4bc:	00839400 	addeq	r9, r3, r0, lsl #8
 4c0:	0084dc00 	addeq	sp, r4, r0, lsl #24
 4c4:	00019000 	andeq	r9, r1, r0
 4c8:	00de0100 	sbcseq	r0, lr, r0, lsl #2
 4cc:	93060000 	movwls	r0, #24576	; 0x6000
 4d0:	01000002 	tsteq	r0, r2
 4d4:	00007626 	andeq	r7, r0, r6, lsr #12
 4d8:	64910200 	ldrvs	r0, [r1], #512	; 0x200
 4dc:	00026507 	andeq	r6, r2, r7, lsl #10
 4e0:	de280100 	suflee	f0, f0, f0
 4e4:	02000000 	andeq	r0, r0, #0
 4e8:	8b077491 	blhi	1dd734 <_bss_end+0x1d3734>
 4ec:	01000002 	tsteq	r0, r2
 4f0:	00006832 	andeq	r6, r0, r2, lsr r8
 4f4:	70910200 	addsvc	r0, r1, r0, lsl #4
 4f8:	00000008 	andeq	r0, r0, r8
 4fc:	023f0700 	eorseq	r0, pc, #0
 500:	35010000 	strcc	r0, [r1, #-0]
 504:	00000076 	andeq	r0, r0, r6, ror r0
 508:	006c9102 	rsbeq	r9, ip, r2, lsl #2
 50c:	76040900 	strvc	r0, [r4], -r0, lsl #18
 510:	05000000 	streq	r0, [r0, #-0]
 514:	0001e801 	andeq	lr, r1, r1, lsl #16
 518:	014a0100 	mrseq	r0, (UNDEF: 90)
 51c:	00000068 	andeq	r0, r0, r8, rrx
 520:	000084dc 	ldrdeq	r8, [r0], -ip
 524:	00008534 	andeq	r8, r0, r4, lsr r5
 528:	000001bc 			; <UNDEFINED> instruction: 0x000001bc
 52c:	00011101 	andeq	r1, r1, r1, lsl #2
 530:	024f0600 	subeq	r0, pc, #0
 534:	4a010000 	bmi	4053c <_bss_end+0x3653c>
 538:	000000de 	ldrdeq	r0, [r0], -lr
 53c:	00749102 	rsbseq	r9, r4, r2, lsl #2
 540:	020b010a 	andeq	r0, fp, #-2147483646	; 0x80000002
 544:	5b010000 	blpl	4054c <_bss_end+0x3654c>
 548:	00853401 	addeq	r3, r5, r1, lsl #8
 54c:	0085b400 	addeq	fp, r5, r0, lsl #8
 550:	0001e800 	andeq	lr, r1, r0, lsl #16
 554:	013a0100 	teqeq	sl, r0, lsl #2
 558:	4f060000 	svcmi	0x00060000
 55c:	01000002 	tsteq	r0, r2
 560:	0000de5b 	andeq	sp, r0, fp, asr lr
 564:	7c910200 	lfmvc	f0, 4, [r1], {0}
 568:	32010a00 	andcc	r0, r1, #0
 56c:	01000002 	tsteq	r0, r2
 570:	85b4016a 	ldrhi	r0, [r4, #362]!	; 0x16a
 574:	86580000 	ldrbhi	r0, [r8], -r0
 578:	02080000 	andeq	r0, r8, #0
 57c:	71010000 	mrsvc	r0, (UNDEF: 1)
 580:	06000001 	streq	r0, [r0], -r1
 584:	0000024f 	andeq	r0, r0, pc, asr #4
 588:	00de6a01 	sbcseq	r6, lr, r1, lsl #20
 58c:	91020000 	mrsls	r0, (UNDEF: 2)
 590:	0293067c 	addseq	r0, r3, #130023424	; 0x7c00000
 594:	6a010000 	bvs	4059c <_bss_end+0x3659c>
 598:	00000076 	andeq	r0, r0, r6, ror r0
 59c:	00789102 	rsbseq	r9, r8, r2, lsl #2
 5a0:	0277010a 	rsbseq	r0, r7, #-2147483646	; 0x80000002
 5a4:	75010000 	strvc	r0, [r1, #-0]
 5a8:	00865801 	addeq	r5, r6, r1, lsl #16
 5ac:	00869400 	addeq	r9, r6, r0, lsl #8
 5b0:	00022800 	andeq	r2, r2, r0, lsl #16
 5b4:	019a0100 	orrseq	r0, sl, r0, lsl #2
 5b8:	4f060000 	svcmi	0x00060000
 5bc:	01000002 	tsteq	r0, r2
 5c0:	0000de75 	andeq	sp, r0, r5, ror lr
 5c4:	7c910200 	lfmvc	f0, 4, [r1], {0}
 5c8:	00410b00 	subeq	r0, r1, r0, lsl #22
 5cc:	01ab0000 			; <UNDEFINED> instruction: 0x01ab0000
 5d0:	ab0c0000 	blge	3005d8 <_bss_end+0x2f65d8>
 5d4:	ff000001 			; <UNDEFINED> instruction: 0xff000001
 5d8:	04020007 	streq	r0, [r2], #-7
 5dc:	00025c07 	andeq	r5, r2, r7, lsl #24
 5e0:	02570d00 	subseq	r0, r7, #0
 5e4:	18010000 	stmdane	r1, {}	; <UNPREDICTABLE>
 5e8:	0000019a 	muleq	r0, sl, r1
 5ec:	10030501 	andne	r0, r3, r1, lsl #10
 5f0:	0d000090 	stceq	0, cr0, [r0, #-576]	; 0xfffffdc0
 5f4:	000001da 	ldrdeq	r0, [r0], -sl
 5f8:	00681e01 	rsbeq	r1, r8, r1, lsl #28
 5fc:	05010000 	streq	r0, [r1, #-0]
 600:	00900c03 	addseq	r0, r0, r3, lsl #24
 604:	020e0000 	andeq	r0, lr, #0
 608:	00020000 	andeq	r0, r2, r0
 60c:	0000028d 	andeq	r0, r0, sp, lsl #5
 610:	011f0104 	tsteq	pc, r4, lsl #2
 614:	a8010000 	stmdage	r1, {}	; <UNPREDICTABLE>
 618:	23000002 	movwcs	r0, #2
 61c:	94000000 	strls	r0, [r0], #-0
 620:	f4000086 	vst4.32	{d0-d3}, [r0], r6
 624:	91000089 	smlabbls	r0, r9, r0, r0
 628:	02000002 	andeq	r0, r0, #2
 62c:	008b0601 	addeq	r0, fp, r1, lsl #12
 630:	02020000 	andeq	r0, r2, #0
 634:	00014805 	andeq	r4, r1, r5, lsl #16
 638:	05040200 	streq	r0, [r4, #-512]	; 0x200
 63c:	00000110 	andeq	r0, r0, r0, lsl r1
 640:	0b050802 	bleq	142650 <_bss_end+0x138650>
 644:	02000001 	andeq	r0, r0, #1
 648:	00890801 	addeq	r0, r9, r1, lsl #16
 64c:	02020000 	andeq	r0, r2, #0
 650:	00009f07 	andeq	r9, r0, r7, lsl #30
 654:	01570300 	cmpeq	r7, r0, lsl #6
 658:	34020000 	strcc	r0, [r2], #-0
 65c:	0000005a 	andeq	r0, r0, sl, asr r0
 660:	f2070402 	vshl.s8	d0, d2, d7
 664:	02000000 	andeq	r0, r0, #0
 668:	00ed0708 	rsceq	r0, sp, r8, lsl #14
 66c:	04040000 	streq	r0, [r4], #-0
 670:	746e6905 	strbtvc	r6, [lr], #-2309	; 0x905
 674:	07040200 	streq	r0, [r4, -r0, lsl #4]
 678:	000000f7 	strdeq	r0, [r0], -r7
 67c:	00010403 	andeq	r0, r1, r3, lsl #8
 680:	81060300 	mrshi	r0, LR_und
 684:	05000000 	streq	r0, [r0, #-0]
 688:	00008704 	andeq	r8, r0, r4, lsl #14
 68c:	93010600 	movwls	r0, #5632	; 0x1600
 690:	07000000 	streq	r0, [r0, -r0]
 694:	00000093 	muleq	r0, r3, r0
 698:	09040800 	stmdbeq	r4, {fp}
 69c:	bc070301 	stclt	3, cr0, [r7], {1}
 6a0:	0a000000 	beq	6a8 <_start-0x7958>
 6a4:	0057454e 	subseq	r4, r7, lr, asr #10
 6a8:	01600b00 	cmneq	r0, r0, lsl #22
 6ac:	0b010000 	bleq	406b4 <_bss_end+0x366b4>
 6b0:	00000168 	andeq	r0, r0, r8, ror #2
 6b4:	001b0b02 	andseq	r0, fp, r2, lsl #22
 6b8:	0b030000 	bleq	c06c0 <_bss_end+0xb66c0>
 6bc:	0000007a 	andeq	r0, r0, sl, ror r0
 6c0:	5e030004 	cdppl	0, 0, cr0, cr3, cr4, {0}
 6c4:	03000000 	movweq	r0, #0
 6c8:	00009507 	andeq	r9, r0, r7, lsl #10
 6cc:	00830c00 	addeq	r0, r3, r0, lsl #24
 6d0:	031c0000 	tsteq	ip, #0
 6d4:	00013509 	andeq	r3, r1, r9, lsl #10
 6d8:	00150d00 	andseq	r0, r5, r0, lsl #26
 6dc:	0a030000 	beq	c06e4 <_bss_end+0xb66e4>
 6e0:	000000bc 	strheq	r0, [r0], -ip
 6e4:	0d002302 	stceq	3, cr2, [r0, #-8]
 6e8:	00000010 	andeq	r0, r0, r0, lsl r0
 6ec:	01350b03 	teqeq	r5, r3, lsl #22
 6f0:	23020000 	movwcs	r0, #8192	; 0x2000
 6f4:	01730d04 	cmneq	r3, r4, lsl #26
 6f8:	0c030000 	stceq	0, cr0, [r3], {-0}
 6fc:	00000135 	andeq	r0, r0, r5, lsr r1
 700:	0d082302 	stceq	3, cr2, [r8, #-8]
 704:	0000000a 	andeq	r0, r0, sl
 708:	00680e03 	rsbeq	r0, r8, r3, lsl #28
 70c:	23020000 	movwcs	r0, #8192	; 0x2000
 710:	00520d0c 	subseq	r0, r2, ip, lsl #26
 714:	10030000 	andne	r0, r3, r0
 718:	00000076 	andeq	r0, r0, r6, ror r0
 71c:	0e102302 	cdpeq	3, 1, cr2, cr0, cr2, {0}
 720:	03007073 	movweq	r7, #115	; 0x73
 724:	00013b12 	andeq	r3, r1, r2, lsl fp
 728:	14230200 	strtne	r0, [r3], #-512	; 0x200
 72c:	0001520d 	andeq	r5, r1, sp, lsl #4
 730:	93130300 	tstls	r3, #0
 734:	02000000 	andeq	r0, r0, #0
 738:	05001823 	streq	r1, [r0, #-2083]	; 0x823
 73c:	0000c704 	andeq	ip, r0, r4, lsl #14
 740:	4f040500 	svcmi	0x00040500
 744:	0f000000 	svceq	0x00000000
 748:	0002b001 	andeq	fp, r2, r1
 74c:	94050100 	strls	r0, [r5], #-256	; 0x100
 750:	cc000086 	stcgt	0, cr0, [r0], {134}	; 0x86
 754:	48000086 	stmdami	r0, {r1, r2, r7}
 758:	01000002 	tsteq	r0, r2
 75c:	02dc0110 	sbcseq	r0, ip, #4
 760:	0c010000 	stceq	0, cr0, [r1], {-0}
 764:	0086cc01 	addeq	ip, r6, r1, lsl #24
 768:	0087c400 	addeq	ip, r7, r0, lsl #8
 76c:	00026800 	andeq	r6, r2, r0, lsl #16
 770:	01990100 	orrseq	r0, r9, r0, lsl #2
 774:	66110000 	ldrvs	r0, [r1], -r0
 778:	760c0100 	strvc	r0, [ip], -r0, lsl #2
 77c:	02000000 	andeq	r0, r0, #0
 780:	52126c91 	andspl	r6, r2, #37120	; 0x9100
 784:	01000001 	tsteq	r0, r1
 788:	0000930c 	andeq	r9, r0, ip, lsl #6
 78c:	68910200 	ldmvs	r1, {r9}
 790:	62637013 	rsbvs	r7, r3, #19
 794:	350e0100 	strcc	r0, [lr, #-256]	; 0x100
 798:	02000001 	andeq	r0, r0, #1
 79c:	14007491 	strne	r7, [r0], #-1169	; 0x491
 7a0:	0002bc01 	andeq	fp, r2, r1, lsl #24
 7a4:	c4280100 	strtgt	r0, [r8], #-256	; 0x100
 7a8:	a8000087 	stmdage	r0, {r0, r1, r2, r7}
 7ac:	02000089 	andeq	r0, r0, #137	; 0x89
 7b0:	d601007d 			; <UNDEFINED> instruction: 0xd601007d
 7b4:	15000001 	strne	r0, [r0, #-1]
 7b8:	000002d2 	ldrdeq	r0, [r0], -r2
 7bc:	01354501 	teqeq	r5, r1, lsl #10
 7c0:	54010000 	strpl	r0, [r1], #-0
 7c4:	00880016 	addeq	r0, r8, r6, lsl r0
 7c8:	00883c00 	addeq	r3, r8, r0, lsl #24
 7cc:	02981500 	addseq	r1, r8, #0
 7d0:	33010000 	movwcc	r0, #4096	; 0x1000
 7d4:	00000135 	andeq	r0, r0, r5, lsr r1
 7d8:	00005401 	andeq	r5, r0, r1, lsl #8
 7dc:	02c70117 	sbceq	r0, r7, #-1073741819	; 0xc0000005
 7e0:	69010000 	stmdbvs	r1, {}	; <UNPREDICTABLE>
 7e4:	0089a801 	addeq	sl, r9, r1, lsl #16
 7e8:	0089f400 	addeq	pc, r9, r0, lsl #8
 7ec:	00029400 	andeq	r9, r2, r0, lsl #8
 7f0:	01ff0100 	mvnseq	r0, r0, lsl #2
 7f4:	0a120000 	beq	4807fc <_bss_end+0x4767fc>
 7f8:	01000000 	mrseq	r0, (UNDEF: 0)
 7fc:	00006869 	andeq	r6, r0, r9, ror #16
 800:	7c910200 	lfmvc	f0, 4, [r1], {0}
 804:	00dd1800 	sbcseq	r1, sp, r0, lsl #16
 808:	17030000 	strne	r0, [r3, -r0]
 80c:	00000135 	andeq	r0, r0, r5, lsr r1
 810:	08030501 	stmdaeq	r3, {r0, r8, sl}
 814:	00000090 	muleq	r0, r0, r0
 818:	00000339 	andeq	r0, r0, r9, lsr r3
 81c:	03e80002 	mvneq	r0, #2
 820:	01040000 	mrseq	r0, (UNDEF: 4)
 824:	0000011f 	andeq	r0, r0, pc, lsl r1
 828:	00030301 	andeq	r0, r3, r1, lsl #6
 82c:	00002300 	andeq	r2, r0, r0, lsl #6
 830:	0089f400 	addeq	pc, r9, r0, lsl #8
 834:	008d3400 	addeq	r3, sp, r0, lsl #8
 838:	00037800 	andeq	r7, r3, r0, lsl #16
 83c:	06010200 	streq	r0, [r1], -r0, lsl #4
 840:	0000008b 	andeq	r0, r0, fp, lsl #1
 844:	48050202 	stmdami	r5, {r1, r9}
 848:	02000001 	andeq	r0, r0, #1
 84c:	01100504 	tsteq	r0, r4, lsl #10
 850:	08020000 	stmdaeq	r2, {}	; <UNPREDICTABLE>
 854:	00010b05 	andeq	r0, r1, r5, lsl #22
 858:	08010200 	stmdaeq	r1, {r9}
 85c:	00000089 	andeq	r0, r0, r9, lsl #1
 860:	9f070202 	svcls	0x00070202
 864:	03000000 	movweq	r0, #0
 868:	00000157 	andeq	r0, r0, r7, asr r1
 86c:	005a3402 	subseq	r3, sl, r2, lsl #8
 870:	04020000 	streq	r0, [r2], #-0
 874:	0000f207 	andeq	pc, r0, r7, lsl #4
 878:	07080200 	streq	r0, [r8, -r0, lsl #4]
 87c:	000000ed 	andeq	r0, r0, sp, ror #1
 880:	69050404 	stmdbvs	r5, {r2, sl}
 884:	0200746e 	andeq	r7, r0, #1845493760	; 0x6e000000
 888:	00f70704 	rscseq	r0, r7, r4, lsl #14
 88c:	04030000 	streq	r0, [r3], #-0
 890:	03000001 	movweq	r0, #1
 894:	00008106 	andeq	r8, r0, r6, lsl #2
 898:	87040500 	strhi	r0, [r4, -r0, lsl #10]
 89c:	06000000 	streq	r0, [r0], -r0
 8a0:	00009301 	andeq	r9, r0, r1, lsl #6
 8a4:	00930700 	addseq	r0, r3, r0, lsl #14
 8a8:	08000000 	stmdaeq	r0, {}	; <UNPREDICTABLE>
 8ac:	03010904 	movweq	r0, #6404	; 0x1904
 8b0:	0000bc07 	andeq	fp, r0, r7, lsl #24
 8b4:	454e0a00 	strbmi	r0, [lr, #-2560]	; 0xa00
 8b8:	0b000057 	bleq	a1c <_start-0x75e4>
 8bc:	00000160 	andeq	r0, r0, r0, ror #2
 8c0:	01680b01 	cmneq	r8, r1, lsl #22
 8c4:	0b020000 	bleq	808cc <_bss_end+0x768cc>
 8c8:	0000001b 	andeq	r0, r0, fp, lsl r0
 8cc:	007a0b03 	rsbseq	r0, sl, r3, lsl #22
 8d0:	00040000 	andeq	r0, r4, r0
 8d4:	00005e03 	andeq	r5, r0, r3, lsl #28
 8d8:	95070300 	strls	r0, [r7, #-768]	; 0x300
 8dc:	0c000000 	stceq	0, cr0, [r0], {-0}
 8e0:	00000083 	andeq	r0, r0, r3, lsl #1
 8e4:	3509031c 	strcc	r0, [r9, #-796]	; 0x31c
 8e8:	0d000001 	stceq	0, cr0, [r0, #-4]
 8ec:	00000015 	andeq	r0, r0, r5, lsl r0
 8f0:	00bc0a03 	adcseq	r0, ip, r3, lsl #20
 8f4:	23020000 	movwcs	r0, #8192	; 0x2000
 8f8:	00100d00 	andseq	r0, r0, r0, lsl #26
 8fc:	0b030000 	bleq	c0904 <_bss_end+0xb6904>
 900:	00000135 	andeq	r0, r0, r5, lsr r1
 904:	0d042302 	stceq	3, cr2, [r4, #-8]
 908:	00000173 	andeq	r0, r0, r3, ror r1
 90c:	01350c03 	teqeq	r5, r3, lsl #24
 910:	23020000 	movwcs	r0, #8192	; 0x2000
 914:	000a0d08 	andeq	r0, sl, r8, lsl #26
 918:	0e030000 	cdpeq	0, 0, cr0, cr3, cr0, {0}
 91c:	00000068 	andeq	r0, r0, r8, rrx
 920:	0d0c2302 	stceq	3, cr2, [ip, #-8]
 924:	00000052 	andeq	r0, r0, r2, asr r0
 928:	00761003 	rsbseq	r1, r6, r3
 92c:	23020000 	movwcs	r0, #8192	; 0x2000
 930:	70730e10 	rsbsvc	r0, r3, r0, lsl lr
 934:	3b120300 	blcc	48153c <_bss_end+0x47753c>
 938:	02000001 	andeq	r0, r0, #1
 93c:	520d1423 	andpl	r1, sp, #587202560	; 0x23000000
 940:	03000001 	movweq	r0, #1
 944:	00009313 	andeq	r9, r0, r3, lsl r3
 948:	18230200 	stmdane	r3!, {r9}
 94c:	c7040500 	strgt	r0, [r4, -r0, lsl #10]
 950:	05000000 	streq	r0, [r0, #-0]
 954:	00004f04 	andeq	r4, r0, r4, lsl #30
 958:	00b20c00 	adcseq	r0, r2, r0, lsl #24
 95c:	04080000 	streq	r0, [r8], #-0
 960:	00016a05 	andeq	r6, r1, r5, lsl #20
 964:	02e30d00 	rsceq	r0, r3, #0
 968:	06040000 	streq	r0, [r4], -r0
 96c:	00000135 	andeq	r0, r0, r5, lsr r1
 970:	0d002302 	stceq	3, cr2, [r0, #-8]
 974:	00000010 	andeq	r0, r0, r0, lsl r0
 978:	016a0704 	cmneq	sl, r4, lsl #14
 97c:	23020000 	movwcs	r0, #8192	; 0x2000
 980:	04050004 	streq	r0, [r5], #-4
 984:	00000141 	andeq	r0, r0, r1, asr #2
 988:	0000c20c 	andeq	ip, r0, ip, lsl #4
 98c:	0a041000 	beq	104994 <_bss_end+0xfa994>
 990:	000001b5 			; <UNDEFINED> instruction: 0x000001b5
 994:	6c61760e 	stclvs	6, cr7, [r1], #-56	; 0xffffffc8
 998:	680b0400 	stmdavs	fp, {sl}
 99c:	02000000 	andeq	r0, r0, #0
 9a0:	400d0023 	andmi	r0, sp, r3, lsr #32
 9a4:	04000001 	streq	r0, [r0], #-1
 9a8:	0000680c 	andeq	r6, r0, ip, lsl #16
 9ac:	04230200 	strteq	r0, [r3], #-512	; 0x200
 9b0:	0001190d 	andeq	r1, r1, sp, lsl #18
 9b4:	6a0d0400 	bvs	3419bc <_bss_end+0x3379bc>
 9b8:	02000001 	andeq	r0, r0, #1
 9bc:	2b0d0823 	blcs	342a50 <_bss_end+0x338a50>
 9c0:	04000001 	streq	r0, [r0], #-1
 9c4:	00016a0e 	andeq	r6, r1, lr, lsl #20
 9c8:	0c230200 	sfmeq	f0, 4, [r3], #-0
 9cc:	03330c00 	teqeq	r3, #0
 9d0:	04080000 	streq	r0, [r8], #-0
 9d4:	0001de13 	andeq	sp, r1, r3, lsl lr
 9d8:	03510d00 	cmpeq	r1, #0
 9dc:	14040000 	strne	r0, [r4], #-0
 9e0:	000001de 	ldrdeq	r0, [r0], -lr
 9e4:	0d002302 	stceq	3, cr2, [r0, #-8]
 9e8:	0000031b 	andeq	r0, r0, fp, lsl r3
 9ec:	01351504 	teqeq	r5, r4, lsl #10
 9f0:	23020000 	movwcs	r0, #8192	; 0x2000
 9f4:	04050004 	streq	r0, [r5], #-4
 9f8:	00000170 	andeq	r0, r0, r0, ror r1
 9fc:	02f4010f 	rscseq	r0, r4, #-1073741821	; 0xc0000003
 a00:	06010000 	streq	r0, [r1], -r0
 a04:	0089f401 	addeq	pc, r9, r1, lsl #8
 a08:	008a5000 	addeq	r5, sl, r0
 a0c:	0002b400 	andeq	fp, r2, r0, lsl #8
 a10:	021b0100 	andseq	r0, fp, #0
 a14:	73100000 	tstvc	r0, #0
 a18:	01006d65 	tsteq	r0, r5, ror #26
 a1c:	00021b06 	andeq	r1, r2, r6, lsl #22
 a20:	74910200 	ldrvc	r0, [r1], #512	; 0x200
 a24:	6c617610 	stclvs	6, cr7, [r1], #-64	; 0xffffffc0
 a28:	6f060100 	svcvs	0x00060100
 a2c:	02000000 	andeq	r0, r0, #0
 a30:	05007091 	streq	r7, [r0, #-145]	; 0x91
 a34:	0001de04 	andeq	sp, r1, r4, lsl #28
 a38:	09010f00 	stmdbeq	r1, {r8, r9, sl, fp}
 a3c:	01000003 	tsteq	r0, r3
 a40:	8a50010d 	bhi	1400e7c <_bss_end+0x13f6e7c>
 a44:	8af80000 	bhi	ffe00a4c <_bss_end+0xffdf6a4c>
 a48:	02e00000 	rsceq	r0, r0, #0
 a4c:	62010000 	andvs	r0, r1, #0
 a50:	10000002 	andne	r0, r0, r2
 a54:	006d6573 	rsbeq	r6, sp, r3, ror r5
 a58:	01de0d01 	bicseq	r0, lr, r1, lsl #26
 a5c:	91020000 	mrsls	r0, (UNDEF: 2)
 a60:	8a80116c 	bhi	fe005018 <_bss_end+0xfdffb018>
 a64:	8ac80000 	bhi	ff200a6c <_bss_end+0xff1f6a6c>
 a68:	39120000 	ldmdbcc	r2, {}	; <UNPREDICTABLE>
 a6c:	01000003 	tsteq	r0, r3
 a70:	00016a12 	andeq	r6, r1, r2, lsl sl
 a74:	74910200 	ldrvc	r0, [r1], #512	; 0x200
 a78:	010f0000 	mrseq	r0, CPSR
 a7c:	0000032a 	andeq	r0, r0, sl, lsr #6
 a80:	f8012201 			; <UNDEFINED> instruction: 0xf8012201
 a84:	2000008a 	andcs	r0, r0, sl, lsl #1
 a88:	0c00008c 	stceq	0, cr0, [r0], {140}	; 0x8c
 a8c:	01000003 	tsteq	r0, r3
 a90:	000002a3 	andeq	r0, r0, r3, lsr #5
 a94:	6d657310 	stclvs	3, cr7, [r5, #-64]!	; 0xffffffc0
 a98:	de220100 	sufles	f0, f2, f0
 a9c:	02000001 	andeq	r0, r0, #1
 aa0:	3c116c91 	ldccc	12, cr6, [r1], {145}	; 0x91
 aa4:	0000008b 	andeq	r0, r0, fp, lsl #1
 aa8:	1200008c 	andne	r0, r0, #140	; 0x8c
 aac:	00000347 	andeq	r0, r0, r7, asr #6
 ab0:	016a2801 	cmneq	sl, r1, lsl #16
 ab4:	91020000 	mrsls	r0, (UNDEF: 2)
 ab8:	0f000074 	svceq	0x00000074
 abc:	0002eb01 	andeq	lr, r2, r1, lsl #22
 ac0:	01450100 	mrseq	r0, (UNDEF: 85)
 ac4:	00008c20 	andeq	r8, r0, r0, lsr #24
 ac8:	00008c6c 	andeq	r8, r0, ip, ror #24
 acc:	00000338 	andeq	r0, r0, r8, lsr r3
 ad0:	0002cc01 	andeq	ip, r2, r1, lsl #24
 ad4:	02fd1300 	rscseq	r1, sp, #0
 ad8:	45010000 	strmi	r0, [r1, #-0]
 adc:	000002cc 	andeq	r0, r0, ip, asr #5
 ae0:	00749102 	rsbseq	r9, r4, r2, lsl #2
 ae4:	02d20405 	sbcseq	r0, r2, #83886080	; 0x5000000
 ae8:	04050000 	streq	r0, [r5], #-0
 aec:	000001b5 			; <UNDEFINED> instruction: 0x000001b5
 af0:	0321010f 	teqeq	r1, #-1073741821	; 0xc0000003
 af4:	4b010000 	blmi	40afc <_bss_end+0x36afc>
 af8:	008c6c01 	addeq	r6, ip, r1, lsl #24
 afc:	008ccc00 	addeq	ip, ip, r0, lsl #24
 b00:	00036400 	andeq	r6, r3, r0, lsl #8
 b04:	03010100 	movweq	r0, #4352	; 0x1100
 b08:	fd130000 	ldc2	0, cr0, [r3, #-0]
 b0c:	01000002 	tsteq	r0, r2
 b10:	0002d24b 	andeq	sp, r2, fp, asr #4
 b14:	74910200 	ldrvc	r0, [r1], #512	; 0x200
 b18:	10010f00 	andne	r0, r1, r0, lsl #30
 b1c:	01000003 	tsteq	r0, r3
 b20:	8ccc0151 	stfhie	f0, [ip], {81}	; 0x51
 b24:	8d340000 	ldchi	0, cr0, [r4, #-0]
 b28:	03900000 	orrseq	r0, r0, #0
 b2c:	2a010000 	bcs	40b34 <_bss_end+0x36b34>
 b30:	13000003 	movwne	r0, #3
 b34:	000002fd 	strdeq	r0, [r0], -sp
 b38:	02d25101 	sbcseq	r5, r2, #1073741824	; 0x40000000
 b3c:	91020000 	mrsls	r0, (UNDEF: 2)
 b40:	dd140074 	ldcle	0, cr0, [r4, #-464]	; 0xfffffe30
 b44:	03000000 	movweq	r0, #0
 b48:	00013517 	andeq	r3, r1, r7, lsl r5
 b4c:	03050100 	movweq	r0, #20736	; 0x5100
 b50:	00009008 	andeq	r9, r0, r8
	...

Disassembly of section .debug_abbrev:

00000000 <.debug_abbrev>:
   0:	10001101 	andne	r1, r0, r1, lsl #2
   4:	12011106 	andne	r1, r1, #-2147483647	; 0x80000001
   8:	1b080301 	blne	200c14 <_bss_end+0x1f6c14>
   c:	13082508 	movwne	r2, #34056	; 0x8508
  10:	00000005 	andeq	r0, r0, r5
  14:	25011101 	strcs	r1, [r1, #-257]	; 0x101
  18:	030b130e 	movweq	r1, #45838	; 0xb30e
  1c:	110e1b0e 	tstne	lr, lr, lsl #22
  20:	10011201 	andne	r1, r1, r1, lsl #4
  24:	02000006 	andeq	r0, r0, #6
  28:	0b0b0024 	bleq	2c00c0 <_bss_end+0x2b60c0>
  2c:	0e030b3e 	vmoveq.16	d3[0], r0
  30:	16030000 	strne	r0, [r3], -r0
  34:	3a0e0300 	bcc	380c3c <_bss_end+0x376c3c>
  38:	490b3b0b 	stmdbmi	fp, {r0, r1, r3, r8, r9, fp, ip, sp}
  3c:	04000013 	streq	r0, [r0], #-19
  40:	0b0b0024 	bleq	2c00d8 <_bss_end+0x2b60d8>
  44:	08030b3e 	stmdaeq	r3, {r1, r2, r3, r4, r5, r8, r9, fp}
  48:	0f050000 	svceq	0x00050000
  4c:	490b0b00 	stmdbmi	fp, {r8, r9, fp}
  50:	06000013 			; <UNDEFINED> instruction: 0x06000013
  54:	0c270115 	stfeqs	f0, [r7], #-84	; 0xffffffac
  58:	00001301 	andeq	r1, r0, r1, lsl #6
  5c:	49000507 	stmdbmi	r0, {r0, r1, r2, r8, sl}
  60:	08000013 	stmdaeq	r0, {r0, r1, r4}
  64:	0b0b000f 	bleq	2c00a8 <_bss_end+0x2b60a8>
  68:	04090000 	streq	r0, [r9], #-0
  6c:	3a0b0b01 	bcc	2c2c78 <_bss_end+0x2b8c78>
  70:	010b3b0b 	tsteq	fp, fp, lsl #22
  74:	0a000013 	beq	c8 <_start-0x7f38>
  78:	08030028 	stmdaeq	r3, {r3, r5}
  7c:	00000d1c 	andeq	r0, r0, ip, lsl sp
  80:	0300280b 	movweq	r2, #2059	; 0x80b
  84:	000d1c0e 	andeq	r1, sp, lr, lsl #24
  88:	01130c00 	tsteq	r3, r0, lsl #24
  8c:	0b0b0e03 	bleq	2c38a0 <_bss_end+0x2b98a0>
  90:	0b3b0b3a 	bleq	ec2d80 <_bss_end+0xeb8d80>
  94:	00001301 	andeq	r1, r0, r1, lsl #6
  98:	03000d0d 	movweq	r0, #3341	; 0xd0d
  9c:	3b0b3a0e 	blcc	2ce8dc <_bss_end+0x2c48dc>
  a0:	3813490b 	ldmdacc	r3, {r0, r1, r3, r8, fp, lr}
  a4:	0e00000a 	cdpeq	0, 0, cr0, cr0, cr10, {0}
  a8:	0803000d 	stmdaeq	r3, {r0, r2, r3}
  ac:	0b3b0b3a 	bleq	ec2d9c <_bss_end+0xeb8d9c>
  b0:	0a381349 	beq	e04ddc <_bss_end+0xdfaddc>
  b4:	2e0f0000 	cdpcs	0, 0, cr0, cr15, cr0, {0}
  b8:	030c3f01 	movweq	r3, #52993	; 0xcf01
  bc:	3b0b3a0e 	blcc	2ce8fc <_bss_end+0x2c48fc>
  c0:	110c270b 	tstne	ip, fp, lsl #14
  c4:	40011201 	andmi	r1, r1, r1, lsl #4
  c8:	0c429706 	mcrreq	7, 0, r9, r2, cr6
  cc:	00001301 	andeq	r1, r0, r1, lsl #6
  d0:	03000510 	movweq	r0, #1296	; 0x510
  d4:	3b0b3a0e 	blcc	2ce914 <_bss_end+0x2c4914>
  d8:	0213490b 	andseq	r4, r3, #180224	; 0x2c000
  dc:	1100000a 	tstne	r0, sl
  e0:	0e030034 	mcreq	0, 0, r0, cr3, cr4, {1}
  e4:	0b3b0b3a 	bleq	ec2dd4 <_bss_end+0xeb8dd4>
  e8:	0a021349 	beq	84e14 <_bss_end+0x7ae14>
  ec:	2e120000 	cdpcs	0, 1, cr0, cr2, cr0, {0}
  f0:	030c3f01 	movweq	r3, #52993	; 0xcf01
  f4:	3b0b3a0e 	blcc	2ce934 <_bss_end+0x2c4934>
  f8:	110c270b 	tstne	ip, fp, lsl #14
  fc:	40011201 	andmi	r1, r1, r1, lsl #4
 100:	0c429606 	mcrreq	6, 0, r9, r2, cr6
 104:	00001301 	andeq	r1, r0, r1, lsl #6
 108:	11010b13 	tstne	r1, r3, lsl fp
 10c:	00011201 	andeq	r1, r1, r1, lsl #4
 110:	00341400 	eorseq	r1, r4, r0, lsl #8
 114:	0b3a0803 	bleq	e82128 <_bss_end+0xe78128>
 118:	13490b3b 	movtne	r0, #39739	; 0x9b3b
 11c:	00000a02 	andeq	r0, r0, r2, lsl #20
 120:	3f002e15 	svccc	0x00002e15
 124:	3a0e030c 	bcc	380d5c <_bss_end+0x376d5c>
 128:	270b3b0b 	strcs	r3, [fp, -fp, lsl #22]
 12c:	1113490c 	tstne	r3, ip, lsl #18
 130:	40011201 	andmi	r1, r1, r1, lsl #4
 134:	0c429606 	mcrreq	6, 0, r9, r2, cr6
 138:	34160000 	ldrcc	r0, [r6], #-0
 13c:	3a0e0300 	bcc	380d44 <_bss_end+0x376d44>
 140:	490b3b0b 	stmdbmi	fp, {r0, r1, r3, r8, r9, fp, ip, sp}
 144:	020c3f13 	andeq	r3, ip, #76	; 0x4c
 148:	1700000a 	strne	r0, [r0, -sl]
 14c:	08030034 	stmdaeq	r3, {r2, r4, r5}
 150:	0b3b0b3a 	bleq	ec2e40 <_bss_end+0xeb8e40>
 154:	0c3f1349 	ldceq	3, cr1, [pc], #-292	; 38 <_start-0x7fc8>
 158:	00000a02 	andeq	r0, r0, r2, lsl #20
 15c:	01110100 	tsteq	r1, r0, lsl #2
 160:	0b130e25 	bleq	4c39fc <_bss_end+0x4b99fc>
 164:	0e1b0e03 	cdpeq	14, 1, cr0, cr11, cr3, {0}
 168:	01120111 	tsteq	r2, r1, lsl r1
 16c:	00000610 	andeq	r0, r0, r0, lsl r6
 170:	3f002e02 	svccc	0x00002e02
 174:	3a0e030c 	bcc	380dac <_bss_end+0x376dac>
 178:	110b3b0b 	tstne	fp, fp, lsl #22
 17c:	40011201 	andmi	r1, r1, r1, lsl #4
 180:	0c429606 	mcrreq	6, 0, r9, r2, cr6
 184:	2e030000 	cdpcs	0, 0, cr0, cr3, cr0, {0}
 188:	030c3f01 	movweq	r3, #52993	; 0xcf01
 18c:	3b0b3a0e 	blcc	2ce9cc <_bss_end+0x2c49cc>
 190:	1201110b 	andne	r1, r1, #-1073741822	; 0xc0000002
 194:	96064001 	strls	r4, [r6], -r1
 198:	13010c42 	movwne	r0, #7234	; 0x1c42
 19c:	34040000 	strcc	r0, [r4], #-0
 1a0:	3a080300 	bcc	200da8 <_bss_end+0x1f6da8>
 1a4:	490b3b0b 	stmdbmi	fp, {r0, r1, r3, r8, r9, fp, ip, sp}
 1a8:	000a0213 	andeq	r0, sl, r3, lsl r2
 1ac:	00240500 	eoreq	r0, r4, r0, lsl #10
 1b0:	0b3e0b0b 	bleq	f82de4 <_bss_end+0xf78de4>
 1b4:	00000e03 	andeq	r0, r0, r3, lsl #28
 1b8:	3f012e06 	svccc	0x00012e06
 1bc:	3a0e030c 	bcc	380df4 <_bss_end+0x376df4>
 1c0:	110b3b0b 	tstne	fp, fp, lsl #22
 1c4:	40011201 	andmi	r1, r1, r1, lsl #4
 1c8:	0c429606 	mcrreq	6, 0, r9, r2, cr6
 1cc:	01000000 	mrseq	r0, (UNDEF: 0)
 1d0:	0e250111 	mcreq	1, 1, r0, cr5, cr1, {0}
 1d4:	0e030b13 	vmoveq.32	d3[0], r0
 1d8:	01110e1b 	tsteq	r1, fp, lsl lr
 1dc:	06100112 			; <UNDEFINED> instruction: 0x06100112
 1e0:	24020000 	strcs	r0, [r2], #-0
 1e4:	3e0b0b00 	vmlacc.f64	d0, d11, d0
 1e8:	000e030b 	andeq	r0, lr, fp, lsl #6
 1ec:	00160300 	andseq	r0, r6, r0, lsl #6
 1f0:	0b3a0e03 	bleq	e83a04 <_bss_end+0xe79a04>
 1f4:	13490b3b 	movtne	r0, #39739	; 0x9b3b
 1f8:	24040000 	strcs	r0, [r4], #-0
 1fc:	3e0b0b00 	vmlacc.f64	d0, d11, d0
 200:	0008030b 	andeq	r0, r8, fp, lsl #6
 204:	012e0500 	teqeq	lr, r0, lsl #10
 208:	0e030c3f 	mcreq	12, 0, r0, cr3, cr15, {1}
 20c:	0b3b0b3a 	bleq	ec2efc <_bss_end+0xeb8efc>
 210:	13490c27 	movtne	r0, #39975	; 0x9c27
 214:	01120111 	tsteq	r2, r1, lsl r1
 218:	42960640 	addsmi	r0, r6, #67108864	; 0x4000000
 21c:	0013010c 	andseq	r0, r3, ip, lsl #2
 220:	00050600 	andeq	r0, r5, r0, lsl #12
 224:	0b3a0e03 	bleq	e83a38 <_bss_end+0xe79a38>
 228:	13490b3b 	movtne	r0, #39739	; 0x9b3b
 22c:	00000a02 	andeq	r0, r0, r2, lsl #20
 230:	03003407 	movweq	r3, #1031	; 0x407
 234:	3b0b3a0e 	blcc	2cea74 <_bss_end+0x2c4a74>
 238:	0213490b 	andseq	r4, r3, #180224	; 0x2c000
 23c:	0800000a 	stmdaeq	r0, {r1, r3}
 240:	0655010b 	ldrbeq	r0, [r5], -fp, lsl #2
 244:	0f090000 	svceq	0x00090000
 248:	490b0b00 	stmdbmi	fp, {r8, r9, fp}
 24c:	0a000013 	beq	2a0 <_start-0x7d60>
 250:	0c3f012e 	ldfeqs	f0, [pc], #-184	; 1a0 <_start-0x7e60>
 254:	0b3a0e03 	bleq	e83a68 <_bss_end+0xe79a68>
 258:	0c270b3b 	stceq	11, cr0, [r7], #-236	; 0xffffff14
 25c:	01120111 	tsteq	r2, r1, lsl r1
 260:	42970640 	addsmi	r0, r7, #67108864	; 0x4000000
 264:	0013010c 	andseq	r0, r3, ip, lsl #2
 268:	01010b00 	tsteq	r1, r0, lsl #22
 26c:	13011349 	movwne	r1, #4937	; 0x1349
 270:	210c0000 	mrscs	r0, (UNDEF: 12)
 274:	2f134900 	svccs	0x00134900
 278:	0d000005 	stceq	0, cr0, [r0, #-20]	; 0xffffffec
 27c:	0e030034 	mcreq	0, 0, r0, cr3, cr4, {1}
 280:	0b3b0b3a 	bleq	ec2f70 <_bss_end+0xeb8f70>
 284:	0c3f1349 	ldceq	3, cr1, [pc], #-292	; 168 <_start-0x7e98>
 288:	00000a02 	andeq	r0, r0, r2, lsl #20
 28c:	01110100 	tsteq	r1, r0, lsl #2
 290:	0b130e25 	bleq	4c3b2c <_bss_end+0x4b9b2c>
 294:	0e1b0e03 	cdpeq	14, 1, cr0, cr11, cr3, {0}
 298:	01120111 	tsteq	r2, r1, lsl r1
 29c:	00000610 	andeq	r0, r0, r0, lsl r6
 2a0:	0b002402 	bleq	92b0 <heap+0x2a0>
 2a4:	030b3e0b 	movweq	r3, #48651	; 0xbe0b
 2a8:	0300000e 	movweq	r0, #14
 2ac:	0e030016 	mcreq	0, 0, r0, cr3, cr6, {0}
 2b0:	0b3b0b3a 	bleq	ec2fa0 <_bss_end+0xeb8fa0>
 2b4:	00001349 	andeq	r1, r0, r9, asr #6
 2b8:	0b002404 	bleq	92d0 <heap+0x2c0>
 2bc:	030b3e0b 	movweq	r3, #48651	; 0xbe0b
 2c0:	05000008 	streq	r0, [r0, #-8]
 2c4:	0b0b000f 	bleq	2c0308 <_bss_end+0x2b6308>
 2c8:	00001349 	andeq	r1, r0, r9, asr #6
 2cc:	27011506 	strcs	r1, [r1, -r6, lsl #10]
 2d0:	0013010c 	andseq	r0, r3, ip, lsl #2
 2d4:	00050700 	andeq	r0, r5, r0, lsl #14
 2d8:	00001349 	andeq	r1, r0, r9, asr #6
 2dc:	0b000f08 	bleq	3f04 <_start-0x40fc>
 2e0:	0900000b 	stmdbeq	r0, {r0, r1, r3}
 2e4:	0b0b0104 	bleq	2c06fc <_bss_end+0x2b66fc>
 2e8:	0b3b0b3a 	bleq	ec2fd8 <_bss_end+0xeb8fd8>
 2ec:	00001301 	andeq	r1, r0, r1, lsl #6
 2f0:	0300280a 	movweq	r2, #2058	; 0x80a
 2f4:	000d1c08 	andeq	r1, sp, r8, lsl #24
 2f8:	00280b00 	eoreq	r0, r8, r0, lsl #22
 2fc:	0d1c0e03 	ldceq	14, cr0, [ip, #-12]
 300:	130c0000 	movwne	r0, #49152	; 0xc000
 304:	0b0e0301 	bleq	380f10 <_bss_end+0x376f10>
 308:	3b0b3a0b 	blcc	2ceb3c <_bss_end+0x2c4b3c>
 30c:	0013010b 	andseq	r0, r3, fp, lsl #2
 310:	000d0d00 	andeq	r0, sp, r0, lsl #26
 314:	0b3a0e03 	bleq	e83b28 <_bss_end+0xe79b28>
 318:	13490b3b 	movtne	r0, #39739	; 0x9b3b
 31c:	00000a38 	andeq	r0, r0, r8, lsr sl
 320:	03000d0e 	movweq	r0, #3342	; 0xd0e
 324:	3b0b3a08 	blcc	2ceb4c <_bss_end+0x2c4b4c>
 328:	3813490b 	ldmdacc	r3, {r0, r1, r3, r8, fp, lr}
 32c:	0f00000a 	svceq	0x0000000a
 330:	0c3f002e 	ldceq	0, cr0, [pc], #-184	; 280 <_start-0x7d80>
 334:	0b3a0e03 	bleq	e83b48 <_bss_end+0xe79b48>
 338:	01110b3b 	tsteq	r1, fp, lsr fp
 33c:	06400112 			; <UNDEFINED> instruction: 0x06400112
 340:	000c4296 	muleq	ip, r6, r2
 344:	012e1000 	teqeq	lr, r0
 348:	0e030c3f 	mcreq	12, 0, r0, cr3, cr15, {1}
 34c:	0b3b0b3a 	bleq	ec303c <_bss_end+0xeb903c>
 350:	01110c27 	tsteq	r1, r7, lsr #24
 354:	06400112 			; <UNDEFINED> instruction: 0x06400112
 358:	010c4296 			; <UNDEFINED> instruction: 0x010c4296
 35c:	11000013 	tstne	r0, r3, lsl r0
 360:	08030005 	stmdaeq	r3, {r0, r2}
 364:	0b3b0b3a 	bleq	ec3054 <_bss_end+0xeb9054>
 368:	0a021349 	beq	85094 <_bss_end+0x7b094>
 36c:	05120000 	ldreq	r0, [r2, #-0]
 370:	3a0e0300 	bcc	380f78 <_bss_end+0x376f78>
 374:	490b3b0b 	stmdbmi	fp, {r0, r1, r3, r8, r9, fp, ip, sp}
 378:	000a0213 	andeq	r0, sl, r3, lsl r2
 37c:	00341300 	eorseq	r1, r4, r0, lsl #6
 380:	0b3a0803 	bleq	e82394 <_bss_end+0xe78394>
 384:	13490b3b 	movtne	r0, #39739	; 0x9b3b
 388:	00000a02 	andeq	r0, r0, r2, lsl #20
 38c:	3f012e14 	svccc	0x00012e14
 390:	3a0e030c 	bcc	380fc8 <_bss_end+0x376fc8>
 394:	110b3b0b 	tstne	fp, fp, lsl #22
 398:	40011201 	andmi	r1, r1, r1, lsl #4
 39c:	0c42960a 	mcrreq	6, 0, r9, r2, cr10
 3a0:	00001301 	andeq	r1, r0, r1, lsl #6
 3a4:	03003415 	movweq	r3, #1045	; 0x415
 3a8:	3b0b3a0e 	blcc	2cebe8 <_bss_end+0x2c4be8>
 3ac:	0213490b 	andseq	r4, r3, #180224	; 0x2c000
 3b0:	1600000a 	strne	r0, [r0], -sl
 3b4:	0111010b 	tsteq	r1, fp, lsl #2
 3b8:	00000112 	andeq	r0, r0, r2, lsl r1
 3bc:	3f012e17 	svccc	0x00012e17
 3c0:	3a0e030c 	bcc	380ff8 <_bss_end+0x376ff8>
 3c4:	270b3b0b 	strcs	r3, [fp, -fp, lsl #22]
 3c8:	1201110c 	andne	r1, r1, #3
 3cc:	97064001 	strls	r4, [r6, -r1]
 3d0:	13010c42 	movwne	r0, #7234	; 0x1c42
 3d4:	34180000 	ldrcc	r0, [r8], #-0
 3d8:	3a0e0300 	bcc	380fe0 <_bss_end+0x376fe0>
 3dc:	490b3b0b 	stmdbmi	fp, {r0, r1, r3, r8, r9, fp, ip, sp}
 3e0:	020c3f13 	andeq	r3, ip, #76	; 0x4c
 3e4:	0000000a 	andeq	r0, r0, sl
 3e8:	25011101 	strcs	r1, [r1, #-257]	; 0x101
 3ec:	030b130e 	movweq	r1, #45838	; 0xb30e
 3f0:	110e1b0e 	tstne	lr, lr, lsl #22
 3f4:	10011201 	andne	r1, r1, r1, lsl #4
 3f8:	02000006 	andeq	r0, r0, #6
 3fc:	0b0b0024 	bleq	2c0494 <_bss_end+0x2b6494>
 400:	0e030b3e 	vmoveq.16	d3[0], r0
 404:	16030000 	strne	r0, [r3], -r0
 408:	3a0e0300 	bcc	381010 <_bss_end+0x377010>
 40c:	490b3b0b 	stmdbmi	fp, {r0, r1, r3, r8, r9, fp, ip, sp}
 410:	04000013 	streq	r0, [r0], #-19
 414:	0b0b0024 	bleq	2c04ac <_bss_end+0x2b64ac>
 418:	08030b3e 	stmdaeq	r3, {r1, r2, r3, r4, r5, r8, r9, fp}
 41c:	0f050000 	svceq	0x00050000
 420:	490b0b00 	stmdbmi	fp, {r8, r9, fp}
 424:	06000013 			; <UNDEFINED> instruction: 0x06000013
 428:	0c270115 	stfeqs	f0, [r7], #-84	; 0xffffffac
 42c:	00001301 	andeq	r1, r0, r1, lsl #6
 430:	49000507 	stmdbmi	r0, {r0, r1, r2, r8, sl}
 434:	08000013 	stmdaeq	r0, {r0, r1, r4}
 438:	0b0b000f 	bleq	2c047c <_bss_end+0x2b647c>
 43c:	04090000 	streq	r0, [r9], #-0
 440:	3a0b0b01 	bcc	2c304c <_bss_end+0x2b904c>
 444:	010b3b0b 	tsteq	fp, fp, lsl #22
 448:	0a000013 	beq	49c <_start-0x7b64>
 44c:	08030028 	stmdaeq	r3, {r3, r5}
 450:	00000d1c 	andeq	r0, r0, ip, lsl sp
 454:	0300280b 	movweq	r2, #2059	; 0x80b
 458:	000d1c0e 	andeq	r1, sp, lr, lsl #24
 45c:	01130c00 	tsteq	r3, r0, lsl #24
 460:	0b0b0e03 	bleq	2c3c74 <_bss_end+0x2b9c74>
 464:	0b3b0b3a 	bleq	ec3154 <_bss_end+0xeb9154>
 468:	00001301 	andeq	r1, r0, r1, lsl #6
 46c:	03000d0d 	movweq	r0, #3341	; 0xd0d
 470:	3b0b3a0e 	blcc	2cecb0 <_bss_end+0x2c4cb0>
 474:	3813490b 	ldmdacc	r3, {r0, r1, r3, r8, fp, lr}
 478:	0e00000a 	cdpeq	0, 0, cr0, cr0, cr10, {0}
 47c:	0803000d 	stmdaeq	r3, {r0, r2, r3}
 480:	0b3b0b3a 	bleq	ec3170 <_bss_end+0xeb9170>
 484:	0a381349 	beq	e051b0 <_bss_end+0xdfb1b0>
 488:	2e0f0000 	cdpcs	0, 0, cr0, cr15, cr0, {0}
 48c:	030c3f01 	movweq	r3, #52993	; 0xcf01
 490:	3b0b3a0e 	blcc	2cecd0 <_bss_end+0x2c4cd0>
 494:	110c270b 	tstne	ip, fp, lsl #14
 498:	40011201 	andmi	r1, r1, r1, lsl #4
 49c:	0c429606 	mcrreq	6, 0, r9, r2, cr6
 4a0:	00001301 	andeq	r1, r0, r1, lsl #6
 4a4:	03000510 	movweq	r0, #1296	; 0x510
 4a8:	3b0b3a08 	blcc	2cecd0 <_bss_end+0x2c4cd0>
 4ac:	0213490b 	andseq	r4, r3, #180224	; 0x2c000
 4b0:	1100000a 	tstne	r0, sl
 4b4:	0111010b 	tsteq	r1, fp, lsl #2
 4b8:	00000112 	andeq	r0, r0, r2, lsl r1
 4bc:	03003412 	movweq	r3, #1042	; 0x412
 4c0:	3b0b3a0e 	blcc	2ced00 <_bss_end+0x2c4d00>
 4c4:	0213490b 	andseq	r4, r3, #180224	; 0x2c000
 4c8:	1300000a 	movwne	r0, #10
 4cc:	0e030005 	cdpeq	0, 0, cr0, cr3, cr5, {0}
 4d0:	0b3b0b3a 	bleq	ec31c0 <_bss_end+0xeb91c0>
 4d4:	0a021349 	beq	85200 <_bss_end+0x7b200>
 4d8:	34140000 	ldrcc	r0, [r4], #-0
 4dc:	3a0e0300 	bcc	3810e4 <_bss_end+0x3770e4>
 4e0:	490b3b0b 	stmdbmi	fp, {r0, r1, r3, r8, r9, fp, ip, sp}
 4e4:	020c3f13 	andeq	r3, ip, #76	; 0x4c
 4e8:	0000000a 	andeq	r0, r0, sl

Disassembly of section .debug_aranges:

00000000 <.debug_aranges>:
   0:	0000001c 	andeq	r0, r0, ip, lsl r0
   4:	00000002 	andeq	r0, r0, r2
   8:	00040000 	andeq	r0, r4, r0
   c:	00000000 	andeq	r0, r0, r0
  10:	00008000 	andeq	r8, r0, r0
  14:	000000d0 	ldrdeq	r0, [r0], -r0	; <UNPREDICTABLE>
	...
  20:	0000001c 	andeq	r0, r0, ip, lsl r0
  24:	005f0002 	subseq	r0, pc, r2
  28:	00040000 	andeq	r0, r4, r0
  2c:	00000000 	andeq	r0, r0, r0
  30:	000080d0 	ldrdeq	r8, [r0], -r0
  34:	00000190 	muleq	r0, r0, r1
	...
  40:	0000001c 	andeq	r0, r0, ip, lsl r0
  44:	03570002 	cmpeq	r7, #2
  48:	00040000 	andeq	r0, r4, r0
  4c:	00000000 	andeq	r0, r0, r0
  50:	00008260 	andeq	r8, r0, r0, ror #4
  54:	00000134 	andeq	r0, r0, r4, lsr r1
	...
  60:	0000001c 	andeq	r0, r0, ip, lsl r0
  64:	042f0002 	strteq	r0, [pc], #-2	; 6c <_start-0x7f94>
  68:	00040000 	andeq	r0, r4, r0
  6c:	00000000 	andeq	r0, r0, r0
  70:	00008394 	muleq	r0, r4, r3
  74:	00000300 	andeq	r0, r0, r0, lsl #6
	...
  80:	0000001c 	andeq	r0, r0, ip, lsl r0
  84:	06060002 	streq	r0, [r6], -r2
  88:	00040000 	andeq	r0, r4, r0
  8c:	00000000 	andeq	r0, r0, r0
  90:	00008694 	muleq	r0, r4, r6
  94:	00000360 	andeq	r0, r0, r0, ror #6
	...
  a0:	0000001c 	andeq	r0, r0, ip, lsl r0
  a4:	08180002 	ldmdaeq	r8, {r1}
  a8:	00040000 	andeq	r0, r4, r0
  ac:	00000000 	andeq	r0, r0, r0
  b0:	000089f4 	strdeq	r8, [r0], -r4
  b4:	00000340 	andeq	r0, r0, r0, asr #6
	...

Disassembly of section .debug_loc:

00000000 <.debug_loc>:
   0:	00000000 	andeq	r0, r0, r0
   4:	00000004 	andeq	r0, r0, r4
   8:	007d0002 	rsbseq	r0, sp, r2
   c:	00000004 	andeq	r0, r0, r4
  10:	00000034 	andeq	r0, r0, r4, lsr r0
  14:	107d0002 	rsbsne	r0, sp, r2
	...
  20:	00000034 	andeq	r0, r0, r4, lsr r0
  24:	00000038 	andeq	r0, r0, r8, lsr r0
  28:	007d0002 	rsbseq	r0, sp, r2
  2c:	00000038 	andeq	r0, r0, r8, lsr r0
  30:	00000054 	andeq	r0, r0, r4, asr r0
  34:	107d0002 	rsbsne	r0, sp, r2
	...
  40:	00000054 	andeq	r0, r0, r4, asr r0
  44:	00000058 	andeq	r0, r0, r8, asr r0
  48:	007d0002 	rsbseq	r0, sp, r2
  4c:	00000058 	andeq	r0, r0, r8, asr r0
  50:	0000005c 	andeq	r0, r0, ip, asr r0
  54:	047d0002 	ldrbteq	r0, [sp], #-2
  58:	0000005c 	andeq	r0, r0, ip, asr r0
  5c:	000000cc 	andeq	r0, r0, ip, asr #1
  60:	187d0002 	ldmdane	sp!, {r1}^
	...
  6c:	000000cc 	andeq	r0, r0, ip, asr #1
  70:	000000d0 	ldrdeq	r0, [r0], -r0	; <UNPREDICTABLE>
  74:	007d0002 	rsbseq	r0, sp, r2
  78:	000000d0 	ldrdeq	r0, [r0], -r0	; <UNPREDICTABLE>
  7c:	000000d4 	ldrdeq	r0, [r0], -r4
  80:	047d0002 	ldrbteq	r0, [sp], #-2
  84:	000000d4 	ldrdeq	r0, [r0], -r4
  88:	0000014c 	andeq	r0, r0, ip, asr #2
  8c:	187d0002 	ldmdane	sp!, {r1}^
	...
  98:	0000014c 	andeq	r0, r0, ip, asr #2
  9c:	00000150 	andeq	r0, r0, r0, asr r1
  a0:	007d0002 	rsbseq	r0, sp, r2
  a4:	00000150 	andeq	r0, r0, r0, asr r1
  a8:	00000190 	muleq	r0, r0, r1
  ac:	087d0002 	ldmdaeq	sp!, {r1}^
	...
  bc:	00000004 	andeq	r0, r0, r4
  c0:	007d0002 	rsbseq	r0, sp, r2
  c4:	00000004 	andeq	r0, r0, r4
  c8:	00000018 	andeq	r0, r0, r8, lsl r0
  cc:	087d0002 	ldmdaeq	sp!, {r1}^
	...
  d8:	00000018 	andeq	r0, r0, r8, lsl r0
  dc:	0000001c 	andeq	r0, r0, ip, lsl r0
  e0:	007d0002 	rsbseq	r0, sp, r2
  e4:	0000001c 	andeq	r0, r0, ip, lsl r0
  e8:	00000030 	andeq	r0, r0, r0, lsr r0
  ec:	087d0002 	ldmdaeq	sp!, {r1}^
	...
  f8:	00000030 	andeq	r0, r0, r0, lsr r0
  fc:	00000034 	andeq	r0, r0, r4, lsr r0
 100:	007d0002 	rsbseq	r0, sp, r2
 104:	00000034 	andeq	r0, r0, r4, lsr r0
 108:	00000038 	andeq	r0, r0, r8, lsr r0
 10c:	047d0002 	ldrbteq	r0, [sp], #-2
 110:	00000038 	andeq	r0, r0, r8, lsr r0
 114:	00000070 	andeq	r0, r0, r0, ror r0
 118:	107d0002 	rsbsne	r0, sp, r2
	...
 124:	00000070 	andeq	r0, r0, r0, ror r0
 128:	00000074 	andeq	r0, r0, r4, ror r0
 12c:	007d0002 	rsbseq	r0, sp, r2
 130:	00000074 	andeq	r0, r0, r4, ror r0
 134:	00000088 	andeq	r0, r0, r8, lsl #1
 138:	087d0002 	ldmdaeq	sp!, {r1}^
	...
 144:	00000088 	andeq	r0, r0, r8, lsl #1
 148:	0000008c 	andeq	r0, r0, ip, lsl #1
 14c:	007d0002 	rsbseq	r0, sp, r2
 150:	0000008c 	andeq	r0, r0, ip, lsl #1
 154:	000000a0 	andeq	r0, r0, r0, lsr #1
 158:	087d0002 	ldmdaeq	sp!, {r1}^
	...
 164:	000000a0 	andeq	r0, r0, r0, lsr #1
 168:	000000a4 	andeq	r0, r0, r4, lsr #1
 16c:	007d0002 	rsbseq	r0, sp, r2
 170:	000000a4 	andeq	r0, r0, r4, lsr #1
 174:	000000a8 	andeq	r0, r0, r8, lsr #1
 178:	047d0002 	ldrbteq	r0, [sp], #-2
 17c:	000000a8 	andeq	r0, r0, r8, lsr #1
 180:	00000134 	andeq	r0, r0, r4, lsr r1
 184:	107d0002 	rsbsne	r0, sp, r2
	...
 194:	00000004 	andeq	r0, r0, r4
 198:	007d0002 	rsbseq	r0, sp, r2
 19c:	00000004 	andeq	r0, r0, r4
 1a0:	00000008 	andeq	r0, r0, r8
 1a4:	047d0002 	ldrbteq	r0, [sp], #-2
 1a8:	00000008 	andeq	r0, r0, r8
 1ac:	00000148 	andeq	r0, r0, r8, asr #2
 1b0:	207d0002 	rsbscs	r0, sp, r2
	...
 1bc:	00000148 	andeq	r0, r0, r8, asr #2
 1c0:	0000014c 	andeq	r0, r0, ip, asr #2
 1c4:	007d0002 	rsbseq	r0, sp, r2
 1c8:	0000014c 	andeq	r0, r0, ip, asr #2
 1cc:	00000150 	andeq	r0, r0, r0, asr r1
 1d0:	047d0002 	ldrbteq	r0, [sp], #-2
 1d4:	00000150 	andeq	r0, r0, r0, asr r1
 1d8:	000001a0 	andeq	r0, r0, r0, lsr #3
 1dc:	107d0002 	rsbsne	r0, sp, r2
	...
 1e8:	000001a0 	andeq	r0, r0, r0, lsr #3
 1ec:	000001a4 	andeq	r0, r0, r4, lsr #3
 1f0:	007d0002 	rsbseq	r0, sp, r2
 1f4:	000001a4 	andeq	r0, r0, r4, lsr #3
 1f8:	00000220 	andeq	r0, r0, r0, lsr #4
 1fc:	087d0002 	ldmdaeq	sp!, {r1}^
	...
 208:	00000220 	andeq	r0, r0, r0, lsr #4
 20c:	00000224 	andeq	r0, r0, r4, lsr #4
 210:	007d0002 	rsbseq	r0, sp, r2
 214:	00000224 	andeq	r0, r0, r4, lsr #4
 218:	000002c4 	andeq	r0, r0, r4, asr #5
 21c:	087d0002 	ldmdaeq	sp!, {r1}^
	...
 228:	000002c4 	andeq	r0, r0, r4, asr #5
 22c:	000002c8 	andeq	r0, r0, r8, asr #5
 230:	007d0002 	rsbseq	r0, sp, r2
 234:	000002c8 	andeq	r0, r0, r8, asr #5
 238:	00000300 	andeq	r0, r0, r0, lsl #6
 23c:	087d0002 	ldmdaeq	sp!, {r1}^
	...
 24c:	00000004 	andeq	r0, r0, r4
 250:	007d0002 	rsbseq	r0, sp, r2
 254:	00000004 	andeq	r0, r0, r4
 258:	00000038 	andeq	r0, r0, r8, lsr r0
 25c:	087d0002 	ldmdaeq	sp!, {r1}^
	...
 268:	00000038 	andeq	r0, r0, r8, lsr r0
 26c:	0000003c 	andeq	r0, r0, ip, lsr r0
 270:	007d0002 	rsbseq	r0, sp, r2
 274:	0000003c 	andeq	r0, r0, ip, lsr r0
 278:	00000040 	andeq	r0, r0, r0, asr #32
 27c:	047d0002 	ldrbteq	r0, [sp], #-2
 280:	00000040 	andeq	r0, r0, r0, asr #32
 284:	00000130 	andeq	r0, r0, r0, lsr r1
 288:	187d0002 	ldmdane	sp!, {r1}^
	...
 294:	00000314 	andeq	r0, r0, r4, lsl r3
 298:	00000318 	andeq	r0, r0, r8, lsl r3
 29c:	007d0002 	rsbseq	r0, sp, r2
 2a0:	00000318 	andeq	r0, r0, r8, lsl r3
 2a4:	00000360 	andeq	r0, r0, r0, ror #6
 2a8:	087d0002 	ldmdaeq	sp!, {r1}^
	...
 2b8:	00000004 	andeq	r0, r0, r4
 2bc:	007d0002 	rsbseq	r0, sp, r2
 2c0:	00000004 	andeq	r0, r0, r4
 2c4:	00000008 	andeq	r0, r0, r8
 2c8:	047d0002 	ldrbteq	r0, [sp], #-2
 2cc:	00000008 	andeq	r0, r0, r8
 2d0:	0000005c 	andeq	r0, r0, ip, asr r0
 2d4:	107d0002 	rsbsne	r0, sp, r2
	...
 2e0:	0000005c 	andeq	r0, r0, ip, asr r0
 2e4:	00000060 	andeq	r0, r0, r0, rrx
 2e8:	007d0002 	rsbseq	r0, sp, r2
 2ec:	00000060 	andeq	r0, r0, r0, rrx
 2f0:	00000064 	andeq	r0, r0, r4, rrx
 2f4:	047d0002 	ldrbteq	r0, [sp], #-2
 2f8:	00000064 	andeq	r0, r0, r4, rrx
 2fc:	00000104 	andeq	r0, r0, r4, lsl #2
 300:	187d0002 	ldmdane	sp!, {r1}^
	...
 30c:	00000104 	andeq	r0, r0, r4, lsl #2
 310:	00000108 	andeq	r0, r0, r8, lsl #2
 314:	007d0002 	rsbseq	r0, sp, r2
 318:	00000108 	andeq	r0, r0, r8, lsl #2
 31c:	0000010c 	andeq	r0, r0, ip, lsl #2
 320:	047d0002 	ldrbteq	r0, [sp], #-2
 324:	0000010c 	andeq	r0, r0, ip, lsl #2
 328:	0000022c 	andeq	r0, r0, ip, lsr #4
 32c:	187d0002 	ldmdane	sp!, {r1}^
	...
 338:	0000022c 	andeq	r0, r0, ip, lsr #4
 33c:	00000230 	andeq	r0, r0, r0, lsr r2
 340:	007d0002 	rsbseq	r0, sp, r2
 344:	00000230 	andeq	r0, r0, r0, lsr r2
 348:	00000234 	andeq	r0, r0, r4, lsr r2
 34c:	047d0002 	ldrbteq	r0, [sp], #-2
 350:	00000234 	andeq	r0, r0, r4, lsr r2
 354:	00000278 	andeq	r0, r0, r8, ror r2
 358:	107d0002 	rsbsne	r0, sp, r2
	...
 364:	00000278 	andeq	r0, r0, r8, ror r2
 368:	0000027c 	andeq	r0, r0, ip, ror r2
 36c:	007d0002 	rsbseq	r0, sp, r2
 370:	0000027c 	andeq	r0, r0, ip, ror r2
 374:	00000280 	andeq	r0, r0, r0, lsl #5
 378:	047d0002 	ldrbteq	r0, [sp], #-2
 37c:	00000280 	andeq	r0, r0, r0, lsl #5
 380:	000002d8 	ldrdeq	r0, [r0], -r8
 384:	107d0002 	rsbsne	r0, sp, r2
	...
 390:	000002d8 	ldrdeq	r0, [r0], -r8
 394:	000002dc 	ldrdeq	r0, [r0], -ip
 398:	007d0002 	rsbseq	r0, sp, r2
 39c:	000002dc 	ldrdeq	r0, [r0], -ip
 3a0:	000002e0 	andeq	r0, r0, r0, ror #5
 3a4:	047d0002 	ldrbteq	r0, [sp], #-2
 3a8:	000002e0 	andeq	r0, r0, r0, ror #5
 3ac:	00000340 	andeq	r0, r0, r0, asr #6
 3b0:	107d0002 	rsbsne	r0, sp, r2
	...

Disassembly of section .debug_str:

00000000 <.debug_str>:
   0:	41747063 	cmnmi	r4, r3, rrx
   4:	74706300 	ldrbtvc	r6, [r0], #-768	; 0x300
   8:	69740042 	ldmdbvs	r4!, {r1, r6}^
   c:	00736b63 	rsbseq	r6, r3, r3, ror #22
  10:	7478656e 	ldrbtvc	r6, [r8], #-1390	; 0x56e
  14:	61747300 	cmnvs	r4, r0, lsl #6
  18:	57006574 	smlsdxpl	r0, r4, r5, r6
  1c:	49544941 	ldmdbmi	r4, {r0, r6, r8, fp, lr}^
  20:	2f00474e 	svccs	0x0000474e
  24:	656d6f68 	strbvs	r6, [sp, #-3944]!	; 0xf68
  28:	616b612f 	cmnvs	fp, pc, lsr #2
  2c:	616b6863 	cmnvs	fp, r3, ror #16
  30:	772f6863 	strvc	r6, [pc, -r3, ror #16]!
  34:	736b726f 	cmnvc	fp, #-268435450	; 0xf0000006
  38:	65636170 	strbvs	r6, [r3, #-368]!	; 0x170
  3c:	6f72702f 	svcvs	0x0072702f
  40:	73736563 	cmnvc	r3, #415236096	; 0x18c00000
  44:	6863732d 	stmdavs	r3!, {r0, r2, r3, r5, r8, r9, ip, sp, lr}^
  48:	6c756465 	cfldrdvs	mvd6, [r5], #-404	; 0xfffffe6c
  4c:	6f2f7265 	svcvs	0x002f7265
  50:	6e650073 	mcrvs	0, 3, r0, cr5, cr3, {3}
  54:	5f797274 	svcpl	0x00797274
  58:	6e696f70 	mcrvs	15, 3, r6, cr9, cr0, {3}
  5c:	72700074 	rsbsvc	r0, r0, #116	; 0x74
  60:	7453636f 	ldrbvc	r6, [r3], #-879	; 0x36f
  64:	00657461 	rsbeq	r7, r5, r1, ror #8
  68:	6d746f6e 	ldclvs	15, cr6, [r4, #-440]!	; 0xfffffe48
  6c:	2e6e6961 	cdpcs	9, 6, cr6, cr14, cr1, {3}
  70:	75660063 	strbvc	r0, [r6, #-99]!	; 0x63
  74:	6e4f636e 	cdpvs	3, 4, cr6, cr15, cr14, {3}
  78:	4c530065 	mrrcmi	0, 6, r0, r3, cr5
  7c:	49504545 	ldmdbmi	r0, {r0, r2, r6, r8, sl, lr}^
  80:	7000474e 	andvc	r4, r0, lr, asr #14
  84:	735f6263 	cmpvc	pc, #805306374	; 0x30000006
  88:	736e7500 	cmnvc	lr, #0
  8c:	656e6769 	strbvs	r6, [lr, #-1897]!	; 0x769
  90:	68632064 	stmdavs	r3!, {r2, r5, r6, sp}^
  94:	6e007261 	cdpvs	2, 0, cr7, cr0, cr1, {3}
  98:	616d746f 	cmnvs	sp, pc, ror #8
  9c:	73006e69 	movwvc	r6, #3689	; 0xe69
  a0:	74726f68 	ldrbtvc	r6, [r2], #-3944	; 0xf68
  a4:	736e7520 	cmnvc	lr, #134217728	; 0x8000000
  a8:	656e6769 	strbvs	r6, [lr, #-1897]!	; 0x769
  ac:	6e692064 	cdpvs	0, 6, cr2, cr9, cr4, {3}
  b0:	61770074 	cmnvs	r7, r4, ror r0
  b4:	6e697469 	cdpvs	4, 6, cr7, cr9, cr9, {3}
  b8:	72705f67 	rsbsvc	r5, r0, #412	; 0x19c
  bc:	7365636f 	cmnvc	r5, #-1140850687	; 0xbc000001
  c0:	65730073 	ldrbvs	r0, [r3, #-115]!	; 0x73
  c4:	00735f6d 	rsbseq	r5, r3, sp, ror #30
  c8:	636e7566 	cmnvs	lr, #427819008	; 0x19800000
  cc:	75660041 	strbvc	r0, [r6, #-65]!	; 0x41
  d0:	0042636e 	subeq	r6, r2, lr, ror #6
  d4:	5f6d6573 	svcpl	0x006d6573
  d8:	74736574 	ldrbtvc	r6, [r3], #-1396	; 0x574
  dc:	72756300 	rsbsvc	r6, r5, #0
  e0:	746e6572 	strbtvc	r6, [lr], #-1394	; 0x572
  e4:	6f72705f 	svcvs	0x0072705f
  e8:	73736563 	cmnvc	r3, #415236096	; 0x18c00000
  ec:	6e6f6c00 	cdpvs	12, 6, cr6, cr15, cr0, {0}
  f0:	6f6c2067 	svcvs	0x006c2067
  f4:	7520676e 	strvc	r6, [r0, #-1902]!	; 0x76e
  f8:	6769736e 	strbvs	r7, [r9, -lr, ror #6]!
  fc:	2064656e 	rsbcs	r6, r4, lr, ror #10
 100:	00746e69 	rsbseq	r6, r4, r9, ror #28
 104:	636e7566 	cmnvs	lr, #427819008	; 0x19800000
 108:	6c00745f 	cfstrsvs	mvf7, [r0], {95}	; 0x5f
 10c:	20676e6f 	rsbcs	r6, r7, pc, ror #28
 110:	676e6f6c 	strbvs	r6, [lr, -ip, ror #30]!
 114:	746e6920 	strbtvc	r6, [lr], #-2336	; 0x920
 118:	65757100 	ldrbvs	r7, [r5, #-256]!	; 0x100
 11c:	47006575 	smlsdxmi	r0, r5, r5, r6
 120:	4320554e 	teqmi	r0, #327155712	; 0x13800000
 124:	372e3420 	strcc	r3, [lr, -r0, lsr #8]!
 128:	6c00312e 	stfvss	f3, [r0], {46}	; 0x2e
 12c:	5f747361 	svcpl	0x00747361
 130:	636f7270 	cmnvs	pc, #7
 134:	00737365 	rsbseq	r7, r3, r5, ror #6
 138:	636e7566 	cmnvs	lr, #427819008	; 0x19800000
 13c:	006f7754 	rsbeq	r7, pc, r4, asr r7	; <UNPREDICTABLE>
 140:	74696177 	strbtvc	r6, [r9], #-375	; 0x177
 144:	00676e69 	rsbeq	r6, r7, r9, ror #28
 148:	726f6873 	rsbvc	r6, pc, #7536640	; 0x730000
 14c:	6e692074 	mcrvs	0, 3, r2, cr9, cr4, {3}
 150:	72610074 	rsbvc	r0, r1, #116	; 0x74
 154:	75007367 	strvc	r7, [r0, #-871]	; 0x367
 158:	33746e69 	cmncc	r4, #1680	; 0x690
 15c:	00745f32 	rsbseq	r5, r4, r2, lsr pc
 160:	4e4e5552 	mcrmi	5, 2, r5, cr14, cr2, {2}
 164:	00474e49 	subeq	r4, r7, r9, asr #28
 168:	4d524554 	cfldr64mi	mvdx4, [r2, #-336]	; 0xfffffeb0
 16c:	54414e49 	strbpl	r4, [r1], #-3657	; 0xe49
 170:	70004445 	andvc	r4, r0, r5, asr #8
 174:	00766572 	rsbseq	r6, r6, r2, ror r5
 178:	74696e69 	strbtvc	r6, [r9], #-3689	; 0xe69
 17c:	0077685f 	rsbseq	r6, r7, pc, asr r8
 180:	61736964 	cmnvs	r3, r4, ror #18
 184:	5f656c62 	svcpl	0x00656c62
 188:	656d6974 	strbvs	r6, [sp, #-2420]!	; 0x974
 18c:	72695f72 	rsbvc	r5, r9, #456	; 0x1c8
 190:	77680071 			; <UNDEFINED> instruction: 0x77680071
 194:	6c00632e 	stcvs	3, cr6, [r0], {46}	; 0x2e
 198:	6f5f6465 	svcvs	0x005f6465
 19c:	6573006e 	ldrbvs	r0, [r3, #-110]!	; 0x6e
 1a0:	656e5f74 	strbvs	r5, [lr, #-3956]!	; 0xf74
 1a4:	745f7478 	ldrbvc	r7, [pc], #-1144	; 1ac <_start-0x7e54>
 1a8:	5f6b6369 	svcpl	0x006b6369
 1ac:	5f646e61 	svcpl	0x00646e61
 1b0:	62616e65 	rsbvs	r6, r1, #1616	; 0x650
 1b4:	745f656c 	ldrbvc	r6, [pc], #-1388	; 1bc <_start-0x7e44>
 1b8:	72656d69 	rsbvc	r6, r5, #6720	; 0x1a40
 1bc:	7172695f 	cmnvc	r2, pc, asr r9
 1c0:	64656c00 	strbtvs	r6, [r5], #-3072	; 0xc00
 1c4:	66666f5f 	uqsaxvs	r6, r6, pc	; <UNPREDICTABLE>
 1c8:	6d656d00 	stclvs	13, cr6, [r5, #-0]
 1cc:	5f79726f 	svcpl	0x0079726f
 1d0:	6d656c65 	stclvs	12, cr6, [r5, #-404]!	; 0xfffffe6c
 1d4:	5f746e65 	svcpl	0x00746e65
 1d8:	73690074 	cmnvc	r9, #116	; 0x74
 1dc:	74696e49 	strbtvc	r6, [r9], #-3657	; 0xe49
 1e0:	696c6169 	stmdbvs	ip!, {r0, r3, r5, r6, r8, sp, lr}^
 1e4:	00646573 	rsbeq	r6, r4, r3, ror r5
 1e8:	65657246 	strbvs	r7, [r5, #-582]!	; 0x246
 1ec:	6f6c6c41 	svcvs	0x006c6c41
 1f0:	65746163 	ldrbvs	r6, [r4, #-355]!	; 0x163
 1f4:	6d654d64 	stclvs	13, cr4, [r5, #-400]!	; 0xfffffe70
 1f8:	0079726f 	rsbseq	r7, r9, pc, ror #4
 1fc:	6f6c6c41 	svcvs	0x006c6c41
 200:	65746163 	ldrbvs	r6, [r4, #-355]!	; 0x163
 204:	6f6d654d 	svcvs	0x006d654d
 208:	63007972 	movwvs	r7, #2418	; 0x972
 20c:	61636e6f 	cmnvs	r3, pc, ror #28
 210:	616e6574 	smcvs	58964	; 0xe654
 214:	72466574 	subvc	r6, r6, #486539264	; 0x1d000000
 218:	6c426565 	cfstr64vs	mvdx6, [r2], {101}	; 0x65
 21c:	736b636f 	cmnvc	fp, #-1140850687	; 0xbc000001
 220:	6c6c6100 	stfvse	f6, [ip], #-0
 224:	7461636f 	strbtvc	r6, [r1], #-879	; 0x36f
 228:	6d654d65 	stclvs	13, cr4, [r5, #-404]!	; 0xfffffe6c
 22c:	2e79726f 	cdpcs	2, 7, cr7, cr9, cr15, {3}
 230:	72630063 	rsbvc	r0, r3, #99	; 0x63
 234:	65746165 	ldrbvs	r6, [r4, #-357]!	; 0x165
 238:	64616548 	strbtvs	r6, [r1], #-1352	; 0x548
 23c:	73007265 	movwvc	r7, #613	; 0x265
 240:	4f657a69 	svcmi	0x00657a69
 244:	65724666 	ldrbvs	r4, [r2, #-1638]!	; 0x666
 248:	61705365 	cmnvs	r0, r5, ror #6
 24c:	61006563 	tstvs	r0, r3, ror #10
 250:	65726464 	ldrbvs	r6, [r2, #-1124]!	; 0x464
 254:	68007373 	stmdavs	r0, {r0, r1, r4, r5, r6, r8, r9, ip, sp, lr}
 258:	00706165 	rsbseq	r6, r0, r5, ror #2
 25c:	657a6973 	ldrbvs	r6, [sl, #-2419]!	; 0x973
 260:	65707974 	ldrbvs	r7, [r0, #-2420]!	; 0x974
 264:	61656800 	cmnvs	r5, r0, lsl #16
 268:	4e726564 	cdpmi	5, 7, cr6, cr2, cr4, {3}
 26c:	50747865 	rsbspl	r7, r4, r5, ror #16
 270:	746e696f 	strbtvc	r6, [lr], #-2415	; 0x96f
 274:	63007265 	movwvs	r7, #613	; 0x265
 278:	74616572 	strbtvc	r6, [r1], #-1394	; 0x572
 27c:	696e4965 	stmdbvs	lr!, {r0, r2, r5, r6, r8, fp, lr}^
 280:	6c616974 	stclvs	9, cr6, [r1], #-464	; 0xfffffe30
 284:	64616548 	strbtvs	r6, [r1], #-1352	; 0x548
 288:	69007265 	stmdbvs	r0, {r0, r2, r5, r6, r9, ip, sp, lr}
 28c:	756f4673 	strbvc	r4, [pc, #-1651]!	; fffffc21 <_bss_end+0xffff5c21>
 290:	7300646e 	movwvc	r6, #1134	; 0x46e
 294:	00657a69 	rsbeq	r7, r5, r9, ror #20
 298:	6d726574 	cfldr64vs	mvdx6, [r2, #-464]!	; 0xfffffe30
 29c:	74616e69 	strbtvc	r6, [r1], #-3689	; 0xe69
 2a0:	705f6465 	subsvc	r6, pc, r5, ror #8
 2a4:	00636f72 	rsbeq	r6, r3, r2, ror pc
 2a8:	65686373 	strbvs	r6, [r8, #-883]!	; 0x373
 2ac:	00632e64 	rsbeq	r2, r3, r4, ror #28
 2b0:	72617473 	rsbvc	r7, r1, #1929379840	; 0x73000000
 2b4:	63735f74 	cmnvs	r3, #464	; 0x1d0
 2b8:	00646568 	rsbeq	r6, r4, r8, ror #10
 2bc:	5f787463 	svcpl	0x00787463
 2c0:	74697773 	strbtvc	r7, [r9], #-1907	; 0x773
 2c4:	73006863 	movwvc	r6, #2147	; 0x863
 2c8:	7065656c 	rsbvc	r6, r5, ip, ror #10
 2cc:	6f72705f 	svcvs	0x0072705f
 2d0:	72700063 	rsbsvc	r0, r0, #99	; 0x63
 2d4:	695f636f 	ldmdbvs	pc, {r0, r1, r2, r3, r5, r6, r8, r9, sp, lr}^	; <UNPREDICTABLE>
 2d8:	00726574 	rsbseq	r6, r2, r4, ror r5
 2dc:	61657263 	cmnvs	r5, r3, ror #4
 2e0:	705f6574 	subsvc	r6, pc, r4, ror r5	; <UNPREDICTABLE>
 2e4:	65636f72 	strbvs	r6, [r3, #-3954]!	; 0xf72
 2e8:	6d007373 	stcvs	3, cr7, [r0, #-460]	; 0xfffffe34
 2ec:	695f7874 	ldmdbvs	pc, {r2, r4, r5, r6, fp, ip, sp, lr}^	; <UNPREDICTABLE>
 2f0:	0074696e 	rsbseq	r6, r4, lr, ror #18
 2f4:	5f6d6573 	svcpl	0x006d6573
 2f8:	74696e69 	strbtvc	r6, [r9], #-3689	; 0xe69
 2fc:	74756d00 	ldrbtvc	r6, [r5], #-3328	; 0xd00
 300:	73007865 	movwvc	r7, #2149	; 0x865
 304:	632e6d65 	teqvs	lr, #6464	; 0x1940
 308:	6d657300 	stclvs	3, cr7, [r5, #-0]
 30c:	0070755f 	rsbseq	r7, r0, pc, asr r5
 310:	5f78746d 	svcpl	0x0078746d
 314:	6f6c6e75 	svcvs	0x006c6e75
 318:	6f006b63 	svcvs	0x00006b63
 31c:	72656e77 	rsbvc	r6, r5, #1904	; 0x770
 320:	78746d00 	ldmdavc	r4!, {r8, sl, fp, sp, lr}^
 324:	636f6c5f 	cmnvs	pc, #24320	; 0x5f00
 328:	6573006b 	ldrbvs	r0, [r3, #-107]!	; 0x6b
 32c:	6f645f6d 	svcvs	0x00645f6d
 330:	6d006e77 	stcvs	14, cr6, [r0, #-476]	; 0xfffffe24
 334:	735f7874 	cmpvc	pc, #7602176	; 0x740000
 338:	72696600 	rsbvc	r6, r9, #0
 33c:	705f7473 	subsvc	r7, pc, r3, ror r4	; <UNPREDICTABLE>
 340:	65636f72 	strbvs	r6, [r3, #-3954]!	; 0xf72
 344:	77007373 	smlsdxvc	r0, r3, r3, r7
 348:	5f746961 	svcpl	0x00746961
 34c:	636f7270 	cmnvs	pc, #7
 350:	6d657300 	stclvs	3, cr7, [r5, #-0]
 354:	78746d5f 	ldmdavc	r4!, {r0, r1, r2, r3, r4, r6, r8, sl, fp, sp, lr}^
	...

Disassembly of section .debug_frame:

00000000 <.debug_frame>:
   0:	0000000c 	andeq	r0, r0, ip
   4:	ffffffff 			; <UNDEFINED> instruction: 0xffffffff
   8:	7c020001 	stcvc	0, cr0, [r2], {1}
   c:	000d0c0e 	andeq	r0, sp, lr, lsl #24
  10:	00000010 	andeq	r0, r0, r0, lsl r0
  14:	00000000 	andeq	r0, r0, r0
  18:	000080d0 	ldrdeq	r8, [r0], -r0
  1c:	00000034 	andeq	r0, r0, r4, lsr r0
  20:	00100e42 	andseq	r0, r0, r2, asr #28
  24:	00000010 	andeq	r0, r0, r0, lsl r0
  28:	00000000 	andeq	r0, r0, r0
  2c:	00008104 	andeq	r8, r0, r4, lsl #2
  30:	00000020 	andeq	r0, r0, r0, lsr #32
  34:	00100e42 	andseq	r0, r0, r2, asr #28
  38:	00000014 	andeq	r0, r0, r4, lsl r0
  3c:	00000000 	andeq	r0, r0, r0
  40:	00008124 	andeq	r8, r0, r4, lsr #2
  44:	00000078 	andeq	r0, r0, r8, ror r0
  48:	8e040e42 	cdphi	14, 0, cr0, cr4, cr2, {2}
  4c:	180e4201 	stmdane	lr, {r0, r9, lr}
  50:	00000014 	andeq	r0, r0, r4, lsl r0
  54:	00000000 	andeq	r0, r0, r0
  58:	0000819c 	muleq	r0, ip, r1
  5c:	00000080 	andeq	r0, r0, r0, lsl #1
  60:	8e040e42 	cdphi	14, 0, cr0, cr4, cr2, {2}
  64:	180e4201 	stmdane	lr, {r0, r9, lr}
  68:	00000014 	andeq	r0, r0, r4, lsl r0
  6c:	00000000 	andeq	r0, r0, r0
  70:	0000821c 	andeq	r8, r0, ip, lsl r2
  74:	00000044 	andeq	r0, r0, r4, asr #32
  78:	83080e42 	movwhi	r0, #36418	; 0x8e42
  7c:	00018e02 	andeq	r8, r1, r2, lsl #28
  80:	0000000c 	andeq	r0, r0, ip
  84:	ffffffff 			; <UNDEFINED> instruction: 0xffffffff
  88:	7c020001 	stcvc	0, cr0, [r2], {1}
  8c:	000d0c0e 	andeq	r0, sp, lr, lsl #24
  90:	00000014 	andeq	r0, r0, r4, lsl r0
  94:	00000080 	andeq	r0, r0, r0, lsl #1
  98:	00008260 	andeq	r8, r0, r0, ror #4
  9c:	00000018 	andeq	r0, r0, r8, lsl r0
  a0:	83080e42 	movwhi	r0, #36418	; 0x8e42
  a4:	00018e02 	andeq	r8, r1, r2, lsl #28
  a8:	00000014 	andeq	r0, r0, r4, lsl r0
  ac:	00000080 	andeq	r0, r0, r0, lsl #1
  b0:	00008278 	andeq	r8, r0, r8, ror r2
  b4:	00000018 	andeq	r0, r0, r8, lsl r0
  b8:	83080e42 	movwhi	r0, #36418	; 0x8e42
  bc:	00018e02 	andeq	r8, r1, r2, lsl #28
  c0:	00000014 	andeq	r0, r0, r4, lsl r0
  c4:	00000080 	andeq	r0, r0, r0, lsl #1
  c8:	00008290 	muleq	r0, r0, r2
  cc:	00000040 	andeq	r0, r0, r0, asr #32
  d0:	8e040e42 	cdphi	14, 0, cr0, cr4, cr2, {2}
  d4:	100e4201 	andne	r4, lr, r1, lsl #4
  d8:	00000014 	andeq	r0, r0, r4, lsl r0
  dc:	00000080 	andeq	r0, r0, r0, lsl #1
  e0:	000082d0 	ldrdeq	r8, [r0], -r0
  e4:	00000018 	andeq	r0, r0, r8, lsl r0
  e8:	83080e42 	movwhi	r0, #36418	; 0x8e42
  ec:	00018e02 	andeq	r8, r1, r2, lsl #28
  f0:	00000014 	andeq	r0, r0, r4, lsl r0
  f4:	00000080 	andeq	r0, r0, r0, lsl #1
  f8:	000082e8 	andeq	r8, r0, r8, ror #5
  fc:	00000018 	andeq	r0, r0, r8, lsl r0
 100:	83080e42 	movwhi	r0, #36418	; 0x8e42
 104:	00018e02 	andeq	r8, r1, r2, lsl #28
 108:	00000014 	andeq	r0, r0, r4, lsl r0
 10c:	00000080 	andeq	r0, r0, r0, lsl #1
 110:	00008300 	andeq	r8, r0, r0, lsl #6
 114:	00000094 	muleq	r0, r4, r0
 118:	8e040e42 	cdphi	14, 0, cr0, cr4, cr2, {2}
 11c:	100e4201 	andne	r4, lr, r1, lsl #4
 120:	0000000c 	andeq	r0, r0, ip
 124:	ffffffff 			; <UNDEFINED> instruction: 0xffffffff
 128:	7c020001 	stcvc	0, cr0, [r2], {1}
 12c:	000d0c0e 	andeq	r0, sp, lr, lsl #24
 130:	00000014 	andeq	r0, r0, r4, lsl r0
 134:	00000120 	andeq	r0, r0, r0, lsr #2
 138:	00008394 	muleq	r0, r4, r3
 13c:	00000148 	andeq	r0, r0, r8, asr #2
 140:	8e040e42 	cdphi	14, 0, cr0, cr4, cr2, {2}
 144:	200e4201 	andcs	r4, lr, r1, lsl #4
 148:	00000014 	andeq	r0, r0, r4, lsl r0
 14c:	00000120 	andeq	r0, r0, r0, lsr #2
 150:	000084dc 	ldrdeq	r8, [r0], -ip
 154:	00000058 	andeq	r0, r0, r8, asr r0
 158:	8e040e42 	cdphi	14, 0, cr0, cr4, cr2, {2}
 15c:	100e4201 	andne	r4, lr, r1, lsl #4
 160:	00000010 	andeq	r0, r0, r0, lsl r0
 164:	00000120 	andeq	r0, r0, r0, lsr #2
 168:	00008534 	andeq	r8, r0, r4, lsr r5
 16c:	00000080 	andeq	r0, r0, r0, lsl #1
 170:	00080e42 	andeq	r0, r8, r2, asr #28
 174:	00000010 	andeq	r0, r0, r0, lsl r0
 178:	00000120 	andeq	r0, r0, r0, lsr #2
 17c:	000085b4 			; <UNDEFINED> instruction: 0x000085b4
 180:	000000a4 	andeq	r0, r0, r4, lsr #1
 184:	00080e42 	andeq	r0, r8, r2, asr #28
 188:	00000010 	andeq	r0, r0, r0, lsl r0
 18c:	00000120 	andeq	r0, r0, r0, lsr #2
 190:	00008658 	andeq	r8, r0, r8, asr r6
 194:	0000003c 	andeq	r0, r0, ip, lsr r0
 198:	00080e42 	andeq	r0, r8, r2, asr #28
 19c:	0000000c 	andeq	r0, r0, ip
 1a0:	ffffffff 			; <UNDEFINED> instruction: 0xffffffff
 1a4:	7c020001 	stcvc	0, cr0, [r2], {1}
 1a8:	000d0c0e 	andeq	r0, sp, lr, lsl #24
 1ac:	00000014 	andeq	r0, r0, r4, lsl r0
 1b0:	0000019c 	muleq	r0, ip, r1
 1b4:	00008694 	muleq	r0, r4, r6
 1b8:	00000038 	andeq	r0, r0, r8, lsr r0
 1bc:	83080e42 	movwhi	r0, #36418	; 0x8e42
 1c0:	00018e02 	andeq	r8, r1, r2, lsl #28
 1c4:	00000014 	andeq	r0, r0, r4, lsl r0
 1c8:	0000019c 	muleq	r0, ip, r1
 1cc:	000086cc 	andeq	r8, r0, ip, asr #13
 1d0:	000000f8 	strdeq	r0, [r0], -r8
 1d4:	8e040e42 	cdphi	14, 0, cr0, cr4, cr2, {2}
 1d8:	180e4201 	stmdane	lr, {r0, r9, lr}
 1dc:	0000000c 	andeq	r0, r0, ip
 1e0:	0000019c 	muleq	r0, ip, r1
 1e4:	000087c4 	andeq	r8, r0, r4, asr #15
 1e8:	000001e4 	andeq	r0, r0, r4, ror #3
 1ec:	00000010 	andeq	r0, r0, r0, lsl r0
 1f0:	0000019c 	muleq	r0, ip, r1
 1f4:	000089a8 	andeq	r8, r0, r8, lsr #19
 1f8:	0000004c 	andeq	r0, r0, ip, asr #32
 1fc:	00080e42 	andeq	r0, r8, r2, asr #28
 200:	0000000c 	andeq	r0, r0, ip
 204:	ffffffff 			; <UNDEFINED> instruction: 0xffffffff
 208:	7c020001 	stcvc	0, cr0, [r2], {1}
 20c:	000d0c0e 	andeq	r0, sp, lr, lsl #24
 210:	00000014 	andeq	r0, r0, r4, lsl r0
 214:	00000200 	andeq	r0, r0, r0, lsl #4
 218:	000089f4 	strdeq	r8, [r0], -r4
 21c:	0000005c 	andeq	r0, r0, ip, asr r0
 220:	8e040e42 	cdphi	14, 0, cr0, cr4, cr2, {2}
 224:	100e4201 	andne	r4, lr, r1, lsl #4
 228:	00000014 	andeq	r0, r0, r4, lsl r0
 22c:	00000200 	andeq	r0, r0, r0, lsl #4
 230:	00008a50 	andeq	r8, r0, r0, asr sl
 234:	000000a8 	andeq	r0, r0, r8, lsr #1
 238:	8e040e42 	cdphi	14, 0, cr0, cr4, cr2, {2}
 23c:	180e4201 	stmdane	lr, {r0, r9, lr}
 240:	00000014 	andeq	r0, r0, r4, lsl r0
 244:	00000200 	andeq	r0, r0, r0, lsl #4
 248:	00008af8 	strdeq	r8, [r0], -r8	; <UNPREDICTABLE>
 24c:	00000128 	andeq	r0, r0, r8, lsr #2
 250:	8e040e42 	cdphi	14, 0, cr0, cr4, cr2, {2}
 254:	180e4201 	stmdane	lr, {r0, r9, lr}
 258:	00000014 	andeq	r0, r0, r4, lsl r0
 25c:	00000200 	andeq	r0, r0, r0, lsl #4
 260:	00008c20 	andeq	r8, r0, r0, lsr #24
 264:	0000004c 	andeq	r0, r0, ip, asr #32
 268:	8e040e42 	cdphi	14, 0, cr0, cr4, cr2, {2}
 26c:	100e4201 	andne	r4, lr, r1, lsl #4
 270:	00000014 	andeq	r0, r0, r4, lsl r0
 274:	00000200 	andeq	r0, r0, r0, lsl #4
 278:	00008c6c 	andeq	r8, r0, ip, ror #24
 27c:	00000060 	andeq	r0, r0, r0, rrx
 280:	8e040e42 	cdphi	14, 0, cr0, cr4, cr2, {2}
 284:	100e4201 	andne	r4, lr, r1, lsl #4
 288:	00000014 	andeq	r0, r0, r4, lsl r0
 28c:	00000200 	andeq	r0, r0, r0, lsl #4
 290:	00008ccc 	andeq	r8, r0, ip, asr #25
 294:	00000068 	andeq	r0, r0, r8, rrx
 298:	8e040e42 	cdphi	14, 0, cr0, cr4, cr2, {2}
 29c:	100e4201 	andne	r4, lr, r1, lsl #4

Disassembly of section .debug_ranges:

00000000 <.debug_ranges>:
   0:	0000006c 	andeq	r0, r0, ip, rrx
   4:	000000e4 	andeq	r0, r0, r4, ror #1
   8:	00000110 	andeq	r0, r0, r0, lsl r1
   c:	00000114 	andeq	r0, r0, r4, lsl r1
	...
